libaddress_sorting.so.8:address_sorting_abstract_get_family
libaddress_sorting.so.8:address_sorting_create_source_addr_factory_for_current_platform
libaddress_sorting.so.8:address_sorting_get_source_addr_for_testing
libaddress_sorting.so.8:address_sorting_init
libaddress_sorting.so.8:address_sorting_override_source_addr_factory_for_testing
libaddress_sorting.so.8:address_sorting_rfc_6724_sort
libaddress_sorting.so.8:address_sorting_shutdown
libgpr.so.8:_Z10gpr_getenvPKc
libgpr.so.8:_Z10gpr_setenvPKcS0_
libgpr.so.8:_Z10int64_ttoalPc
libgpr.so.8:_Z11gpr_leftpadPKccm
libgpr.so.8:_Z11gpr_memrchrPKvim
libgpr.so.8:_Z11gpr_stricmpPKcS0_
libgpr.so.8:_Z11gpr_strjoinPPKcmPm
libgpr.so.8:_Z11gpr_tmpfilePKcPPc
libgpr.so.8:_Z12gpr_strincmpPKcS0_m
libgpr.so.8:_Z12gpr_unsetenvPKc
libgpr.so.8:_Z13gpr_mpscq_popP9gpr_mpscq
libgpr.so.8:_Z14gpr_mpscq_initP9gpr_mpscq
libgpr.so.8:_Z14gpr_mpscq_pushP9gpr_mpscqP14gpr_mpscq_node
libgpr.so.8:_Z14gpr_strvec_addP10gpr_strvecPc
libgpr.so.8:_Z15gpr_default_logP17gpr_log_func_args
libgpr.so.8:_Z15gpr_strjoin_sepPPKcmS0_Pm
libgpr.so.8:_Z15gpr_strvec_initP10gpr_strvec
libgpr.so.8:_Z16gpr_murmur_hash3PKvmj
libgpr.so.8:_Z16gpr_string_splitPKcS0_PPPcPm
libgpr.so.8:_Z17gpr_mpscq_destroyP9gpr_mpscq
libgpr.so.8:_Z17gpr_reverse_bytesPci
libgpr.so.8:_Z18gpr_strvec_destroyP10gpr_strvec
libgpr.so.8:_Z18gpr_strvec_flattenP10gpr_strvecPm
libgpr.so.8:_Z19gpr_dump_return_lenPKcmjPm
libgpr.so.8:_Z19gpr_format_timespec12gpr_timespec
libgpr.so.8:_Z20gpr_locked_mpscq_popP16gpr_locked_mpscq
libgpr.so.8:_Z20gpr_parse_bool_valuePKcPb
libgpr.so.8:_Z21gpr_cycle_counter_subdd
libgpr.so.8:_Z21gpr_get_cycle_counterv
libgpr.so.8:_Z21gpr_locked_mpscq_initP16gpr_locked_mpscq
libgpr.so.8:_Z21gpr_locked_mpscq_pushP16gpr_locked_mpscqP14gpr_mpscq_node
libgpr.so.8:_Z21gpr_precise_clock_nowP12gpr_timespec
libgpr.so.8:_Z21gpr_timer_set_enabledi
libgpr.so.8:_Z22gpr_precise_clock_initv
libgpr.so.8:_Z22gpr_timers_global_initv
libgpr.so.8:_Z24gpr_locked_mpscq_destroyP16gpr_locked_mpscq
libgpr.so.8:_Z24gpr_locked_mpscq_try_popP16gpr_locked_mpscq
libgpr.so.8:_Z25gpr_cycle_counter_to_timed
libgpr.so.8:_Z25gpr_parse_bytes_to_uint32PKcmPj
libgpr.so.8:_Z25gpr_parse_nonnegative_intPKc
libgpr.so.8:_Z25gpr_timers_global_destroyv
libgpr.so.8:_Z27gpr_mpscq_pop_and_check_endP9gpr_mpscqPb
libgpr.so.8:_Z27gpr_timers_set_log_filenamePKc
libgpr.so.8:_Z36gpr_global_config_get_grpc_verbosityv
libgpr.so.8:_Z36gpr_global_config_set_grpc_verbosityPKc
libgpr.so.8:_Z46gpr_global_config_get_grpc_enable_fork_supportv
libgpr.so.8:_Z46gpr_global_config_set_grpc_enable_fork_supportb
libgpr.so.8:_Z8gpr_dumpPKcmj
libgpr.so.8:_Z8gpr_ltoalPc
libgpr.so.8:_ZN9grpc_core12JoinHostPortEPSt10unique_ptrIcNS_13DefaultDeleteIcEEEPKci
libgpr.so.8:_ZN9grpc_core13SplitHostPortENS_10StringViewEPS0_S1_
libgpr.so.8:_ZN9grpc_core13SplitHostPortENS_10StringViewEPSt10unique_ptrIcNS_13DefaultDeleteIcEEES5_
libgpr.so.8:_ZN9grpc_core15GlobalConfigEnv5UnsetEv
libgpr.so.8:_ZN9grpc_core15GlobalConfigEnv7GetNameEv
libgpr.so.8:_ZN9grpc_core15GlobalConfigEnv8GetValueEv
libgpr.so.8:_ZN9grpc_core15GlobalConfigEnv8SetValueEPKc
libgpr.so.8:_ZN9grpc_core19GlobalConfigEnvBool3GetEv
libgpr.so.8:_ZN9grpc_core19GlobalConfigEnvBool3SetEb
libgpr.so.8:_ZN9grpc_core20GlobalConfigEnvInt323GetEv
libgpr.so.8:_ZN9grpc_core20GlobalConfigEnvInt323SetEi
libgpr.so.8:_ZN9grpc_core21GlobalConfigEnvString3GetEv
libgpr.so.8:_ZN9grpc_core21GlobalConfigEnvString3SetEPKc
libgpr.so.8:_ZN9grpc_core31SetGlobalConfigEnvErrorFunctionEPFvPKcE
libgpr.so.8:_ZN9grpc_core4Fork10GlobalInitEv
libgpr.so.8:_ZN9grpc_core4Fork12AllowExecCtxEv
libgpr.so.8:_ZN9grpc_core4Fork12AwaitThreadsEv
libgpr.so.8:_ZN9grpc_core4Fork12BlockExecCtxEv
libgpr.so.8:_ZN9grpc_core4Fork14DecThreadCountEv
libgpr.so.8:_ZN9grpc_core4Fork14GlobalShutdownEv
libgpr.so.8:_ZN9grpc_core4Fork14IncThreadCountEv
libgpr.so.8:_ZN9grpc_core4Fork17DoDecExecCtxCountEv
libgpr.so.8:_ZN9grpc_core4Fork17DoIncExecCtxCountEv
libgpr.so.8:_ZN9grpc_core4Fork30GetResetChildPollingEngineFuncEv
libgpr.so.8:_ZN9grpc_core4Fork30SetResetChildPollingEngineFuncEPFvvE
libgpr.so.8:_ZN9grpc_core4Fork6EnableEb
libgpr.so.8:_ZN9grpc_core4Fork7EnabledEv
libgpr.so.8:_ZN9grpc_core5Arena15CreateWithAllocEmm
libgpr.so.8:_ZN9grpc_core5Arena6CreateEm
libgpr.so.8:_ZN9grpc_core5Arena7DestroyEv
libgpr.so.8:_ZN9grpc_core5Arena9AllocZoneEm
libgpr.so.8:_ZN9grpc_core5ArenaD1Ev
libgpr.so.8:_ZN9grpc_core5ArenaD2Ev
libgpr.so.8:_ZN9grpc_core6ThreadC1EPKcPFvPvES3_PbRKNS0_7OptionsE
libgpr.so.8:_ZN9grpc_core6ThreadC2EPKcPFvPvES3_PbRKNS0_7OptionsE
libgpr.so.8:__wrap_memcpy
libgpr.so.8:gpr_asprintf
libgpr.so.8:gpr_atm_no_barrier_clamped_add
libgpr.so.8:gpr_convert_clock_type
libgpr.so.8:gpr_cpu_current_cpu
libgpr.so.8:gpr_cpu_num_cores
libgpr.so.8:gpr_cv_broadcast
libgpr.so.8:gpr_cv_destroy
libgpr.so.8:gpr_cv_init
libgpr.so.8:gpr_cv_signal
libgpr.so.8:gpr_cv_wait
libgpr.so.8:gpr_event_get
libgpr.so.8:gpr_event_init
libgpr.so.8:gpr_event_set
libgpr.so.8:gpr_event_wait
libgpr.so.8:gpr_free
libgpr.so.8:gpr_free_aligned
libgpr.so.8:gpr_get_allocation_functions
libgpr.so.8:gpr_inf_future
libgpr.so.8:gpr_inf_past
libgpr.so.8:gpr_log
libgpr.so.8:gpr_log_message
libgpr.so.8:gpr_log_severity_string
libgpr.so.8:gpr_log_verbosity_init
libgpr.so.8:gpr_malloc
libgpr.so.8:gpr_malloc_aligned
libgpr.so.8:gpr_mu_destroy
libgpr.so.8:gpr_mu_init
libgpr.so.8:gpr_mu_lock
libgpr.so.8:gpr_mu_trylock
libgpr.so.8:gpr_mu_unlock
libgpr.so.8:gpr_now
libgpr.so.8:gpr_once_init
libgpr.so.8:gpr_realloc
libgpr.so.8:gpr_ref
libgpr.so.8:gpr_ref_init
libgpr.so.8:gpr_ref_is_unique
libgpr.so.8:gpr_ref_non_zero
libgpr.so.8:gpr_refn
libgpr.so.8:gpr_set_allocation_functions
libgpr.so.8:gpr_set_log_function
libgpr.so.8:gpr_set_log_verbosity
libgpr.so.8:gpr_should_log
libgpr.so.8:gpr_sleep_until
libgpr.so.8:gpr_stats_inc
libgpr.so.8:gpr_stats_init
libgpr.so.8:gpr_stats_read
libgpr.so.8:gpr_strdup
libgpr.so.8:gpr_thd_currentid
libgpr.so.8:gpr_time_0
libgpr.so.8:gpr_time_add
libgpr.so.8:gpr_time_cmp
libgpr.so.8:gpr_time_from_hours
libgpr.so.8:gpr_time_from_micros
libgpr.so.8:gpr_time_from_millis
libgpr.so.8:gpr_time_from_minutes
libgpr.so.8:gpr_time_from_nanos
libgpr.so.8:gpr_time_from_seconds
libgpr.so.8:gpr_time_init
libgpr.so.8:gpr_time_max
libgpr.so.8:gpr_time_min
libgpr.so.8:gpr_time_similar
libgpr.so.8:gpr_time_sub
libgpr.so.8:gpr_time_to_millis
libgpr.so.8:gpr_timespec_to_micros
libgpr.so.8:gpr_unref
libgpr.so.8:gpr_zalloc
libgrpc++.so.1:_ZN4grpc11ChannelData16StartTransportOpEP20grpc_channel_elementPNS_11TransportOpE
libgrpc++.so.1:_ZN4grpc11ChannelData7GetInfoEP20grpc_channel_elementPK17grpc_channel_info
libgrpc++.so.1:_ZN4grpc11CoreCodegen10gpr_mallocEm
libgrpc++.so.1:_ZN4grpc11CoreCodegen10gpr_time_0E14gpr_clock_type
libgrpc++.so.1:_ZN4grpc11CoreCodegen11assert_failEPKcS2_i
libgrpc++.so.1:_ZN4grpc11CoreCodegen11gpr_cv_initEP14pthread_cond_t
libgrpc++.so.1:_ZN4grpc11CoreCodegen11gpr_cv_waitEP14pthread_cond_tP15pthread_mutex_t12gpr_timespec
libgrpc++.so.1:_ZN4grpc11CoreCodegen11gpr_mu_initEP15pthread_mutex_t
libgrpc++.so.1:_ZN4grpc11CoreCodegen11gpr_mu_lockEP15pthread_mutex_t
libgrpc++.so.1:_ZN4grpc11CoreCodegen13gpr_cv_signalEP14pthread_cond_t
libgrpc++.so.1:_ZN4grpc11CoreCodegen13gpr_mu_unlockEP15pthread_mutex_t
libgrpc++.so.1:_ZN4grpc11CoreCodegen13grpc_call_refEP9grpc_call
libgrpc++.so.1:_ZN4grpc11CoreCodegen13grpc_shutdownEv
libgrpc++.so.1:_ZN4grpc11CoreCodegen14gpr_cv_destroyEP14pthread_cond_t
libgrpc++.so.1:_ZN4grpc11CoreCodegen14gpr_inf_futureE14gpr_clock_type
libgrpc++.so.1:_ZN4grpc11CoreCodegen14gpr_mu_destroyEP15pthread_mutex_t
libgrpc++.so.1:_ZN4grpc11CoreCodegen14grpc_slice_refE10grpc_slice
libgrpc++.so.1:_ZN4grpc11CoreCodegen14grpc_slice_subE10grpc_slicemm
libgrpc++.so.1:_ZN4grpc11CoreCodegen15grpc_call_unrefEP9grpc_call
libgrpc++.so.1:_ZN4grpc11CoreCodegen16gpr_cv_broadcastEP14pthread_cond_t
libgrpc++.so.1:_ZN4grpc11CoreCodegen16grpc_empty_sliceEv
libgrpc++.so.1:_ZN4grpc11CoreCodegen16grpc_slice_unrefE10grpc_slice
libgrpc++.so.1:_ZN4grpc11CoreCodegen17grpc_slice_mallocEm
libgrpc++.so.1:_ZN4grpc11CoreCodegen21grpc_byte_buffer_copyEP16grpc_byte_buffer
libgrpc++.so.1:_ZN4grpc11CoreCodegen21grpc_call_arena_allocEP9grpc_callm
libgrpc++.so.1:_ZN4grpc11CoreCodegen21grpc_call_start_batchEP9grpc_callPK7grpc_opmPvS6_
libgrpc++.so.1:_ZN4grpc11CoreCodegen21grpc_slice_buffer_addEP17grpc_slice_buffer10grpc_slice
libgrpc++.so.1:_ZN4grpc11CoreCodegen21grpc_slice_buffer_popEP17grpc_slice_buffer
libgrpc++.so.1:_ZN4grpc11CoreCodegen21grpc_slice_split_headEP10grpc_slicem
libgrpc++.so.1:_ZN4grpc11CoreCodegen21grpc_slice_split_tailEP10grpc_slicem
libgrpc++.so.1:_ZN4grpc11CoreCodegen23grpc_byte_buffer_lengthEP16grpc_byte_buffer
libgrpc++.so.1:_ZN4grpc11CoreCodegen23grpc_slice_new_with_lenEPvmPFvS1_mE
libgrpc++.so.1:_ZN4grpc11CoreCodegen24grpc_byte_buffer_destroyEP16grpc_byte_buffer
libgrpc++.so.1:_ZN4grpc11CoreCodegen24grpc_metadata_array_initEP19grpc_metadata_array
libgrpc++.so.1:_ZN4grpc11CoreCodegen27grpc_completion_queue_pluckEP21grpc_completion_queuePv12gpr_timespecS3_
libgrpc++.so.1:_ZN4grpc11CoreCodegen27grpc_metadata_array_destroyEP19grpc_metadata_array
libgrpc++.so.1:_ZN4grpc11CoreCodegen27grpc_raw_byte_buffer_createEP10grpc_slicem
libgrpc++.so.1:_ZN4grpc11CoreCodegen28grpc_byte_buffer_reader_initEP23grpc_byte_buffer_readerP16grpc_byte_buffer
libgrpc++.so.1:_ZN4grpc11CoreCodegen28grpc_byte_buffer_reader_nextEP23grpc_byte_buffer_readerP10grpc_slice
libgrpc++.so.1:_ZN4grpc11CoreCodegen28grpc_byte_buffer_reader_peekEP23grpc_byte_buffer_readerPP10grpc_slice
libgrpc++.so.1:_ZN4grpc11CoreCodegen28grpc_call_cancel_with_statusEP9grpc_call16grpc_status_codePKcPv
libgrpc++.so.1:_ZN4grpc11CoreCodegen28grpc_completion_queue_createEPK29grpc_completion_queue_factoryPK32grpc_completion_queue_attributesPv
libgrpc++.so.1:_ZN4grpc11CoreCodegen29grpc_completion_queue_destroyEP21grpc_completion_queue
libgrpc++.so.1:_ZN4grpc11CoreCodegen29grpc_slice_from_copied_bufferEPKvm
libgrpc++.so.1:_ZN4grpc11CoreCodegen29grpc_slice_from_static_bufferEPKvm
libgrpc++.so.1:_ZN4grpc11CoreCodegen29grpc_slice_new_with_user_dataEPvmPFvS1_ES1_
libgrpc++.so.1:_ZN4grpc11CoreCodegen2okEv
libgrpc++.so.1:_ZN4grpc11CoreCodegen30grpc_completion_queue_shutdownEP21grpc_completion_queue
libgrpc++.so.1:_ZN4grpc11CoreCodegen31grpc_byte_buffer_reader_destroyEP23grpc_byte_buffer_reader
libgrpc++.so.1:_ZN4grpc11CoreCodegen36grpc_completion_queue_factory_lookupEPK32grpc_completion_queue_attributes
libgrpc++.so.1:_ZN4grpc11CoreCodegen37grpc_completion_queue_create_for_nextEPv
libgrpc++.so.1:_ZN4grpc11CoreCodegen38grpc_completion_queue_create_for_pluckEPv
libgrpc++.so.1:_ZN4grpc11CoreCodegen8gpr_freeEPv
libgrpc++.so.1:_ZN4grpc11CoreCodegen9cancelledEv
libgrpc++.so.1:_ZN4grpc11CoreCodegen9grpc_initEv
libgrpc++.so.1:_ZN4grpc12experimental25ValidateServiceConfigJSONERKNSt7__cxx1112basic_stringIcSt11char_traitsIcESaIcEEE
libgrpc++.so.1:_ZN4grpc12experimental29ChannelResetConnectionBackoffEPN9grpc_impl7ChannelE
libgrpc++.so.1:_ZN4grpc12experimental38RegisterGlobalClientInterceptorFactoryEPNS0_33ClientInterceptorFactoryInterfaceE
libgrpc++.so.1:_ZN4grpc12experimental43TestOnlyResetGlobalClientInterceptorFactoryEv
libgrpc++.so.1:_ZN4grpc13MetadataBatch11AddMetadataERKNSt7__cxx1112basic_stringIcSt11char_traitsIcESaIcEEES8_
libgrpc++.so.1:_ZN4grpc13ThreadManager10InitializeEv
libgrpc++.so.1:_ZN4grpc13ThreadManager10IsShutdownEv
libgrpc++.so.1:_ZN4grpc13ThreadManager12MainWorkLoopEv
libgrpc++.so.1:_ZN4grpc13ThreadManager12WorkerThread3RunEv
libgrpc++.so.1:_ZN4grpc13ThreadManager12WorkerThreadC1EPS0_
libgrpc++.so.1:_ZN4grpc13ThreadManager12WorkerThreadC2EPS0_
libgrpc++.so.1:_ZN4grpc13ThreadManager12WorkerThreadD1Ev
libgrpc++.so.1:_ZN4grpc13ThreadManager12WorkerThreadD2Ev
libgrpc++.so.1:_ZN4grpc13ThreadManager15MarkAsCompletedEPNS0_12WorkerThreadE
libgrpc++.so.1:_ZN4grpc13ThreadManager23CleanupCompletedThreadsEv
libgrpc++.so.1:_ZN4grpc13ThreadManager24GetMaxActiveThreadsSoFarEv
libgrpc++.so.1:_ZN4grpc13ThreadManager4WaitEv
libgrpc++.so.1:_ZN4grpc13ThreadManager8ShutdownEv
libgrpc++.so.1:_ZN4grpc13ThreadManagerC1EPKcP19grpc_resource_quotaii
libgrpc++.so.1:_ZN4grpc13ThreadManagerC2EPKcP19grpc_resource_quotaii
libgrpc++.so.1:_ZN4grpc13ThreadManagerD0Ev
libgrpc++.so.1:_ZN4grpc13ThreadManagerD1Ev
libgrpc++.so.1:_ZN4grpc13ThreadManagerD2Ev
libgrpc++.so.1:_ZN4grpc15ServerInterface16BaseAsyncRequest14FinalizeResultEPPvPb
libgrpc++.so.1:_ZN4grpc15ServerInterface16BaseAsyncRequest39ContinueFinalizeResultAfterInterceptionEv
libgrpc++.so.1:_ZN4grpc15ServerInterface16BaseAsyncRequestC1EPS0_PN9grpc_impl13ServerContextEPNS_8internal29ServerAsyncStreamingInterfaceEPNS3_15CompletionQueueEPNS3_21ServerCompletionQueueEPvb
libgrpc++.so.1:_ZN4grpc15ServerInterface16BaseAsyncRequestC2EPS0_PN9grpc_impl13ServerContextEPNS_8internal29ServerAsyncStreamingInterfaceEPNS3_15CompletionQueueEPNS3_21ServerCompletionQueueEPvb
libgrpc++.so.1:_ZN4grpc15ServerInterface16BaseAsyncRequestD0Ev
libgrpc++.so.1:_ZN4grpc15ServerInterface16BaseAsyncRequestD1Ev
libgrpc++.so.1:_ZN4grpc15ServerInterface16BaseAsyncRequestD2Ev
libgrpc++.so.1:_ZN4grpc15ServerInterface19GenericAsyncRequest14FinalizeResultEPPvPb
libgrpc++.so.1:_ZN4grpc15ServerInterface19GenericAsyncRequestC1EPS0_PNS_20GenericServerContextEPNS_8internal29ServerAsyncStreamingInterfaceEPN9grpc_impl15CompletionQueueEPNS8_21ServerCompletionQueueEPvb
libgrpc++.so.1:_ZN4grpc15ServerInterface19GenericAsyncRequestC2EPS0_PNS_20GenericServerContextEPNS_8internal29ServerAsyncStreamingInterfaceEPN9grpc_impl15CompletionQueueEPNS8_21ServerCompletionQueueEPvb
libgrpc++.so.1:_ZN4grpc15ServerInterface22RegisteredAsyncRequest12IssueRequestEPvPP16grpc_byte_bufferPN9grpc_impl21ServerCompletionQueueE
libgrpc++.so.1:_ZN4grpc15ServerInterface22RegisteredAsyncRequestC1EPS0_PN9grpc_impl13ServerContextEPNS_8internal29ServerAsyncStreamingInterfaceEPNS3_15CompletionQueueEPNS3_21ServerCompletionQueueEPvPKcNS6_9RpcMethod7RpcTypeE
libgrpc++.so.1:_ZN4grpc15ServerInterface22RegisteredAsyncRequestC2EPS0_PN9grpc_impl13ServerContextEPNS_8internal29ServerAsyncStreamingInterfaceEPNS3_15CompletionQueueEPNS3_21ServerCompletionQueueEPvPKcNS6_9RpcMethod7RpcTypeE
libgrpc++.so.1:_ZN4grpc17CreateAuthContextEP9grpc_call
libgrpc++.so.1:_ZN4grpc17DynamicThreadPool10ThreadFuncEv
libgrpc++.so.1:_ZN4grpc17DynamicThreadPool11ReapThreadsEPNSt7__cxx114listIPNS0_13DynamicThreadESaIS4_EEE
libgrpc++.so.1:_ZN4grpc17DynamicThreadPool13DynamicThread10ThreadFuncEv
libgrpc++.so.1:_ZN4grpc17DynamicThreadPool13DynamicThreadC1EPS0_
libgrpc++.so.1:_ZN4grpc17DynamicThreadPool13DynamicThreadC2EPS0_
libgrpc++.so.1:_ZN4grpc17DynamicThreadPool13DynamicThreadD1Ev
libgrpc++.so.1:_ZN4grpc17DynamicThreadPool13DynamicThreadD2Ev
libgrpc++.so.1:_ZN4grpc17DynamicThreadPool3AddERKSt8functionIFvvEE
libgrpc++.so.1:_ZN4grpc17DynamicThreadPoolC1Ei
libgrpc++.so.1:_ZN4grpc17DynamicThreadPoolC2Ei
libgrpc++.so.1:_ZN4grpc17DynamicThreadPoolD0Ev
libgrpc++.so.1:_ZN4grpc17DynamicThreadPoolD1Ev
libgrpc++.so.1:_ZN4grpc17DynamicThreadPoolD2Ev
libgrpc++.so.1:_ZN4grpc17SecureAuthContext11AddPropertyERKNSt7__cxx1112basic_stringIcSt11char_traitsIcESaIcEEERKNS_10string_refE
libgrpc++.so.1:_ZN4grpc17SecureAuthContext27SetPeerIdentityPropertyNameERKNSt7__cxx1112basic_stringIcSt11char_traitsIcESaIcEEE
libgrpc++.so.1:_ZN4grpc18Timepoint2TimespecERKNSt6chrono10time_pointINS0_3_V212system_clockENS0_8durationIlSt5ratioILl1ELl1000000000EEEEEEP12gpr_timespec
libgrpc++.so.1:_ZN4grpc18Timespec2TimepointE12gpr_timespec
libgrpc++.so.1:_ZN4grpc19AsyncGenericService11RequestCallEPNS_20GenericServerContextEPN9grpc_impl23ServerAsyncReaderWriterINS_10ByteBufferES5_EEPNS3_15CompletionQueueEPNS3_21ServerCompletionQueueEPv
libgrpc++.so.1:_ZN4grpc19SetCreateThreadPoolEPFPNS_19ThreadPoolInterfaceEvE
libgrpc++.so.1:_ZN4grpc20AuthPropertyIteratorC1EPK18grpc_auth_propertyPK27grpc_auth_property_iterator
libgrpc++.so.1:_ZN4grpc20AuthPropertyIteratorC1Ev
libgrpc++.so.1:_ZN4grpc20AuthPropertyIteratorC2EPK18grpc_auth_propertyPK27grpc_auth_property_iterator
libgrpc++.so.1:_ZN4grpc20AuthPropertyIteratorC2Ev
libgrpc++.so.1:_ZN4grpc20AuthPropertyIteratorD1Ev
libgrpc++.so.1:_ZN4grpc20AuthPropertyIteratorD2Ev
libgrpc++.so.1:_ZN4grpc20AuthPropertyIteratordeEv
libgrpc++.so.1:_ZN4grpc20AuthPropertyIteratorppEi
libgrpc++.so.1:_ZN4grpc20AuthPropertyIteratorppEv
libgrpc++.so.1:_ZN4grpc20TimepointHR2TimespecERKNSt6chrono10time_pointINS0_3_V212system_clockENS0_8durationIlSt5ratioILl1ELl1000000000EEEEEEP12gpr_timespec
libgrpc++.so.1:_ZN4grpc21CreateChannelInternalERKNSt7__cxx1112basic_stringIcSt11char_traitsIcESaIcEEEP12grpc_channelSt6vectorISt10unique_ptrINS_12experimental33ClientInterceptorFactoryInterfaceESt14default_deleteISD_EESaISG_EE
libgrpc++.so.1:_ZN4grpc23CreateDefaultThreadPoolEv
libgrpc++.so.1:_ZN4grpc25DefaultHealthCheckService11ServiceData14AddCallHandlerESt10shared_ptrINS0_22HealthCheckServiceImpl11CallHandlerEE
libgrpc++.so.1:_ZN4grpc25DefaultHealthCheckService11ServiceData16SetServingStatusENS0_13ServingStatusE
libgrpc++.so.1:_ZN4grpc25DefaultHealthCheckService11ServiceData17RemoveCallHandlerERKSt10shared_ptrINS0_22HealthCheckServiceImpl11CallHandlerEE
libgrpc++.so.1:_ZN4grpc25DefaultHealthCheckService16SetServingStatusERKNSt7__cxx1112basic_stringIcSt11char_traitsIcESaIcEEEb
libgrpc++.so.1:_ZN4grpc25DefaultHealthCheckService16SetServingStatusEb
libgrpc++.so.1:_ZN4grpc25DefaultHealthCheckService19RegisterCallHandlerERKNSt7__cxx1112basic_stringIcSt11char_traitsIcESaIcEEESt10shared_ptrINS0_22HealthCheckServiceImpl11CallHandlerEE
libgrpc++.so.1:_ZN4grpc25DefaultHealthCheckService21GetHealthCheckServiceESt10unique_ptrIN9grpc_impl21ServerCompletionQueueESt14default_deleteIS3_EE
libgrpc++.so.1:_ZN4grpc25DefaultHealthCheckService21UnregisterCallHandlerERKNSt7__cxx1112basic_stringIcSt11char_traitsIcESaIcEEERKSt10shared_ptrINS0_22HealthCheckServiceImpl11CallHandlerEE
libgrpc++.so.1:_ZN4grpc25DefaultHealthCheckService22HealthCheckServiceImpl13DecodeRequestERKNS_10ByteBufferEPNSt7__cxx1112basic_stringIcSt11char_traitsIcESaIcEEE
libgrpc++.so.1:_ZN4grpc25DefaultHealthCheckService22HealthCheckServiceImpl14EncodeResponseENS0_13ServingStatusEPNS_10ByteBufferE
libgrpc++.so.1:_ZN4grpc25DefaultHealthCheckService22HealthCheckServiceImpl16CheckCallHandler12OnFinishDoneESt10shared_ptrINS1_11CallHandlerEEb
libgrpc++.so.1:_ZN4grpc25DefaultHealthCheckService22HealthCheckServiceImpl16CheckCallHandler14CreateAndStartEPN9grpc_impl21ServerCompletionQueueEPS0_PS1_
libgrpc++.so.1:_ZN4grpc25DefaultHealthCheckService22HealthCheckServiceImpl16CheckCallHandler14OnCallReceivedESt10shared_ptrINS1_11CallHandlerEEb
libgrpc++.so.1:_ZN4grpc25DefaultHealthCheckService22HealthCheckServiceImpl16CheckCallHandlerC1EPN9grpc_impl21ServerCompletionQueueEPS0_PS1_
libgrpc++.so.1:_ZN4grpc25DefaultHealthCheckService22HealthCheckServiceImpl16CheckCallHandlerC2EPN9grpc_impl21ServerCompletionQueueEPS0_PS1_
libgrpc++.so.1:_ZN4grpc25DefaultHealthCheckService22HealthCheckServiceImpl16WatchCallHandler10SendFinishESt10shared_ptrINS1_11CallHandlerEERKNS_6StatusE
libgrpc++.so.1:_ZN4grpc25DefaultHealthCheckService22HealthCheckServiceImpl16WatchCallHandler10SendHealthESt10shared_ptrINS1_11CallHandlerEENS0_13ServingStatusE
libgrpc++.so.1:_ZN4grpc25DefaultHealthCheckService22HealthCheckServiceImpl16WatchCallHandler12OnFinishDoneESt10shared_ptrINS1_11CallHandlerEEb
libgrpc++.so.1:_ZN4grpc25DefaultHealthCheckService22HealthCheckServiceImpl16WatchCallHandler14CreateAndStartEPN9grpc_impl21ServerCompletionQueueEPS0_PS1_
libgrpc++.so.1:_ZN4grpc25DefaultHealthCheckService22HealthCheckServiceImpl16WatchCallHandler14OnCallReceivedESt10shared_ptrINS1_11CallHandlerEEb
libgrpc++.so.1:_ZN4grpc25DefaultHealthCheckService22HealthCheckServiceImpl16WatchCallHandler14OnDoneNotifiedESt10shared_ptrINS1_11CallHandlerEEb
libgrpc++.so.1:_ZN4grpc25DefaultHealthCheckService22HealthCheckServiceImpl16WatchCallHandler16OnSendHealthDoneESt10shared_ptrINS1_11CallHandlerEEb
libgrpc++.so.1:_ZN4grpc25DefaultHealthCheckService22HealthCheckServiceImpl16WatchCallHandler16SendFinishLockedESt10shared_ptrINS1_11CallHandlerEERKNS_6StatusE
libgrpc++.so.1:_ZN4grpc25DefaultHealthCheckService22HealthCheckServiceImpl16WatchCallHandler16SendHealthLockedESt10shared_ptrINS1_11CallHandlerEENS0_13ServingStatusE
libgrpc++.so.1:_ZN4grpc25DefaultHealthCheckService22HealthCheckServiceImpl16WatchCallHandlerC1EPN9grpc_impl21ServerCompletionQueueEPS0_PS1_
libgrpc++.so.1:_ZN4grpc25DefaultHealthCheckService22HealthCheckServiceImpl16WatchCallHandlerC2EPN9grpc_impl21ServerCompletionQueueEPS0_PS1_
libgrpc++.so.1:_ZN4grpc25DefaultHealthCheckService22HealthCheckServiceImpl18StartServingThreadEv
libgrpc++.so.1:_ZN4grpc25DefaultHealthCheckService22HealthCheckServiceImpl5ServeEPv
libgrpc++.so.1:_ZN4grpc25DefaultHealthCheckService22HealthCheckServiceImplC1EPS0_St10unique_ptrIN9grpc_impl21ServerCompletionQueueESt14default_deleteIS5_EE
libgrpc++.so.1:_ZN4grpc25DefaultHealthCheckService22HealthCheckServiceImplC2EPS0_St10unique_ptrIN9grpc_impl21ServerCompletionQueueESt14default_deleteIS5_EE
libgrpc++.so.1:_ZN4grpc25DefaultHealthCheckService22HealthCheckServiceImplD0Ev
libgrpc++.so.1:_ZN4grpc25DefaultHealthCheckService22HealthCheckServiceImplD1Ev
libgrpc++.so.1:_ZN4grpc25DefaultHealthCheckService22HealthCheckServiceImplD2Ev
libgrpc++.so.1:_ZN4grpc25DefaultHealthCheckService8ShutdownEv
libgrpc++.so.1:_ZN4grpc25DefaultHealthCheckServiceC1Ev
libgrpc++.so.1:_ZN4grpc25DefaultHealthCheckServiceC2Ev
libgrpc++.so.1:_ZN4grpc25MakeChannelArgumentOptionERKNSt7__cxx1112basic_stringIcSt11char_traitsIcESaIcEEES7_
libgrpc++.so.1:_ZN4grpc25MakeChannelArgumentOptionERKNSt7__cxx1112basic_stringIcSt11char_traitsIcESaIcEEEi
libgrpc++.so.1:_ZN4grpc32AuthMetadataProcessorAyncWrapper15InvokeProcessorEP17grpc_auth_contextPK13grpc_metadatamPFvPvS5_mS5_m16grpc_status_codePKcES6_
libgrpc++.so.1:_ZN4grpc32AuthMetadataProcessorAyncWrapper7DestroyEPv
libgrpc++.so.1:_ZN4grpc32AuthMetadataProcessorAyncWrapper7ProcessEPvP17grpc_auth_contextPK13grpc_metadatamPFvS1_S6_mS6_m16grpc_status_codePKcES1_
libgrpc++.so.1:_ZN4grpc32MetadataCredentialsPluginWrapper11GetMetadataEPv26grpc_auth_metadata_contextPFvS1_PK13grpc_metadatam16grpc_status_codePKcES1_PS3_PmPS6_PS8_
libgrpc++.so.1:_ZN4grpc32MetadataCredentialsPluginWrapper12InvokePluginE26grpc_auth_metadata_contextPFvPvPK13grpc_metadatam16grpc_status_codePKcES2_PS3_PmPS6_PS8_
libgrpc++.so.1:_ZN4grpc32MetadataCredentialsPluginWrapper7DestroyEPv
libgrpc++.so.1:_ZN4grpc32MetadataCredentialsPluginWrapperC1ESt10unique_ptrIN9grpc_impl25MetadataCredentialsPluginESt14default_deleteIS3_EE
libgrpc++.so.1:_ZN4grpc32MetadataCredentialsPluginWrapperC2ESt10unique_ptrIN9grpc_impl25MetadataCredentialsPluginESt14default_deleteIS3_EE
libgrpc++.so.1:_ZN4grpc37HealthCheckServiceServerBuilderOption13UpdatePluginsEPSt6vectorISt10unique_ptrINS_19ServerBuilderPluginESt14default_deleteIS3_EESaIS6_EE
libgrpc++.so.1:_ZN4grpc37HealthCheckServiceServerBuilderOption15UpdateArgumentsEPN9grpc_impl16ChannelArgumentsE
libgrpc++.so.1:_ZN4grpc37HealthCheckServiceServerBuilderOptionC1ESt10unique_ptrIN9grpc_impl27HealthCheckServiceInterfaceESt14default_deleteIS3_EE
libgrpc++.so.1:_ZN4grpc37HealthCheckServiceServerBuilderOptionC2ESt10unique_ptrIN9grpc_impl27HealthCheckServiceInterfaceESt14default_deleteIS3_EE
libgrpc++.so.1:_ZN4grpc7VersionB5cxx11Ev
libgrpc++.so.1:_ZN4grpc8CallData22SetPollsetOrPollsetSetEP17grpc_call_elementP19grpc_polling_entity
libgrpc++.so.1:_ZN4grpc8CallData27StartTransportStreamOpBatchEP17grpc_call_elementPNS_22TransportStreamOpBatchE
libgrpc++.so.1:_ZN4grpc8internal23ChannelFilterPluginInitEv
libgrpc++.so.1:_ZN4grpc8internal27ChannelFilterPluginShutdownEv
libgrpc++.so.1:_ZN4grpc8internal30ExternalConnectionAcceptorImpl11GetAcceptorEv
libgrpc++.so.1:_ZN4grpc8internal30ExternalConnectionAcceptorImpl16SetToChannelArgsEPN9grpc_impl16ChannelArgumentsE
libgrpc++.so.1:_ZN4grpc8internal30ExternalConnectionAcceptorImpl19HandleNewConnectionEPNS_12experimental26ExternalConnectionAcceptor23NewConnectionParametersE
libgrpc++.so.1:_ZN4grpc8internal30ExternalConnectionAcceptorImpl5StartEv
libgrpc++.so.1:_ZN4grpc8internal30ExternalConnectionAcceptorImpl8ShutdownEv
libgrpc++.so.1:_ZN4grpc8internal30ExternalConnectionAcceptorImplC1ERKNSt7__cxx1112basic_stringIcSt11char_traitsIcESaIcEEEN9grpc_impl13ServerBuilder17experimental_type22ExternalConnectionTypeESt10shared_ptrINSA_17ServerCredentialsEE
libgrpc++.so.1:_ZN4grpc8internal30ExternalConnectionAcceptorImplC2ERKNSt7__cxx1112basic_stringIcSt11char_traitsIcESaIcEEEN9grpc_impl13ServerBuilder17experimental_type22ExternalConnectionTypeESt10shared_ptrINSA_17ServerCredentialsEE
libgrpc++.so.1:_ZN9grpc_impl11GenericStub11PrepareCallEPNS_13ClientContextERKNSt7__cxx1112basic_stringIcSt11char_traitsIcESaIcEEEPNS_15CompletionQueueE
libgrpc++.so.1:_ZN9grpc_impl11GenericStub16PrepareUnaryCallEPNS_13ClientContextERKNSt7__cxx1112basic_stringIcSt11char_traitsIcESaIcEEERKN4grpc10ByteBufferEPNS_15CompletionQueueE
libgrpc++.so.1:_ZN9grpc_impl11GenericStub17experimental_type24PrepareBidiStreamingCallEPNS_13ClientContextERKNSt7__cxx1112basic_stringIcSt11char_traitsIcESaIcEEEPNS_12experimental17ClientBidiReactorIN4grpc10ByteBufferESF_EE
libgrpc++.so.1:_ZN9grpc_impl11GenericStub17experimental_type9UnaryCallEPNS_13ClientContextERKNSt7__cxx1112basic_stringIcSt11char_traitsIcESaIcEEEPKN4grpc10ByteBufferEPSD_St8functionIFvNSC_6StatusEEE
libgrpc++.so.1:_ZN9grpc_impl11GenericStub4CallEPNS_13ClientContextERKNSt7__cxx1112basic_stringIcSt11char_traitsIcESaIcEEEPNS_15CompletionQueueEPv
libgrpc++.so.1:_ZN9grpc_impl12experimental14StsCredentialsERKNS0_21StsCredentialsOptionsE
libgrpc++.so.1:_ZN9grpc_impl12experimental15AltsCredentialsERKNS0_22AltsCredentialsOptionsE
libgrpc++.so.1:_ZN9grpc_impl12experimental16LocalCredentialsE23grpc_local_connect_type
libgrpc++.so.1:_ZN9grpc_impl12experimental21AltsServerCredentialsERKNS0_28AltsServerCredentialsOptionsE
libgrpc++.so.1:_ZN9grpc_impl12experimental22LocalServerCredentialsE23grpc_local_connect_type
libgrpc++.so.1:_ZN9grpc_impl12experimental28StsCredentialsOptionsFromEnvEPNS0_21StsCredentialsOptionsE
libgrpc++.so.1:_ZN9grpc_impl12experimental29ChannelResetConnectionBackoffEPNS_7ChannelE
libgrpc++.so.1:_ZN9grpc_impl12experimental29StsCredentialsOptionsFromJsonERKNSt7__cxx1112basic_stringIcSt11char_traitsIcESaIcEEEPNS0_21StsCredentialsOptionsE
libgrpc++.so.1:_ZN9grpc_impl12experimental30StsCredentialsCppToCoreOptionsERKNS0_21StsCredentialsOptionsE
libgrpc++.so.1:_ZN9grpc_impl12experimental35CreateCustomChannelWithInterceptorsERKNSt7__cxx1112basic_stringIcSt11char_traitsIcESaIcEEERKSt10shared_ptrINS_18ChannelCredentialsEERKNS_16ChannelArgumentsESt6vectorISt10unique_ptrIN4grpc12experimental33ClientInterceptorFactoryInterfaceESt14default_deleteISL_EESaISO_EE
libgrpc++.so.1:_ZN9grpc_impl12experimental49CreateCustomInsecureChannelWithInterceptorsFromFdERKNSt7__cxx1112basic_stringIcSt11char_traitsIcESaIcEEEiRKNS_16ChannelArgumentsESt6vectorISt10unique_ptrIN4grpc12experimental33ClientInterceptorFactoryInterfaceESt14default_deleteISG_EESaISJ_EE
libgrpc++.so.1:_ZN9grpc_impl13ClientContext11AddMetadataERKNSt7__cxx1112basic_stringIcSt11char_traitsIcESaIcEEES8_
libgrpc++.so.1:_ZN9grpc_impl13ClientContext15set_credentialsERKSt10shared_ptrINS_15CallCredentialsEE
libgrpc++.so.1:_ZN9grpc_impl13ClientContext17FromServerContextERKNS_13ServerContextENS_18PropagationOptionsE
libgrpc++.so.1:_ZN9grpc_impl13ClientContext18SetGlobalCallbacksEPNS0_15GlobalCallbacksE
libgrpc++.so.1:_ZN9grpc_impl13ClientContext24SendCancelToInterceptorsEv
libgrpc++.so.1:_ZN9grpc_impl13ClientContext25set_compression_algorithmE26grpc_compression_algorithm
libgrpc++.so.1:_ZN9grpc_impl13ClientContext8set_callEP9grpc_callRKSt10shared_ptrINS_7ChannelEE
libgrpc++.so.1:_ZN9grpc_impl13ClientContext9TryCancelEv
libgrpc++.so.1:_ZN9grpc_impl13ClientContextC1Ev
libgrpc++.so.1:_ZN9grpc_impl13ClientContextC2Ev
libgrpc++.so.1:_ZN9grpc_impl13ClientContextD1Ev
libgrpc++.so.1:_ZN9grpc_impl13ClientContextD2Ev
libgrpc++.so.1:_ZN9grpc_impl13ResourceQuota13SetMaxThreadsEi
libgrpc++.so.1:_ZN9grpc_impl13ResourceQuota6ResizeEm
libgrpc++.so.1:_ZN9grpc_impl13ResourceQuotaC1ERKNSt7__cxx1112basic_stringIcSt11char_traitsIcESaIcEEE
libgrpc++.so.1:_ZN9grpc_impl13ResourceQuotaC1Ev
libgrpc++.so.1:_ZN9grpc_impl13ResourceQuotaC2ERKNSt7__cxx1112basic_stringIcSt11char_traitsIcESaIcEEE
libgrpc++.so.1:_ZN9grpc_impl13ResourceQuotaC2Ev
libgrpc++.so.1:_ZN9grpc_impl13ResourceQuotaD0Ev
libgrpc++.so.1:_ZN9grpc_impl13ResourceQuotaD1Ev
libgrpc++.so.1:_ZN9grpc_impl13ResourceQuotaD2Ev
libgrpc++.so.1:_ZN9grpc_impl13ServerBuilder13BuildAndStartEv
libgrpc++.so.1:_ZN9grpc_impl13ServerBuilder15RegisterServiceEPN4grpc7ServiceE
libgrpc++.so.1:_ZN9grpc_impl13ServerBuilder15RegisterServiceERKNSt7__cxx1112basic_stringIcSt11char_traitsIcESaIcEEEPN4grpc7ServiceE
libgrpc++.so.1:_ZN9grpc_impl13ServerBuilder16AddListeningPortERKNSt7__cxx1112basic_stringIcSt11char_traitsIcESaIcEEESt10shared_ptrINS_17ServerCredentialsEEPi
libgrpc++.so.1:_ZN9grpc_impl13ServerBuilder16EnableWorkaroundE20grpc_workaround_list
libgrpc++.so.1:_ZN9grpc_impl13ServerBuilder16SetResourceQuotaERKNS_13ResourceQuotaE
libgrpc++.so.1:_ZN9grpc_impl13ServerBuilder17experimental_type29AddExternalConnectionAcceptorENS1_22ExternalConnectionTypeESt10shared_ptrINS_17ServerCredentialsEE
libgrpc++.so.1:_ZN9grpc_impl13ServerBuilder17experimental_type30RegisterCallbackGenericServiceEPN4grpc12experimental22CallbackGenericServiceE
libgrpc++.so.1:_ZN9grpc_impl13ServerBuilder18AddCompletionQueueEb
libgrpc++.so.1:_ZN9grpc_impl13ServerBuilder19SetSyncServerOptionENS0_16SyncServerOptionEi
libgrpc++.so.1:_ZN9grpc_impl13ServerBuilder24InternalAddPluginFactoryEPFSt10unique_ptrIN4grpc19ServerBuilderPluginESt14default_deleteIS3_EEvE
libgrpc++.so.1:_ZN9grpc_impl13ServerBuilder26SetDefaultCompressionLevelE22grpc_compression_level
libgrpc++.so.1:_ZN9grpc_impl13ServerBuilder27RegisterAsyncGenericServiceEPN4grpc19AsyncGenericServiceE
libgrpc++.so.1:_ZN9grpc_impl13ServerBuilder30SetDefaultCompressionAlgorithmE26grpc_compression_algorithm
libgrpc++.so.1:_ZN9grpc_impl13ServerBuilder36SetCompressionAlgorithmSupportStatusE26grpc_compression_algorithmb
libgrpc++.so.1:_ZN9grpc_impl13ServerBuilder9SetOptionESt10unique_ptrINS_19ServerBuilderOptionESt14default_deleteIS2_EE
libgrpc++.so.1:_ZN9grpc_impl13ServerBuilderC1Ev
libgrpc++.so.1:_ZN9grpc_impl13ServerBuilderC2Ev
libgrpc++.so.1:_ZN9grpc_impl13ServerBuilderD0Ev
libgrpc++.so.1:_ZN9grpc_impl13ServerBuilderD1Ev
libgrpc++.so.1:_ZN9grpc_impl13ServerBuilderD2Ev
libgrpc++.so.1:_ZN9grpc_impl13ServerContext12CompletionOp14FinalizeResultEPPvPb
libgrpc++.so.1:_ZN9grpc_impl13ServerContext12CompletionOp5UnrefEv
libgrpc++.so.1:_ZN9grpc_impl13ServerContext12CompletionOp7FillOpsEPN4grpc8internal4CallE
libgrpc++.so.1:_ZN9grpc_impl13ServerContext17BeginCompletionOpEPN4grpc8internal4CallESt8functionIFvbEEPNS_8internal13ServerReactorE
libgrpc++.so.1:_ZN9grpc_impl13ServerContext17SetCancelCallbackESt8functionIFvvEE
libgrpc++.so.1:_ZN9grpc_impl13ServerContext18AddInitialMetadataERKNSt7__cxx1112basic_stringIcSt11char_traitsIcESaIcEEES8_
libgrpc++.so.1:_ZN9grpc_impl13ServerContext18GetCompletionOpTagEv
libgrpc++.so.1:_ZN9grpc_impl13ServerContext19AddTrailingMetadataERKNSt7__cxx1112basic_stringIcSt11char_traitsIcESaIcEEES8_
libgrpc++.so.1:_ZN9grpc_impl13ServerContext19ClearCancelCallbackEv
libgrpc++.so.1:_ZN9grpc_impl13ServerContext21SetLoadReportingCostsERKSt6vectorINSt7__cxx1112basic_stringIcSt11char_traitsIcESaIcEEESaIS7_EE
libgrpc++.so.1:_ZN9grpc_impl13ServerContext23BindDeadlineAndMetadataE12gpr_timespecP19grpc_metadata_array
libgrpc++.so.1:_ZN9grpc_impl13ServerContext25set_compression_algorithmE26grpc_compression_algorithm
libgrpc++.so.1:_ZN9grpc_impl13ServerContext5ClearEv
libgrpc++.so.1:_ZN9grpc_impl13ServerContext5SetupE12gpr_timespec
libgrpc++.so.1:_ZN9grpc_impl13ServerContextC1E12gpr_timespecP19grpc_metadata_array
libgrpc++.so.1:_ZN9grpc_impl13ServerContextC1Ev
libgrpc++.so.1:_ZN9grpc_impl13ServerContextC2E12gpr_timespecP19grpc_metadata_array
libgrpc++.so.1:_ZN9grpc_impl13ServerContextC2Ev
libgrpc++.so.1:_ZN9grpc_impl13ServerContextD1Ev
libgrpc++.so.1:_ZN9grpc_impl13ServerContextD2Ev
libgrpc++.so.1:_ZN9grpc_impl14SslCredentialsERKNS_21SslCredentialsOptionsE
libgrpc++.so.1:_ZN9grpc_impl15CallCredentialsC1Ev
libgrpc++.so.1:_ZN9grpc_impl15CallCredentialsC2Ev
libgrpc++.so.1:_ZN9grpc_impl15CallCredentialsD0Ev
libgrpc++.so.1:_ZN9grpc_impl15CallCredentialsD1Ev
libgrpc++.so.1:_ZN9grpc_impl15CallCredentialsD2Ev
libgrpc++.so.1:_ZN9grpc_impl15CompletionQueue17AsyncNextInternalEPPvPb12gpr_timespec
libgrpc++.so.1:_ZN9grpc_impl15CompletionQueue23CompletionQueueTLSCache5FlushEPPvPb
libgrpc++.so.1:_ZN9grpc_impl15CompletionQueue23CompletionQueueTLSCacheC1EPS0_
libgrpc++.so.1:_ZN9grpc_impl15CompletionQueue23CompletionQueueTLSCacheC2EPS0_
libgrpc++.so.1:_ZN9grpc_impl15CompletionQueue23CompletionQueueTLSCacheD1Ev
libgrpc++.so.1:_ZN9grpc_impl15CompletionQueue23CompletionQueueTLSCacheD2Ev
libgrpc++.so.1:_ZN9grpc_impl15CompletionQueue8ShutdownEv
libgrpc++.so.1:_ZN9grpc_impl15CompletionQueueC1EP21grpc_completion_queue
libgrpc++.so.1:_ZN9grpc_impl15CompletionQueueC2EP21grpc_completion_queue
libgrpc++.so.1:_ZN9grpc_impl16ChannelArguments10SetPointerERKNSt7__cxx1112basic_stringIcSt11char_traitsIcESaIcEEEPv
libgrpc++.so.1:_ZN9grpc_impl16ChannelArguments16SetResourceQuotaERKNS_13ResourceQuotaE
libgrpc++.so.1:_ZN9grpc_impl16ChannelArguments16SetSocketMutatorEP19grpc_socket_mutator
libgrpc++.so.1:_ZN9grpc_impl16ChannelArguments18SetUserAgentPrefixERKNSt7__cxx1112basic_stringIcSt11char_traitsIcESaIcEEE
libgrpc++.so.1:_ZN9grpc_impl16ChannelArguments20SetPointerWithVtableERKNSt7__cxx1112basic_stringIcSt11char_traitsIcESaIcEEEPvPK23grpc_arg_pointer_vtable
libgrpc++.so.1:_ZN9grpc_impl16ChannelArguments20SetServiceConfigJSONERKNSt7__cxx1112basic_stringIcSt11char_traitsIcESaIcEEE
libgrpc++.so.1:_ZN9grpc_impl16ChannelArguments21SetMaxSendMessageSizeEi
libgrpc++.so.1:_ZN9grpc_impl16ChannelArguments23SetCompressionAlgorithmE26grpc_compression_algorithm
libgrpc++.so.1:_ZN9grpc_impl16ChannelArguments24SetGrpclbFallbackTimeoutEi
libgrpc++.so.1:_ZN9grpc_impl16ChannelArguments24SetMaxReceiveMessageSizeEi
libgrpc++.so.1:_ZN9grpc_impl16ChannelArguments24SetSslTargetNameOverrideERKNSt7__cxx1112basic_stringIcSt11char_traitsIcESaIcEEE
libgrpc++.so.1:_ZN9grpc_impl16ChannelArguments26SetLoadBalancingPolicyNameERKNSt7__cxx1112basic_stringIcSt11char_traitsIcESaIcEEE
libgrpc++.so.1:_ZN9grpc_impl16ChannelArguments4SwapERS0_
libgrpc++.so.1:_ZN9grpc_impl16ChannelArguments6SetIntERKNSt7__cxx1112basic_stringIcSt11char_traitsIcESaIcEEEi
libgrpc++.so.1:_ZN9grpc_impl16ChannelArguments9SetStringERKNSt7__cxx1112basic_stringIcSt11char_traitsIcESaIcEEES8_
libgrpc++.so.1:_ZN9grpc_impl16ChannelArgumentsC1ERKS0_
libgrpc++.so.1:_ZN9grpc_impl16ChannelArgumentsC1Ev
libgrpc++.so.1:_ZN9grpc_impl16ChannelArgumentsC2ERKS0_
libgrpc++.so.1:_ZN9grpc_impl16ChannelArgumentsC2Ev
libgrpc++.so.1:_ZN9grpc_impl16ChannelArgumentsD1Ev
libgrpc++.so.1:_ZN9grpc_impl16ChannelArgumentsD2Ev
libgrpc++.so.1:_ZN9grpc_impl17CreateChannelImplERKNSt7__cxx1112basic_stringIcSt11char_traitsIcESaIcEEERKSt10shared_ptrINS_18ChannelCredentialsEE
libgrpc++.so.1:_ZN9grpc_impl17ServerCredentialsD0Ev
libgrpc++.so.1:_ZN9grpc_impl17ServerCredentialsD1Ev
libgrpc++.so.1:_ZN9grpc_impl17ServerCredentialsD2Ev
libgrpc++.so.1:_ZN9grpc_impl18ChannelCredentialsC1Ev
libgrpc++.so.1:_ZN9grpc_impl18ChannelCredentialsC2Ev
libgrpc++.so.1:_ZN9grpc_impl18ChannelCredentialsD0Ev
libgrpc++.so.1:_ZN9grpc_impl18ChannelCredentialsD1Ev
libgrpc++.so.1:_ZN9grpc_impl18ChannelCredentialsD2Ev
libgrpc++.so.1:_ZN9grpc_impl20GoogleIAMCredentialsERKNSt7__cxx1112basic_stringIcSt11char_traitsIcESaIcEEES7_
libgrpc++.so.1:_ZN9grpc_impl20SslServerCredentialsERKN4grpc27SslServerCredentialsOptionsE
libgrpc++.so.1:_ZN9grpc_impl21SecureCallCredentials11ApplyToCallEP9grpc_call
libgrpc++.so.1:_ZN9grpc_impl21SecureCallCredentialsC1EP21grpc_call_credentials
libgrpc++.so.1:_ZN9grpc_impl21SecureCallCredentialsC2EP21grpc_call_credentials
libgrpc++.so.1:_ZN9grpc_impl22AccessTokenCredentialsERKNSt7__cxx1112basic_stringIcSt11char_traitsIcESaIcEEE
libgrpc++.so.1:_ZN9grpc_impl23CreateCustomChannelImplERKNSt7__cxx1112basic_stringIcSt11char_traitsIcESaIcEEERKSt10shared_ptrINS_18ChannelCredentialsEERKNS_16ChannelArgumentsE
libgrpc++.so.1:_ZN9grpc_impl23SecureServerCredentials15AddPortToServerERKNSt7__cxx1112basic_stringIcSt11char_traitsIcESaIcEEEP11grpc_server
libgrpc++.so.1:_ZN9grpc_impl23SecureServerCredentials24SetAuthMetadataProcessorERKSt10shared_ptrINS_21AuthMetadataProcessorEE
libgrpc++.so.1:_ZN9grpc_impl24AddInsecureChannelFromFdEPNS_6ServerEi
libgrpc++.so.1:_ZN9grpc_impl24CompositeCallCredentialsERKSt10shared_ptrINS_15CallCredentialsEES4_
libgrpc++.so.1:_ZN9grpc_impl24GoogleDefaultCredentialsEv
libgrpc++.so.1:_ZN9grpc_impl24SecureChannelCredentials17CreateChannelImplERKNSt7__cxx1112basic_stringIcSt11char_traitsIcESaIcEEERKNS_16ChannelArgumentsE
libgrpc++.so.1:_ZN9grpc_impl24SecureChannelCredentials29CreateChannelWithInterceptorsERKNSt7__cxx1112basic_stringIcSt11char_traitsIcESaIcEEERKNS_16ChannelArgumentsESt6vectorISt10unique_ptrIN4grpc12experimental33ClientInterceptorFactoryInterfaceESt14default_deleteISG_EESaISJ_EE
libgrpc++.so.1:_ZN9grpc_impl24SecureChannelCredentialsC1EP24grpc_channel_credentials
libgrpc++.so.1:_ZN9grpc_impl24SecureChannelCredentialsC2EP24grpc_channel_credentials
libgrpc++.so.1:_ZN9grpc_impl25InsecureServerCredentialsEv
libgrpc++.so.1:_ZN9grpc_impl26InsecureChannelCredentialsEv
libgrpc++.so.1:_ZN9grpc_impl27CompositeChannelCredentialsERKSt10shared_ptrINS_18ChannelCredentialsEERKS0_INS_15CallCredentialsEE
libgrpc++.so.1:_ZN9grpc_impl27CreateInsecureChannelFromFdERKNSt7__cxx1112basic_stringIcSt11char_traitsIcESaIcEEEi
libgrpc++.so.1:_ZN9grpc_impl29GoogleRefreshTokenCredentialsERKNSt7__cxx1112basic_stringIcSt11char_traitsIcESaIcEEE
libgrpc++.so.1:_ZN9grpc_impl29MetadataCredentialsFromPluginESt10unique_ptrINS_25MetadataCredentialsPluginESt14default_deleteIS1_EE
libgrpc++.so.1:_ZN9grpc_impl30GoogleComputeEngineCredentialsEv
libgrpc++.so.1:_ZN9grpc_impl31EnableDefaultHealthCheckServiceEb
libgrpc++.so.1:_ZN9grpc_impl32DefaultHealthCheckServiceEnabledEv
libgrpc++.so.1:_ZN9grpc_impl33CreateCustomInsecureChannelFromFdERKNSt7__cxx1112basic_stringIcSt11char_traitsIcESaIcEEEiRKNS_16ChannelArgumentsE
libgrpc++.so.1:_ZN9grpc_impl34ServiceAccountJWTAccessCredentialsERKNSt7__cxx1112basic_stringIcSt11char_traitsIcESaIcEEEl
libgrpc++.so.1:_ZN9grpc_impl5Alarm11SetInternalE12gpr_timespecSt8functionIFvbEE
libgrpc++.so.1:_ZN9grpc_impl5Alarm11SetInternalEPNS_15CompletionQueueE12gpr_timespecPv
libgrpc++.so.1:_ZN9grpc_impl5Alarm6CancelEv
libgrpc++.so.1:_ZN9grpc_impl5AlarmC1Ev
libgrpc++.so.1:_ZN9grpc_impl5AlarmC2Ev
libgrpc++.so.1:_ZN9grpc_impl5AlarmD0Ev
libgrpc++.so.1:_ZN9grpc_impl5AlarmD1Ev
libgrpc++.so.1:_ZN9grpc_impl5AlarmD2Ev
libgrpc++.so.1:_ZN9grpc_impl6Server10CallbackCQEv
libgrpc++.so.1:_ZN9grpc_impl6Server11initializerEv
libgrpc++.so.1:_ZN9grpc_impl6Server15CallbackRequestIN4grpc20GenericServerContextEE14FinalizeResultEPPvPb
libgrpc++.so.1:_ZN9grpc_impl6Server15CallbackRequestINS_13ServerContextEE14FinalizeResultEPPvPb
libgrpc++.so.1:_ZN9grpc_impl6Server15RegisterServiceEPKNSt7__cxx1112basic_stringIcSt11char_traitsIcESaIcEEEPN4grpc7ServiceE
libgrpc++.so.1:_ZN9grpc_impl6Server16AddListeningPortERKNSt7__cxx1112basic_stringIcSt11char_traitsIcESaIcEEEPNS_17ServerCredentialsE
libgrpc++.so.1:_ZN9grpc_impl6Server16InProcessChannelERKNS_16ChannelArgumentsE
libgrpc++.so.1:_ZN9grpc_impl6Server16PerformOpsOnCallEPN4grpc8internal18CallOpSetInterfaceEPNS2_4CallE
libgrpc++.so.1:_ZN9grpc_impl6Server16ShutdownInternalE12gpr_timespec
libgrpc++.so.1:_ZN9grpc_impl6Server17experimental_type32InProcessChannelWithInterceptorsERKNS_16ChannelArgumentsESt6vectorISt10unique_ptrIN4grpc12experimental33ClientInterceptorFactoryInterfaceESt14default_deleteIS9_EESaISC_EE
libgrpc++.so.1:_ZN9grpc_impl6Server18SetGlobalCallbacksEPNS0_15GlobalCallbacksE
libgrpc++.so.1:_ZN9grpc_impl6Server25UnimplementedAsyncRequest14FinalizeResultEPPvPb
libgrpc++.so.1:_ZN9grpc_impl6Server26UnimplementedAsyncResponseC1EPNS0_25UnimplementedAsyncRequestE
libgrpc++.so.1:_ZN9grpc_impl6Server26UnimplementedAsyncResponseC2EPNS0_25UnimplementedAsyncRequestE
libgrpc++.so.1:_ZN9grpc_impl6Server27RegisterAsyncGenericServiceEPN4grpc19AsyncGenericServiceE
libgrpc++.so.1:_ZN9grpc_impl6Server30RegisterCallbackGenericServiceEPN4grpc12experimental22CallbackGenericServiceE
libgrpc++.so.1:_ZN9grpc_impl6Server4WaitEv
libgrpc++.so.1:_ZN9grpc_impl6Server5StartEPPNS_21ServerCompletionQueueEm
libgrpc++.so.1:_ZN9grpc_impl6Server8c_serverEv
libgrpc++.so.1:_ZN9grpc_impl6ServerC1EiPNS_16ChannelArgumentsESt10shared_ptrISt6vectorISt10unique_ptrINS_21ServerCompletionQueueESt14default_deleteIS6_EESaIS9_EEEiiiS4_IS3_IN4grpc8internal30ExternalConnectionAcceptorImplEESaISG_EEP19grpc_resource_quotaS4_IS5_INSD_12experimental33ServerInterceptorFactoryInterfaceES7_ISM_EESaISO_EE
libgrpc++.so.1:_ZN9grpc_impl6ServerC2EiPNS_16ChannelArgumentsESt10shared_ptrISt6vectorISt10unique_ptrINS_21ServerCompletionQueueESt14default_deleteIS6_EESaIS9_EEEiiiS4_IS3_IN4grpc8internal30ExternalConnectionAcceptorImplEESaISG_EEP19grpc_resource_quotaS4_IS5_INSD_12experimental33ServerInterceptorFactoryInterfaceES7_ISM_EESaISO_EE
libgrpc++.so.1:_ZN9grpc_impl6ServerD0Ev
libgrpc++.so.1:_ZN9grpc_impl6ServerD1Ev
libgrpc++.so.1:_ZN9grpc_impl6ServerD2Ev
libgrpc++.so.1:_ZN9grpc_impl7Channel10CallbackCQEv
libgrpc++.so.1:_ZN9grpc_impl7Channel10CreateCallERKN4grpc8internal9RpcMethodEPNS_13ClientContextEPNS_15CompletionQueueE
libgrpc++.so.1:_ZN9grpc_impl7Channel14RegisterMethodEPKc
libgrpc++.so.1:_ZN9grpc_impl7Channel16PerformOpsOnCallEPN4grpc8internal18CallOpSetInterfaceEPNS2_4CallE
libgrpc++.so.1:_ZN9grpc_impl7Channel18CreateCallInternalERKN4grpc8internal9RpcMethodEPNS_13ClientContextEPNS_15CompletionQueueEm
libgrpc++.so.1:_ZN9grpc_impl7Channel22WaitForStateChangeImplE23grpc_connectivity_state12gpr_timespec
libgrpc++.so.1:_ZN9grpc_impl7Channel23NotifyOnStateChangeImplE23grpc_connectivity_state12gpr_timespecPNS_15CompletionQueueEPv
libgrpc++.so.1:_ZN9grpc_impl7Channel8GetStateEb
libgrpc++.so.1:_ZN9grpc_impl7ChannelC1ERKNSt7__cxx1112basic_stringIcSt11char_traitsIcESaIcEEEP12grpc_channelSt6vectorISt10unique_ptrIN4grpc12experimental33ClientInterceptorFactoryInterfaceESt14default_deleteISF_EESaISI_EE
libgrpc++.so.1:_ZN9grpc_impl7ChannelC2ERKNSt7__cxx1112basic_stringIcSt11char_traitsIcESaIcEEEP12grpc_channelSt6vectorISt10unique_ptrIN4grpc12experimental33ClientInterceptorFactoryInterfaceESt14default_deleteISF_EESaISI_EE
libgrpc++.so.1:_ZN9grpc_impl7ChannelD0Ev
libgrpc++.so.1:_ZN9grpc_impl7ChannelD1Ev
libgrpc++.so.1:_ZN9grpc_impl7ChannelD2Ev
libgrpc++.so.1:_ZNK4grpc10ByteBuffer4DumpEPSt6vectorINS_5SliceESaIS2_EE
libgrpc++.so.1:_ZNK4grpc17SecureAuthContext15GetPeerIdentityEv
libgrpc++.so.1:_ZNK4grpc17SecureAuthContext18FindPropertyValuesERKNSt7__cxx1112basic_stringIcSt11char_traitsIcESaIcEEE
libgrpc++.so.1:_ZNK4grpc17SecureAuthContext19IsPeerAuthenticatedEv
libgrpc++.so.1:_ZNK4grpc17SecureAuthContext27GetPeerIdentityPropertyNameB5cxx11Ev
libgrpc++.so.1:_ZNK4grpc17SecureAuthContext3endEv
libgrpc++.so.1:_ZNK4grpc17SecureAuthContext5beginEv
libgrpc++.so.1:_ZNK4grpc20AuthPropertyIteratoreqERKS0_
libgrpc++.so.1:_ZNK4grpc20AuthPropertyIteratorneERKS0_
libgrpc++.so.1:_ZNK4grpc25DefaultHealthCheckService16GetServingStatusERKNSt7__cxx1112basic_stringIcSt11char_traitsIcESaIcEEE
libgrpc++.so.1:_ZNK9grpc_impl13ClientContext4peerB5cxx11Ev
libgrpc++.so.1:_ZNK9grpc_impl13ServerContext11IsCancelledEv
libgrpc++.so.1:_ZNK9grpc_impl13ServerContext14census_contextEv
libgrpc++.so.1:_ZNK9grpc_impl13ServerContext4peerB5cxx11Ev
libgrpc++.so.1:_ZNK9grpc_impl13ServerContext9TryCancelEv
libgrpc++.so.1:_ZNK9grpc_impl16ChannelArguments14SetChannelArgsEP17grpc_channel_args
libgrpc++.so.1:_ZNK9grpc_impl16ChannelArguments24GetSslTargetNameOverrideB5cxx11Ev
libgrpc++.so.1:_ZNK9grpc_impl6Server15CallbackRequestIN4grpc20GenericServerContextEE11method_nameEv
libgrpc++.so.1:_ZNK9grpc_impl6Server15CallbackRequestINS_13ServerContextEE11method_nameEv
libgrpc++.so.1:_ZNK9grpc_impl7Channel20GetServiceConfigJSONB5cxx11Ev
libgrpc++.so.1:_ZNK9grpc_impl7Channel26GetLoadBalancingPolicyNameB5cxx11Ev
libgrpc++.so.1:_ZThn32_N9grpc_impl7ChannelD0Ev
libgrpc++.so.1:_ZThn32_N9grpc_impl7ChannelD1Ev
libgrpc++.so.1:_ZThn8_N9grpc_impl6ServerD0Ev
libgrpc++.so.1:_ZThn8_N9grpc_impl6ServerD1Ev
libgrpc++.so.1:_ZThn8_N9grpc_impl7Channel16PerformOpsOnCallEPN4grpc8internal18CallOpSetInterfaceEPNS2_4CallE
libgrpc++.so.1:_ZThn8_N9grpc_impl7ChannelD0Ev
libgrpc++.so.1:_ZThn8_N9grpc_impl7ChannelD1Ev
libgrpc++.so.1:is_pow2
libgrpc++.so.1:log2ceil
libgrpc++.so.1:upb_arena_addcleanup
libgrpc++.so.1:upb_arena_bytesallocated
libgrpc++.so.1:upb_arena_free
libgrpc++.so.1:upb_arena_init
libgrpc++.so.1:upb_array_add
libgrpc++.so.1:upb_array_new
libgrpc++.so.1:upb_decode
libgrpc++.so.1:upb_encode
libgrpc++.so.1:upb_encode_message
libgrpc++.so.1:upb_inttable_begin
libgrpc++.so.1:upb_inttable_compact2
libgrpc++.so.1:upb_inttable_count
libgrpc++.so.1:upb_inttable_done
libgrpc++.so.1:upb_inttable_init2
libgrpc++.so.1:upb_inttable_insert2
libgrpc++.so.1:upb_inttable_insertptr2
libgrpc++.so.1:upb_inttable_iter_isequal
libgrpc++.so.1:upb_inttable_iter_key
libgrpc++.so.1:upb_inttable_iter_setdone
libgrpc++.so.1:upb_inttable_iter_value
libgrpc++.so.1:upb_inttable_lookup
libgrpc++.so.1:upb_inttable_lookupptr
libgrpc++.so.1:upb_inttable_next
libgrpc++.so.1:upb_inttable_pop
libgrpc++.so.1:upb_inttable_push2
libgrpc++.so.1:upb_inttable_remove
libgrpc++.so.1:upb_inttable_removeptr
libgrpc++.so.1:upb_inttable_replace
libgrpc++.so.1:upb_inttable_sizedinit
libgrpc++.so.1:upb_inttable_uninit2
libgrpc++.so.1:upb_msg_addunknown
libgrpc++.so.1:upb_msg_getunknown
libgrpc++.so.1:upb_msg_new
libgrpc++.so.1:upb_murmur_hash2
libgrpc++.so.1:upb_ok
libgrpc++.so.1:upb_status_clear
libgrpc++.so.1:upb_status_errmsg
libgrpc++.so.1:upb_status_seterrf
libgrpc++.so.1:upb_status_seterrmsg
libgrpc++.so.1:upb_status_vseterrf
libgrpc++.so.1:upb_strdup
libgrpc++.so.1:upb_strdup2
libgrpc++.so.1:upb_strtable_begin
libgrpc++.so.1:upb_strtable_done
libgrpc++.so.1:upb_strtable_init2
libgrpc++.so.1:upb_strtable_insert3
libgrpc++.so.1:upb_strtable_iter_isequal
libgrpc++.so.1:upb_strtable_iter_key
libgrpc++.so.1:upb_strtable_iter_keylength
libgrpc++.so.1:upb_strtable_iter_setdone
libgrpc++.so.1:upb_strtable_iter_value
libgrpc++.so.1:upb_strtable_lookup2
libgrpc++.so.1:upb_strtable_next
libgrpc++.so.1:upb_strtable_remove3
libgrpc++.so.1:upb_strtable_resize
libgrpc++.so.1:upb_strtable_uninit2
libgrpc++_error_details.so.1:_ZN6google3rpc6Status12InternalSwapEPS1_
libgrpc++_error_details.so.1:_ZN6google3rpc6Status13clear_detailsEv
libgrpc++_error_details.so.1:_ZN6google3rpc6Status16default_instanceEv
libgrpc++_error_details.so.1:_ZN6google3rpc6Status21InitAsDefaultInstanceEv
libgrpc++_error_details.so.1:_ZN6google3rpc6Status27MergePartialFromCodedStreamEPNS_8protobuf2io16CodedInputStreamE
libgrpc++_error_details.so.1:_ZN6google3rpc6Status4SwapEPS1_
libgrpc++_error_details.so.1:_ZN6google3rpc6Status5ClearEv
libgrpc++_error_details.so.1:_ZN6google3rpc6Status8CopyFromERKNS_8protobuf7MessageE
libgrpc++_error_details.so.1:_ZN6google3rpc6Status8CopyFromERKS1_
libgrpc++_error_details.so.1:_ZN6google3rpc6Status9MergeFromERKNS_8protobuf7MessageE
libgrpc++_error_details.so.1:_ZN6google3rpc6Status9MergeFromERKS1_
libgrpc++_error_details.so.1:_ZN6google3rpc6StatusC1ERKS1_
libgrpc++_error_details.so.1:_ZN6google3rpc6StatusC1Ev
libgrpc++_error_details.so.1:_ZN6google3rpc6StatusC2ERKS1_
libgrpc++_error_details.so.1:_ZN6google3rpc6StatusC2Ev
libgrpc++_error_details.so.1:_ZN6google3rpc6StatusD0Ev
libgrpc++_error_details.so.1:_ZN6google3rpc6StatusD1Ev
libgrpc++_error_details.so.1:_ZN6google3rpc6StatusD2Ev
libgrpc++_error_details.so.1:_ZN6google8protobuf10ReflectionD0Ev
libgrpc++_error_details.so.1:_ZN6google8protobuf10ReflectionD1Ev
libgrpc++_error_details.so.1:_ZN6google8protobuf10ReflectionD2Ev
libgrpc++_error_details.so.1:_ZN6google8protobuf10SimpleDtoaB5cxx11Ed
libgrpc++_error_details.so.1:_ZN6google8protobuf10SimpleFtoaB5cxx11Ef
libgrpc++_error_details.so.1:_ZN6google8protobuf10SimpleItoaB5cxx11Ei
libgrpc++_error_details.so.1:_ZN6google8protobuf10SimpleItoaB5cxx11Ej
libgrpc++_error_details.so.1:_ZN6google8protobuf10SimpleItoaB5cxx11El
libgrpc++_error_details.so.1:_ZN6google8protobuf10SimpleItoaB5cxx11Em
libgrpc++_error_details.so.1:_ZN6google8protobuf10SimpleItoaB5cxx11Ex
libgrpc++_error_details.so.1:_ZN6google8protobuf10SimpleItoaB5cxx11Ey
libgrpc++_error_details.so.1:_ZN6google8protobuf10TextFormat13ParseInfoTree12CreateNestedEPKNS0_15FieldDescriptorE
libgrpc++_error_details.so.1:_ZN6google8protobuf10TextFormat13ParseInfoTree14RecordLocationEPKNS0_15FieldDescriptorENS1_13ParseLocationE
libgrpc++_error_details.so.1:_ZN6google8protobuf10TextFormat13ParseInfoTreeC1Ev
libgrpc++_error_details.so.1:_ZN6google8protobuf10TextFormat13ParseInfoTreeC2Ev
libgrpc++_error_details.so.1:_ZN6google8protobuf10TextFormat13ParseInfoTreeD1Ev
libgrpc++_error_details.so.1:_ZN6google8protobuf10TextFormat13ParseInfoTreeD2Ev
libgrpc++_error_details.so.1:_ZN6google8protobuf10TextFormat13PrintToStringERKNS0_7MessageEPNSt7__cxx1112basic_stringIcSt11char_traitsIcESaIcEEE
libgrpc++_error_details.so.1:_ZN6google8protobuf10TextFormat15MergeFromStringERKNSt7__cxx1112basic_stringIcSt11char_traitsIcESaIcEEEPNS0_7MessageE
libgrpc++_error_details.so.1:_ZN6google8protobuf10TextFormat15ParseFromStringERKNSt7__cxx1112basic_stringIcSt11char_traitsIcESaIcEEEPNS0_7MessageE
libgrpc++_error_details.so.1:_ZN6google8protobuf10TextFormat17BaseTextGeneratorD0Ev
libgrpc++_error_details.so.1:_ZN6google8protobuf10TextFormat17BaseTextGeneratorD1Ev
libgrpc++_error_details.so.1:_ZN6google8protobuf10TextFormat17BaseTextGeneratorD2Ev
libgrpc++_error_details.so.1:_ZN6google8protobuf10TextFormat17FieldValuePrinterC1Ev
libgrpc++_error_details.so.1:_ZN6google8protobuf10TextFormat17FieldValuePrinterC2Ev
libgrpc++_error_details.so.1:_ZN6google8protobuf10TextFormat17FieldValuePrinterD0Ev
libgrpc++_error_details.so.1:_ZN6google8protobuf10TextFormat17FieldValuePrinterD1Ev
libgrpc++_error_details.so.1:_ZN6google8protobuf10TextFormat17FieldValuePrinterD2Ev
libgrpc++_error_details.so.1:_ZN6google8protobuf10TextFormat18PrintUnknownFieldsERKNS0_15UnknownFieldSetEPNS0_2io20ZeroCopyOutputStreamE
libgrpc++_error_details.so.1:_ZN6google8protobuf10TextFormat21FastFieldValuePrinterC1Ev
libgrpc++_error_details.so.1:_ZN6google8protobuf10TextFormat21FastFieldValuePrinterC2Ev
libgrpc++_error_details.so.1:_ZN6google8protobuf10TextFormat21FastFieldValuePrinterD0Ev
libgrpc++_error_details.so.1:_ZN6google8protobuf10TextFormat21FastFieldValuePrinterD1Ev
libgrpc++_error_details.so.1:_ZN6google8protobuf10TextFormat21FastFieldValuePrinterD2Ev
libgrpc++_error_details.so.1:_ZN6google8protobuf10TextFormat23PrintFieldValueToStringERKNS0_7MessageEPKNS0_15FieldDescriptorEiPNSt7__cxx1112basic_stringIcSt11char_traitsIcESaIcEEE
libgrpc++_error_details.so.1:_ZN6google8protobuf10TextFormat25ParseFieldValueFromStringERKNSt7__cxx1112basic_stringIcSt11char_traitsIcESaIcEEEPKNS0_15FieldDescriptorEPNS0_7MessageE
libgrpc++_error_details.so.1:_ZN6google8protobuf10TextFormat26PrintUnknownFieldsToStringERKNS0_15UnknownFieldSetEPNSt7__cxx1112basic_stringIcSt11char_traitsIcESaIcEEE
libgrpc++_error_details.so.1:_ZN6google8protobuf10TextFormat5MergeEPNS0_2io19ZeroCopyInputStreamEPNS0_7MessageE
libgrpc++_error_details.so.1:_ZN6google8protobuf10TextFormat5ParseEPNS0_2io19ZeroCopyInputStreamEPNS0_7MessageE
libgrpc++_error_details.so.1:_ZN6google8protobuf10TextFormat5PrintERKNS0_7MessageEPNS0_2io20ZeroCopyOutputStreamE
libgrpc++_error_details.so.1:_ZN6google8protobuf10TextFormat6FinderD0Ev
libgrpc++_error_details.so.1:_ZN6google8protobuf10TextFormat6FinderD1Ev
libgrpc++_error_details.so.1:_ZN6google8protobuf10TextFormat6FinderD2Ev
libgrpc++_error_details.so.1:_ZN6google8protobuf10TextFormat6Parser14MergeUsingImplEPNS0_2io19ZeroCopyInputStreamEPNS0_7MessageEPNS2_10ParserImplE
libgrpc++_error_details.so.1:_ZN6google8protobuf10TextFormat6Parser15MergeFromStringERKNSt7__cxx1112basic_stringIcSt11char_traitsIcESaIcEEEPNS0_7MessageE
libgrpc++_error_details.so.1:_ZN6google8protobuf10TextFormat6Parser15ParseFromStringERKNSt7__cxx1112basic_stringIcSt11char_traitsIcESaIcEEEPNS0_7MessageE
libgrpc++_error_details.so.1:_ZN6google8protobuf10TextFormat6Parser25ParseFieldValueFromStringERKNSt7__cxx1112basic_stringIcSt11char_traitsIcESaIcEEEPKNS0_15FieldDescriptorEPNS0_7MessageE
libgrpc++_error_details.so.1:_ZN6google8protobuf10TextFormat6Parser5MergeEPNS0_2io19ZeroCopyInputStreamEPNS0_7MessageE
libgrpc++_error_details.so.1:_ZN6google8protobuf10TextFormat6Parser5ParseEPNS0_2io19ZeroCopyInputStreamEPNS0_7MessageE
libgrpc++_error_details.so.1:_ZN6google8protobuf10TextFormat6ParserC1Ev
libgrpc++_error_details.so.1:_ZN6google8protobuf10TextFormat6ParserC2Ev
libgrpc++_error_details.so.1:_ZN6google8protobuf10TextFormat6ParserD1Ev
libgrpc++_error_details.so.1:_ZN6google8protobuf10TextFormat6ParserD2Ev
libgrpc++_error_details.so.1:_ZN6google8protobuf10TextFormat7Printer22RegisterMessagePrinterEPKNS0_10DescriptorEPKNS1_14MessagePrinterE
libgrpc++_error_details.so.1:_ZN6google8protobuf10TextFormat7Printer24SetUseUtf8StringEscapingEb
libgrpc++_error_details.so.1:_ZN6google8protobuf10TextFormat7Printer25RegisterFieldValuePrinterEPKNS0_15FieldDescriptorEPKNS1_17FieldValuePrinterE
libgrpc++_error_details.so.1:_ZN6google8protobuf10TextFormat7Printer25RegisterFieldValuePrinterEPKNS0_15FieldDescriptorEPKNS1_21FastFieldValuePrinterE
libgrpc++_error_details.so.1:_ZN6google8protobuf10TextFormat7Printer27SetDefaultFieldValuePrinterEPKNS1_17FieldValuePrinterE
libgrpc++_error_details.so.1:_ZN6google8protobuf10TextFormat7Printer27SetDefaultFieldValuePrinterEPKNS1_21FastFieldValuePrinterE
libgrpc++_error_details.so.1:_ZN6google8protobuf10TextFormat7PrinterC1Ev
libgrpc++_error_details.so.1:_ZN6google8protobuf10TextFormat7PrinterC2Ev
libgrpc++_error_details.so.1:_ZN6google8protobuf10TextFormat7PrinterD1Ev
libgrpc++_error_details.so.1:_ZN6google8protobuf10TextFormat7PrinterD2Ev
libgrpc++_error_details.so.1:_ZN6google8protobuf11EnumOptions12InternalSwapEPS1_
libgrpc++_error_details.so.1:_ZN6google8protobuf11EnumOptions15UnsafeArenaSwapEPS1_
libgrpc++_error_details.so.1:_ZN6google8protobuf11EnumOptions16default_instanceEv
libgrpc++_error_details.so.1:_ZN6google8protobuf11EnumOptions21InitAsDefaultInstanceEv
libgrpc++_error_details.so.1:_ZN6google8protobuf11EnumOptions27MergePartialFromCodedStreamEPNS0_2io16CodedInputStreamE
libgrpc++_error_details.so.1:_ZN6google8protobuf11EnumOptions4SwapEPS1_
libgrpc++_error_details.so.1:_ZN6google8protobuf11EnumOptions5ClearEv
libgrpc++_error_details.so.1:_ZN6google8protobuf11EnumOptions8CopyFromERKNS0_7MessageE
libgrpc++_error_details.so.1:_ZN6google8protobuf11EnumOptions8CopyFromERKS1_
libgrpc++_error_details.so.1:_ZN6google8protobuf11EnumOptions9ArenaDtorEPv
libgrpc++_error_details.so.1:_ZN6google8protobuf11EnumOptions9MergeFromERKNS0_7MessageE
libgrpc++_error_details.so.1:_ZN6google8protobuf11EnumOptions9MergeFromERKS1_
libgrpc++_error_details.so.1:_ZN6google8protobuf11EnumOptionsC1EPNS0_5ArenaE
libgrpc++_error_details.so.1:_ZN6google8protobuf11EnumOptionsC1ERKS1_
libgrpc++_error_details.so.1:_ZN6google8protobuf11EnumOptionsC1Ev
libgrpc++_error_details.so.1:_ZN6google8protobuf11EnumOptionsC2EPNS0_5ArenaE
libgrpc++_error_details.so.1:_ZN6google8protobuf11EnumOptionsC2ERKS1_
libgrpc++_error_details.so.1:_ZN6google8protobuf11EnumOptionsC2Ev
libgrpc++_error_details.so.1:_ZN6google8protobuf11EnumOptionsD0Ev
libgrpc++_error_details.so.1:_ZN6google8protobuf11EnumOptionsD1Ev
libgrpc++_error_details.so.1:_ZN6google8protobuf11EnumOptionsD2Ev
libgrpc++_error_details.so.1:_ZN6google8protobuf11FileOptions12InternalSwapEPS1_
libgrpc++_error_details.so.1:_ZN6google8protobuf11FileOptions15UnsafeArenaSwapEPS1_
libgrpc++_error_details.so.1:_ZN6google8protobuf11FileOptions16default_instanceEv
libgrpc++_error_details.so.1:_ZN6google8protobuf11FileOptions21InitAsDefaultInstanceEv
libgrpc++_error_details.so.1:_ZN6google8protobuf11FileOptions27MergePartialFromCodedStreamEPNS0_2io16CodedInputStreamE
libgrpc++_error_details.so.1:_ZN6google8protobuf11FileOptions4SwapEPS1_
libgrpc++_error_details.so.1:_ZN6google8protobuf11FileOptions5ClearEv
libgrpc++_error_details.so.1:_ZN6google8protobuf11FileOptions8CopyFromERKNS0_7MessageE
libgrpc++_error_details.so.1:_ZN6google8protobuf11FileOptions8CopyFromERKS1_
libgrpc++_error_details.so.1:_ZN6google8protobuf11FileOptions9ArenaDtorEPv
libgrpc++_error_details.so.1:_ZN6google8protobuf11FileOptions9MergeFromERKNS0_7MessageE
libgrpc++_error_details.so.1:_ZN6google8protobuf11FileOptions9MergeFromERKS1_
libgrpc++_error_details.so.1:_ZN6google8protobuf11FileOptionsC1EPNS0_5ArenaE
libgrpc++_error_details.so.1:_ZN6google8protobuf11FileOptionsC1ERKS1_
libgrpc++_error_details.so.1:_ZN6google8protobuf11FileOptionsC1Ev
libgrpc++_error_details.so.1:_ZN6google8protobuf11FileOptionsC2EPNS0_5ArenaE
libgrpc++_error_details.so.1:_ZN6google8protobuf11FileOptionsC2ERKS1_
libgrpc++_error_details.so.1:_ZN6google8protobuf11FileOptionsC2Ev
libgrpc++_error_details.so.1:_ZN6google8protobuf11FileOptionsD0Ev
libgrpc++_error_details.so.1:_ZN6google8protobuf11FileOptionsD1Ev
libgrpc++_error_details.so.1:_ZN6google8protobuf11FileOptionsD2Ev
libgrpc++_error_details.so.1:_ZN6google8protobuf11JoinStringsERKSt6vectorINSt7__cxx1112basic_stringIcSt11char_traitsIcESaIcEEESaIS7_EEPKcPS7_
libgrpc++_error_details.so.1:_ZN6google8protobuf11LogSilencerC1Ev
libgrpc++_error_details.so.1:_ZN6google8protobuf11LogSilencerC2Ev
libgrpc++_error_details.so.1:_ZN6google8protobuf11LogSilencerD1Ev
libgrpc++_error_details.so.1:_ZN6google8protobuf11LogSilencerD2Ev
libgrpc++_error_details.so.1:_ZN6google8protobuf11MessageLite14ParseFromArrayEPKvi
libgrpc++_error_details.so.1:_ZN6google8protobuf11MessageLite15MergeFromStringERKNSt7__cxx1112basic_stringIcSt11char_traitsIcESaIcEEE
libgrpc++_error_details.so.1:_ZN6google8protobuf11MessageLite15ParseFromStringERKNSt7__cxx1112basic_stringIcSt11char_traitsIcESaIcEEE
libgrpc++_error_details.so.1:_ZN6google8protobuf11MessageLite20MergeFromCodedStreamEPNS0_2io16CodedInputStreamE
libgrpc++_error_details.so.1:_ZN6google8protobuf11MessageLite20ParseFromCodedStreamEPNS0_2io16CodedInputStreamE
libgrpc++_error_details.so.1:_ZN6google8protobuf11MessageLite21ParsePartialFromArrayEPKvi
libgrpc++_error_details.so.1:_ZN6google8protobuf11MessageLite22ParsePartialFromStringERKNSt7__cxx1112basic_stringIcSt11char_traitsIcESaIcEEE
libgrpc++_error_details.so.1:_ZN6google8protobuf11MessageLite23ParseFromZeroCopyStreamEPNS0_2io19ZeroCopyInputStreamE
libgrpc++_error_details.so.1:_ZN6google8protobuf11MessageLite27ParsePartialFromCodedStreamEPNS0_2io16CodedInputStreamE
libgrpc++_error_details.so.1:_ZN6google8protobuf11MessageLite30MergeFromBoundedZeroCopyStreamEPNS0_2io19ZeroCopyInputStreamEi
libgrpc++_error_details.so.1:_ZN6google8protobuf11MessageLite30ParseFromBoundedZeroCopyStreamEPNS0_2io19ZeroCopyInputStreamEi
libgrpc++_error_details.so.1:_ZN6google8protobuf11MessageLite30ParsePartialFromZeroCopyStreamEPNS0_2io19ZeroCopyInputStreamE
libgrpc++_error_details.so.1:_ZN6google8protobuf11MessageLite37MergePartialFromBoundedZeroCopyStreamEPNS0_2io19ZeroCopyInputStreamEi
libgrpc++_error_details.so.1:_ZN6google8protobuf11MessageLite37ParsePartialFromBoundedZeroCopyStreamEPNS0_2io19ZeroCopyInputStreamEi
libgrpc++_error_details.so.1:_ZN6google8protobuf11StringPiece14ConsumeFromEndES1_
libgrpc++_error_details.so.1:_ZN6google8protobuf11StringPiece18LogFatalSizeTooBigEmPKc
libgrpc++_error_details.so.1:_ZN6google8protobuf11StringPiece7ConsumeES1_
libgrpc++_error_details.so.1:_ZN6google8protobuf11StringPieceC1ES1_l
libgrpc++_error_details.so.1:_ZN6google8protobuf11StringPieceC1ES1_ll
libgrpc++_error_details.so.1:_ZN6google8protobuf11StringPieceC2ES1_l
libgrpc++_error_details.so.1:_ZN6google8protobuf11StringPieceC2ES1_ll
libgrpc++_error_details.so.1:_ZN6google8protobuf11StripStringEPNSt7__cxx1112basic_stringIcSt11char_traitsIcESaIcEEEPKcc
libgrpc++_error_details.so.1:_ZN6google8protobuf11safe_strtobENS0_11StringPieceEPb
libgrpc++_error_details.so.1:_ZN6google8protobuf11safe_strtodEPKcPd
libgrpc++_error_details.so.1:_ZN6google8protobuf11safe_strtofEPKcPf
libgrpc++_error_details.so.1:_ZN6google8protobuf12Base64EscapeENS0_11StringPieceEPNSt7__cxx1112basic_stringIcSt11char_traitsIcESaIcEEE
libgrpc++_error_details.so.1:_ZN6google8protobuf12Base64EscapeEPKhiPNSt7__cxx1112basic_stringIcSt11char_traitsIcESaIcEEEb
libgrpc++_error_details.so.1:_ZN6google8protobuf12Base64EscapeEPKhiPci
libgrpc++_error_details.so.1:_ZN6google8protobuf12FieldOptions12InternalSwapEPS1_
libgrpc++_error_details.so.1:_ZN6google8protobuf12FieldOptions15UnsafeArenaSwapEPS1_
libgrpc++_error_details.so.1:_ZN6google8protobuf12FieldOptions16default_instanceEv
libgrpc++_error_details.so.1:_ZN6google8protobuf12FieldOptions21InitAsDefaultInstanceEv
libgrpc++_error_details.so.1:_ZN6google8protobuf12FieldOptions27MergePartialFromCodedStreamEPNS0_2io16CodedInputStreamE
libgrpc++_error_details.so.1:_ZN6google8protobuf12FieldOptions4SwapEPS1_
libgrpc++_error_details.so.1:_ZN6google8protobuf12FieldOptions5ClearEv
libgrpc++_error_details.so.1:_ZN6google8protobuf12FieldOptions8CopyFromERKNS0_7MessageE
libgrpc++_error_details.so.1:_ZN6google8protobuf12FieldOptions8CopyFromERKS1_
libgrpc++_error_details.so.1:_ZN6google8protobuf12FieldOptions9ArenaDtorEPv
libgrpc++_error_details.so.1:_ZN6google8protobuf12FieldOptions9MergeFromERKNS0_7MessageE
libgrpc++_error_details.so.1:_ZN6google8protobuf12FieldOptions9MergeFromERKS1_
libgrpc++_error_details.so.1:_ZN6google8protobuf12FieldOptionsC1EPNS0_5ArenaE
libgrpc++_error_details.so.1:_ZN6google8protobuf12FieldOptionsC1ERKS1_
libgrpc++_error_details.so.1:_ZN6google8protobuf12FieldOptionsC1Ev
libgrpc++_error_details.so.1:_ZN6google8protobuf12FieldOptionsC2EPNS0_5ArenaE
libgrpc++_error_details.so.1:_ZN6google8protobuf12FieldOptionsC2ERKS1_
libgrpc++_error_details.so.1:_ZN6google8protobuf12FieldOptionsC2Ev
libgrpc++_error_details.so.1:_ZN6google8protobuf12FieldOptionsD0Ev
libgrpc++_error_details.so.1:_ZN6google8protobuf12FieldOptionsD1Ev
libgrpc++_error_details.so.1:_ZN6google8protobuf12FieldOptionsD2Ev
libgrpc++_error_details.so.1:_ZN6google8protobuf12OneofOptions12InternalSwapEPS1_
libgrpc++_error_details.so.1:_ZN6google8protobuf12OneofOptions15UnsafeArenaSwapEPS1_
libgrpc++_error_details.so.1:_ZN6google8protobuf12OneofOptions16default_instanceEv
libgrpc++_error_details.so.1:_ZN6google8protobuf12OneofOptions21InitAsDefaultInstanceEv
libgrpc++_error_details.so.1:_ZN6google8protobuf12OneofOptions27MergePartialFromCodedStreamEPNS0_2io16CodedInputStreamE
libgrpc++_error_details.so.1:_ZN6google8protobuf12OneofOptions4SwapEPS1_
libgrpc++_error_details.so.1:_ZN6google8protobuf12OneofOptions5ClearEv
libgrpc++_error_details.so.1:_ZN6google8protobuf12OneofOptions8CopyFromERKNS0_7MessageE
libgrpc++_error_details.so.1:_ZN6google8protobuf12OneofOptions8CopyFromERKS1_
libgrpc++_error_details.so.1:_ZN6google8protobuf12OneofOptions9ArenaDtorEPv
libgrpc++_error_details.so.1:_ZN6google8protobuf12OneofOptions9MergeFromERKNS0_7MessageE
libgrpc++_error_details.so.1:_ZN6google8protobuf12OneofOptions9MergeFromERKS1_
libgrpc++_error_details.so.1:_ZN6google8protobuf12OneofOptionsC1EPNS0_5ArenaE
libgrpc++_error_details.so.1:_ZN6google8protobuf12OneofOptionsC1ERKS1_
libgrpc++_error_details.so.1:_ZN6google8protobuf12OneofOptionsC1Ev
libgrpc++_error_details.so.1:_ZN6google8protobuf12OneofOptionsC2EPNS0_5ArenaE
libgrpc++_error_details.so.1:_ZN6google8protobuf12OneofOptionsC2ERKS1_
libgrpc++_error_details.so.1:_ZN6google8protobuf12OneofOptionsC2Ev
libgrpc++_error_details.so.1:_ZN6google8protobuf12OneofOptionsD0Ev
libgrpc++_error_details.so.1:_ZN6google8protobuf12OneofOptionsD1Ev
libgrpc++_error_details.so.1:_ZN6google8protobuf12OneofOptionsD2Ev
libgrpc++_error_details.so.1:_ZN6google8protobuf12StringPrintfB5cxx11EPKcz
libgrpc++_error_details.so.1:_ZN6google8protobuf12UnknownField6DeleteEv
libgrpc++_error_details.so.1:_ZN6google8protobuf12UnknownField8DeepCopyERKS1_
libgrpc++_error_details.so.1:_ZN6google8protobuf12safe_strto32ERKNSt7__cxx1112basic_stringIcSt11char_traitsIcESaIcEEEPi
libgrpc++_error_details.so.1:_ZN6google8protobuf12safe_strto64ERKNSt7__cxx1112basic_stringIcSt11char_traitsIcESaIcEEEPl
libgrpc++_error_details.so.1:_ZN6google8protobuf13FloatToBufferEfPc
libgrpc++_error_details.so.1:_ZN6google8protobuf13MethodOptions12InternalSwapEPS1_
libgrpc++_error_details.so.1:_ZN6google8protobuf13MethodOptions15UnsafeArenaSwapEPS1_
libgrpc++_error_details.so.1:_ZN6google8protobuf13MethodOptions16default_instanceEv
libgrpc++_error_details.so.1:_ZN6google8protobuf13MethodOptions21InitAsDefaultInstanceEv
libgrpc++_error_details.so.1:_ZN6google8protobuf13MethodOptions27MergePartialFromCodedStreamEPNS0_2io16CodedInputStreamE
libgrpc++_error_details.so.1:_ZN6google8protobuf13MethodOptions4SwapEPS1_
libgrpc++_error_details.so.1:_ZN6google8protobuf13MethodOptions5ClearEv
libgrpc++_error_details.so.1:_ZN6google8protobuf13MethodOptions8CopyFromERKNS0_7MessageE
libgrpc++_error_details.so.1:_ZN6google8protobuf13MethodOptions8CopyFromERKS1_
libgrpc++_error_details.so.1:_ZN6google8protobuf13MethodOptions9ArenaDtorEPv
libgrpc++_error_details.so.1:_ZN6google8protobuf13MethodOptions9MergeFromERKNS0_7MessageE
libgrpc++_error_details.so.1:_ZN6google8protobuf13MethodOptions9MergeFromERKS1_
libgrpc++_error_details.so.1:_ZN6google8protobuf13MethodOptionsC1EPNS0_5ArenaE
libgrpc++_error_details.so.1:_ZN6google8protobuf13MethodOptionsC1ERKS1_
libgrpc++_error_details.so.1:_ZN6google8protobuf13MethodOptionsC1Ev
libgrpc++_error_details.so.1:_ZN6google8protobuf13MethodOptionsC2EPNS0_5ArenaE
libgrpc++_error_details.so.1:_ZN6google8protobuf13MethodOptionsC2ERKS1_
libgrpc++_error_details.so.1:_ZN6google8protobuf13MethodOptionsC2Ev
libgrpc++_error_details.so.1:_ZN6google8protobuf13MethodOptionsD0Ev
libgrpc++_error_details.so.1:_ZN6google8protobuf13MethodOptionsD1Ev
libgrpc++_error_details.so.1:_ZN6google8protobuf13MethodOptionsD2Ev
libgrpc++_error_details.so.1:_ZN6google8protobuf13SStringPrintfEPNSt7__cxx1112basic_stringIcSt11char_traitsIcESaIcEEEPKcz
libgrpc++_error_details.so.1:_ZN6google8protobuf13SetLogHandlerEPFvNS0_8LogLevelEPKciRKNSt7__cxx1112basic_stringIcSt11char_traitsIcESaIcEEEE
libgrpc++_error_details.so.1:_ZN6google8protobuf13StringAppendFEPNSt7__cxx1112basic_stringIcSt11char_traitsIcESaIcEEEPKcz
libgrpc++_error_details.so.1:_ZN6google8protobuf13StringAppendVEPNSt7__cxx1112basic_stringIcSt11char_traitsIcESaIcEEEPKcP13__va_list_tag
libgrpc++_error_details.so.1:_ZN6google8protobuf13StringReplaceERKNSt7__cxx1112basic_stringIcSt11char_traitsIcESaIcEEES8_S8_b
libgrpc++_error_details.so.1:_ZN6google8protobuf13StringReplaceERKNSt7__cxx1112basic_stringIcSt11char_traitsIcESaIcEEES8_S8_bPS6_
libgrpc++_error_details.so.1:_ZN6google8protobuf13safe_strtou32ERKNSt7__cxx1112basic_stringIcSt11char_traitsIcESaIcEEEPj
libgrpc++_error_details.so.1:_ZN6google8protobuf13safe_strtou64ERKNSt7__cxx1112basic_stringIcSt11char_traitsIcESaIcEEEPm
libgrpc++_error_details.so.1:_ZN6google8protobuf14Base64UnescapeENS0_11StringPieceEPNSt7__cxx1112basic_stringIcSt11char_traitsIcESaIcEEE
libgrpc++_error_details.so.1:_ZN6google8protobuf14DescriptorPool14ErrorCollectorD0Ev
libgrpc++_error_details.so.1:_ZN6google8protobuf14DescriptorPool14ErrorCollectorD1Ev
libgrpc++_error_details.so.1:_ZN6google8protobuf14DescriptorPool14ErrorCollectorD2Ev
libgrpc++_error_details.so.1:_ZN6google8protobuf14DescriptorPool14generated_poolEv
libgrpc++_error_details.so.1:_ZN6google8protobuf14DescriptorPool23internal_generated_poolEv
libgrpc++_error_details.so.1:_ZN6google8protobuf14DescriptorPool24AddUnusedImportTrackFileERKNSt7__cxx1112basic_stringIcSt11char_traitsIcESaIcEEE
libgrpc++_error_details.so.1:_ZN6google8protobuf14DescriptorPool24InternalAddGeneratedFileEPKvi
libgrpc++_error_details.so.1:_ZN6google8protobuf14DescriptorPool25BuildFileCollectingErrorsERKNS0_19FileDescriptorProtoEPNS1_14ErrorCollectorE
libgrpc++_error_details.so.1:_ZN6google8protobuf14DescriptorPool27ClearUnusedImportTrackFilesEv
libgrpc++_error_details.so.1:_ZN6google8protobuf14DescriptorPool31InternalDontEnforceDependenciesEv
libgrpc++_error_details.so.1:_ZN6google8protobuf14DescriptorPool6Tables12AddExtensionEPKNS0_15FieldDescriptorE
libgrpc++_error_details.so.1:_ZN6google8protobuf14DescriptorPool6Tables13AddCheckpointEv
libgrpc++_error_details.so.1:_ZN6google8protobuf14DescriptorPool6Tables13AllocateBytesEi
libgrpc++_error_details.so.1:_ZN6google8protobuf14DescriptorPool6Tables14AllocateStringERKNSt7__cxx1112basic_stringIcSt11char_traitsIcESaIcEEE
libgrpc++_error_details.so.1:_ZN6google8protobuf14DescriptorPool6Tables16FindByNameHelperEPKS1_RKNSt7__cxx1112basic_stringIcSt11char_traitsIcESaIcEEE
libgrpc++_error_details.so.1:_ZN6google8protobuf14DescriptorPool6Tables18AllocateFileTablesEv
libgrpc++_error_details.so.1:_ZN6google8protobuf14DescriptorPool6Tables19AllocateOnceDynamicEv
libgrpc++_error_details.so.1:_ZN6google8protobuf14DescriptorPool6Tables19ClearLastCheckpointEv
libgrpc++_error_details.so.1:_ZN6google8protobuf14DescriptorPool6Tables24RollbackToLastCheckpointEv
libgrpc++_error_details.so.1:_ZN6google8protobuf14DescriptorPool6Tables7AddFileEPKNS0_14FileDescriptorE
libgrpc++_error_details.so.1:_ZN6google8protobuf14DescriptorPool6Tables9AddSymbolERKNSt7__cxx1112basic_stringIcSt11char_traitsIcESaIcEEENS0_6SymbolE
libgrpc++_error_details.so.1:_ZN6google8protobuf14DescriptorPool6TablesC1Ev
libgrpc++_error_details.so.1:_ZN6google8protobuf14DescriptorPool6TablesC2Ev
libgrpc++_error_details.so.1:_ZN6google8protobuf14DescriptorPool6TablesD1Ev
libgrpc++_error_details.so.1:_ZN6google8protobuf14DescriptorPool6TablesD2Ev
libgrpc++_error_details.so.1:_ZN6google8protobuf14DescriptorPool9BuildFileERKNS0_19FileDescriptorProtoE
libgrpc++_error_details.so.1:_ZN6google8protobuf14DescriptorPoolC1EPKS1_
libgrpc++_error_details.so.1:_ZN6google8protobuf14DescriptorPoolC1EPNS0_18DescriptorDatabaseEPNS1_14ErrorCollectorE
libgrpc++_error_details.so.1:_ZN6google8protobuf14DescriptorPoolC1Ev
libgrpc++_error_details.so.1:_ZN6google8protobuf14DescriptorPoolC2EPKS1_
libgrpc++_error_details.so.1:_ZN6google8protobuf14DescriptorPoolC2EPNS0_18DescriptorDatabaseEPNS1_14ErrorCollectorE
libgrpc++_error_details.so.1:_ZN6google8protobuf14DescriptorPoolC2Ev
libgrpc++_error_details.so.1:_ZN6google8protobuf14DescriptorPoolD1Ev
libgrpc++_error_details.so.1:_ZN6google8protobuf14DescriptorPoolD2Ev
libgrpc++_error_details.so.1:_ZN6google8protobuf14DoubleToBufferEdPc
libgrpc++_error_details.so.1:_ZN6google8protobuf14DynamicMessage10SharedCtorEb
libgrpc++_error_details.so.1:_ZN6google8protobuf14DynamicMessage19CrossLinkPrototypesEv
libgrpc++_error_details.so.1:_ZN6google8protobuf14DynamicMessageC1EPKNS1_8TypeInfoE
libgrpc++_error_details.so.1:_ZN6google8protobuf14DynamicMessageC1EPKNS1_8TypeInfoEPNS0_5ArenaE
libgrpc++_error_details.so.1:_ZN6google8protobuf14DynamicMessageC1EPNS1_8TypeInfoEb
libgrpc++_error_details.so.1:_ZN6google8protobuf14DynamicMessageC2EPKNS1_8TypeInfoE
libgrpc++_error_details.so.1:_ZN6google8protobuf14DynamicMessageC2EPKNS1_8TypeInfoEPNS0_5ArenaE
libgrpc++_error_details.so.1:_ZN6google8protobuf14DynamicMessageC2EPNS1_8TypeInfoEb
libgrpc++_error_details.so.1:_ZN6google8protobuf14DynamicMessageD0Ev
libgrpc++_error_details.so.1:_ZN6google8protobuf14DynamicMessageD1Ev
libgrpc++_error_details.so.1:_ZN6google8protobuf14DynamicMessageD2Ev
libgrpc++_error_details.so.1:_ZN6google8protobuf14FatalExceptionD0Ev
libgrpc++_error_details.so.1:_ZN6google8protobuf14FatalExceptionD1Ev
libgrpc++_error_details.so.1:_ZN6google8protobuf14FatalExceptionD2Ev
libgrpc++_error_details.so.1:_ZN6google8protobuf14FileDescriptor10SyntaxNameENS1_6SyntaxE
libgrpc++_error_details.so.1:_ZN6google8protobuf14FileDescriptor20DependenciesOnceInitEPKS1_
libgrpc++_error_details.so.1:_ZN6google8protobuf14MessageFactory17generated_factoryEv
libgrpc++_error_details.so.1:_ZN6google8protobuf14MessageFactory29InternalRegisterGeneratedFileEPKNS0_8internal15DescriptorTableE
libgrpc++_error_details.so.1:_ZN6google8protobuf14MessageFactory32InternalRegisterGeneratedMessageEPKNS0_10DescriptorEPKNS0_7MessageE
libgrpc++_error_details.so.1:_ZN6google8protobuf14MessageFactoryD0Ev
libgrpc++_error_details.so.1:_ZN6google8protobuf14MessageFactoryD1Ev
libgrpc++_error_details.so.1:_ZN6google8protobuf14MessageFactoryD2Ev
libgrpc++_error_details.so.1:_ZN6google8protobuf14MessageOptions12InternalSwapEPS1_
libgrpc++_error_details.so.1:_ZN6google8protobuf14MessageOptions15UnsafeArenaSwapEPS1_
libgrpc++_error_details.so.1:_ZN6google8protobuf14MessageOptions16default_instanceEv
libgrpc++_error_details.so.1:_ZN6google8protobuf14MessageOptions21InitAsDefaultInstanceEv
libgrpc++_error_details.so.1:_ZN6google8protobuf14MessageOptions27MergePartialFromCodedStreamEPNS0_2io16CodedInputStreamE
libgrpc++_error_details.so.1:_ZN6google8protobuf14MessageOptions4SwapEPS1_
libgrpc++_error_details.so.1:_ZN6google8protobuf14MessageOptions5ClearEv
libgrpc++_error_details.so.1:_ZN6google8protobuf14MessageOptions8CopyFromERKNS0_7MessageE
libgrpc++_error_details.so.1:_ZN6google8protobuf14MessageOptions8CopyFromERKS1_
libgrpc++_error_details.so.1:_ZN6google8protobuf14MessageOptions9ArenaDtorEPv
libgrpc++_error_details.so.1:_ZN6google8protobuf14MessageOptions9MergeFromERKNS0_7MessageE
libgrpc++_error_details.so.1:_ZN6google8protobuf14MessageOptions9MergeFromERKS1_
libgrpc++_error_details.so.1:_ZN6google8protobuf14MessageOptionsC1EPNS0_5ArenaE
libgrpc++_error_details.so.1:_ZN6google8protobuf14MessageOptionsC1ERKS1_
libgrpc++_error_details.so.1:_ZN6google8protobuf14MessageOptionsC1Ev
libgrpc++_error_details.so.1:_ZN6google8protobuf14MessageOptionsC2EPNS0_5ArenaE
libgrpc++_error_details.so.1:_ZN6google8protobuf14MessageOptionsC2ERKS1_
libgrpc++_error_details.so.1:_ZN6google8protobuf14MessageOptionsC2Ev
libgrpc++_error_details.so.1:_ZN6google8protobuf14MessageOptionsD0Ev
libgrpc++_error_details.so.1:_ZN6google8protobuf14MessageOptionsD1Ev
libgrpc++_error_details.so.1:_ZN6google8protobuf14MessageOptionsD2Ev
libgrpc++_error_details.so.1:_ZN6google8protobuf14ServiceOptions12InternalSwapEPS1_
libgrpc++_error_details.so.1:_ZN6google8protobuf14ServiceOptions15UnsafeArenaSwapEPS1_
libgrpc++_error_details.so.1:_ZN6google8protobuf14ServiceOptions16default_instanceEv
libgrpc++_error_details.so.1:_ZN6google8protobuf14ServiceOptions21InitAsDefaultInstanceEv
libgrpc++_error_details.so.1:_ZN6google8protobuf14ServiceOptions27MergePartialFromCodedStreamEPNS0_2io16CodedInputStreamE
libgrpc++_error_details.so.1:_ZN6google8protobuf14ServiceOptions4SwapEPS1_
libgrpc++_error_details.so.1:_ZN6google8protobuf14ServiceOptions5ClearEv
libgrpc++_error_details.so.1:_ZN6google8protobuf14ServiceOptions8CopyFromERKNS0_7MessageE
libgrpc++_error_details.so.1:_ZN6google8protobuf14ServiceOptions8CopyFromERKS1_
libgrpc++_error_details.so.1:_ZN6google8protobuf14ServiceOptions9ArenaDtorEPv
libgrpc++_error_details.so.1:_ZN6google8protobuf14ServiceOptions9MergeFromERKNS0_7MessageE
libgrpc++_error_details.so.1:_ZN6google8protobuf14ServiceOptions9MergeFromERKS1_
libgrpc++_error_details.so.1:_ZN6google8protobuf14ServiceOptionsC1EPNS0_5ArenaE
libgrpc++_error_details.so.1:_ZN6google8protobuf14ServiceOptionsC1ERKS1_
libgrpc++_error_details.so.1:_ZN6google8protobuf14ServiceOptionsC1Ev
libgrpc++_error_details.so.1:_ZN6google8protobuf14ServiceOptionsC2EPNS0_5ArenaE
libgrpc++_error_details.so.1:_ZN6google8protobuf14ServiceOptionsC2ERKS1_
libgrpc++_error_details.so.1:_ZN6google8protobuf14ServiceOptionsC2Ev
libgrpc++_error_details.so.1:_ZN6google8protobuf14ServiceOptionsD0Ev
libgrpc++_error_details.so.1:_ZN6google8protobuf14ServiceOptionsD1Ev
libgrpc++_error_details.so.1:_ZN6google8protobuf14ServiceOptionsD2Ev
libgrpc++_error_details.so.1:_ZN6google8protobuf14SourceCodeInfo12InternalSwapEPS1_
libgrpc++_error_details.so.1:_ZN6google8protobuf14SourceCodeInfo15UnsafeArenaSwapEPS1_
libgrpc++_error_details.so.1:_ZN6google8protobuf14SourceCodeInfo16default_instanceEv
libgrpc++_error_details.so.1:_ZN6google8protobuf14SourceCodeInfo21InitAsDefaultInstanceEv
libgrpc++_error_details.so.1:_ZN6google8protobuf14SourceCodeInfo27MergePartialFromCodedStreamEPNS0_2io16CodedInputStreamE
libgrpc++_error_details.so.1:_ZN6google8protobuf14SourceCodeInfo4SwapEPS1_
libgrpc++_error_details.so.1:_ZN6google8protobuf14SourceCodeInfo5ClearEv
libgrpc++_error_details.so.1:_ZN6google8protobuf14SourceCodeInfo8CopyFromERKNS0_7MessageE
libgrpc++_error_details.so.1:_ZN6google8protobuf14SourceCodeInfo8CopyFromERKS1_
libgrpc++_error_details.so.1:_ZN6google8protobuf14SourceCodeInfo9ArenaDtorEPv
libgrpc++_error_details.so.1:_ZN6google8protobuf14SourceCodeInfo9MergeFromERKNS0_7MessageE
libgrpc++_error_details.so.1:_ZN6google8protobuf14SourceCodeInfo9MergeFromERKS1_
libgrpc++_error_details.so.1:_ZN6google8protobuf14SourceCodeInfoC1EPNS0_5ArenaE
libgrpc++_error_details.so.1:_ZN6google8protobuf14SourceCodeInfoC1ERKS1_
libgrpc++_error_details.so.1:_ZN6google8protobuf14SourceCodeInfoC1Ev
libgrpc++_error_details.so.1:_ZN6google8protobuf14SourceCodeInfoC2EPNS0_5ArenaE
libgrpc++_error_details.so.1:_ZN6google8protobuf14SourceCodeInfoC2ERKS1_
libgrpc++_error_details.so.1:_ZN6google8protobuf14SourceCodeInfoC2Ev
libgrpc++_error_details.so.1:_ZN6google8protobuf14SourceCodeInfoD0Ev
libgrpc++_error_details.so.1:_ZN6google8protobuf14SourceCodeInfoD1Ev
libgrpc++_error_details.so.1:_ZN6google8protobuf14SourceCodeInfoD2Ev
libgrpc++_error_details.so.1:_ZN6google8protobuf15CEscapeInternalEPKciPcibb
libgrpc++_error_details.so.1:_ZN6google8protobuf15CheckFieldIndexEPKNS0_15FieldDescriptorEi
libgrpc++_error_details.so.1:_ZN6google8protobuf15DelocalizeRadixEPc
libgrpc++_error_details.so.1:_ZN6google8protobuf15DescriptorProto12InternalSwapEPS1_
libgrpc++_error_details.so.1:_ZN6google8protobuf15DescriptorProto13HasBitSetters7optionsEPKS1_
libgrpc++_error_details.so.1:_ZN6google8protobuf15DescriptorProto15UnsafeArenaSwapEPS1_
libgrpc++_error_details.so.1:_ZN6google8protobuf15DescriptorProto16default_instanceEv
libgrpc++_error_details.so.1:_ZN6google8protobuf15DescriptorProto21InitAsDefaultInstanceEv
libgrpc++_error_details.so.1:_ZN6google8protobuf15DescriptorProto27MergePartialFromCodedStreamEPNS0_2io16CodedInputStreamE
libgrpc++_error_details.so.1:_ZN6google8protobuf15DescriptorProto34unsafe_arena_set_allocated_optionsEPNS0_14MessageOptionsE
libgrpc++_error_details.so.1:_ZN6google8protobuf15DescriptorProto4SwapEPS1_
libgrpc++_error_details.so.1:_ZN6google8protobuf15DescriptorProto5ClearEv
libgrpc++_error_details.so.1:_ZN6google8protobuf15DescriptorProto8CopyFromERKNS0_7MessageE
libgrpc++_error_details.so.1:_ZN6google8protobuf15DescriptorProto8CopyFromERKS1_
libgrpc++_error_details.so.1:_ZN6google8protobuf15DescriptorProto9ArenaDtorEPv
libgrpc++_error_details.so.1:_ZN6google8protobuf15DescriptorProto9MergeFromERKNS0_7MessageE
libgrpc++_error_details.so.1:_ZN6google8protobuf15DescriptorProto9MergeFromERKS1_
libgrpc++_error_details.so.1:_ZN6google8protobuf15DescriptorProtoC1EPNS0_5ArenaE
libgrpc++_error_details.so.1:_ZN6google8protobuf15DescriptorProtoC1ERKS1_
libgrpc++_error_details.so.1:_ZN6google8protobuf15DescriptorProtoC1Ev
libgrpc++_error_details.so.1:_ZN6google8protobuf15DescriptorProtoC2EPNS0_5ArenaE
libgrpc++_error_details.so.1:_ZN6google8protobuf15DescriptorProtoC2ERKS1_
libgrpc++_error_details.so.1:_ZN6google8protobuf15DescriptorProtoC2Ev
libgrpc++_error_details.so.1:_ZN6google8protobuf15DescriptorProtoD0Ev
libgrpc++_error_details.so.1:_ZN6google8protobuf15DescriptorProtoD1Ev
libgrpc++_error_details.so.1:_ZN6google8protobuf15DescriptorProtoD2Ev
libgrpc++_error_details.so.1:_ZN6google8protobuf15FastHexToBufferEiPc
libgrpc++_error_details.so.1:_ZN6google8protobuf15FieldDescriptor12TypeOnceInitEPKS1_
libgrpc++_error_details.so.1:_ZN6google8protobuf15StripWhitespaceEPNSt7__cxx1112basic_stringIcSt11char_traitsIcESaIcEEE
libgrpc++_error_details.so.1:_ZN6google8protobuf15UnknownFieldSet10AddFixed32Eij
libgrpc++_error_details.so.1:_ZN6google8protobuf15UnknownFieldSet10AddFixed64Eim
libgrpc++_error_details.so.1:_ZN6google8protobuf15UnknownFieldSet13ClearFallbackEv
libgrpc++_error_details.so.1:_ZN6google8protobuf15UnknownFieldSet14DeleteByNumberEi
libgrpc++_error_details.so.1:_ZN6google8protobuf15UnknownFieldSet14DeleteSubrangeEii
libgrpc++_error_details.so.1:_ZN6google8protobuf15UnknownFieldSet14ParseFromArrayEPKvi
libgrpc++_error_details.so.1:_ZN6google8protobuf15UnknownFieldSet16default_instanceEv
libgrpc++_error_details.so.1:_ZN6google8protobuf15UnknownFieldSet17InternalMergeFromERKS1_
libgrpc++_error_details.so.1:_ZN6google8protobuf15UnknownFieldSet18AddLengthDelimitedB5cxx11Ei
libgrpc++_error_details.so.1:_ZN6google8protobuf15UnknownFieldSet19MergeFromAndDestroyEPS1_
libgrpc++_error_details.so.1:_ZN6google8protobuf15UnknownFieldSet20MergeFromCodedStreamEPNS0_2io16CodedInputStreamE
libgrpc++_error_details.so.1:_ZN6google8protobuf15UnknownFieldSet20ParseFromCodedStreamEPNS0_2io16CodedInputStreamE
libgrpc++_error_details.so.1:_ZN6google8protobuf15UnknownFieldSet22MergeToInternalMetdataERKS1_PNS0_8internal25InternalMetadataWithArenaE
libgrpc++_error_details.so.1:_ZN6google8protobuf15UnknownFieldSet23ParseFromZeroCopyStreamEPNS0_2io19ZeroCopyInputStreamE
libgrpc++_error_details.so.1:_ZN6google8protobuf15UnknownFieldSet8AddFieldERKNS0_12UnknownFieldE
libgrpc++_error_details.so.1:_ZN6google8protobuf15UnknownFieldSet8AddGroupEi
libgrpc++_error_details.so.1:_ZN6google8protobuf15UnknownFieldSet9AddVarintEim
libgrpc++_error_details.so.1:_ZN6google8protobuf15UnknownFieldSet9MergeFromERKS1_
libgrpc++_error_details.so.1:_ZN6google8protobuf15strto32_adaptorEPKcPPci
libgrpc++_error_details.so.1:_ZN6google8protobuf16CEscapeAndAppendENS0_11StringPieceEPNSt7__cxx1112basic_stringIcSt11char_traitsIcESaIcEEE
libgrpc++_error_details.so.1:_ZN6google8protobuf16EncodeAsUTF8CharEjPc
libgrpc++_error_details.so.1:_ZN6google8protobuf16EnumValueOptions12InternalSwapEPS1_
libgrpc++_error_details.so.1:_ZN6google8protobuf16EnumValueOptions15UnsafeArenaSwapEPS1_
libgrpc++_error_details.so.1:_ZN6google8protobuf16EnumValueOptions16default_instanceEv
libgrpc++_error_details.so.1:_ZN6google8protobuf16EnumValueOptions21InitAsDefaultInstanceEv
libgrpc++_error_details.so.1:_ZN6google8protobuf16EnumValueOptions27MergePartialFromCodedStreamEPNS0_2io16CodedInputStreamE
libgrpc++_error_details.so.1:_ZN6google8protobuf16EnumValueOptions4SwapEPS1_
libgrpc++_error_details.so.1:_ZN6google8protobuf16EnumValueOptions5ClearEv
libgrpc++_error_details.so.1:_ZN6google8protobuf16EnumValueOptions8CopyFromERKNS0_7MessageE
libgrpc++_error_details.so.1:_ZN6google8protobuf16EnumValueOptions8CopyFromERKS1_
libgrpc++_error_details.so.1:_ZN6google8protobuf16EnumValueOptions9ArenaDtorEPv
libgrpc++_error_details.so.1:_ZN6google8protobuf16EnumValueOptions9MergeFromERKNS0_7MessageE
libgrpc++_error_details.so.1:_ZN6google8protobuf16EnumValueOptions9MergeFromERKS1_
libgrpc++_error_details.so.1:_ZN6google8protobuf16EnumValueOptionsC1EPNS0_5ArenaE
libgrpc++_error_details.so.1:_ZN6google8protobuf16EnumValueOptionsC1ERKS1_
libgrpc++_error_details.so.1:_ZN6google8protobuf16EnumValueOptionsC1Ev
libgrpc++_error_details.so.1:_ZN6google8protobuf16EnumValueOptionsC2EPNS0_5ArenaE
libgrpc++_error_details.so.1:_ZN6google8protobuf16EnumValueOptionsC2ERKS1_
libgrpc++_error_details.so.1:_ZN6google8protobuf16EnumValueOptionsC2Ev
libgrpc++_error_details.so.1:_ZN6google8protobuf16EnumValueOptionsD0Ev
libgrpc++_error_details.so.1:_ZN6google8protobuf16EnumValueOptionsD1Ev
libgrpc++_error_details.so.1:_ZN6google8protobuf16EnumValueOptionsD2Ev
libgrpc++_error_details.so.1:_ZN6google8protobuf16SplitStringUsingERKNSt7__cxx1112basic_stringIcSt11char_traitsIcESaIcEEEPKcPSt6vectorIS6_SaIS6_EE
libgrpc++_error_details.so.1:_ZN6google8protobuf16strtou32_adaptorEPKcPPci
libgrpc++_error_details.so.1:_ZN6google8protobuf17DescriptorBuilder10AddPackageERKNSt7__cxx1112basic_stringIcSt11char_traitsIcESaIcEEERKNS0_7MessageEPKNS0_14FileDescriptorE
libgrpc++_error_details.so.1:_ZN6google8protobuf17DescriptorBuilder10AddWarningERKNSt7__cxx1112basic_stringIcSt11char_traitsIcESaIcEEERKNS0_7MessageENS0_14DescriptorPool14ErrorCollector13ErrorLocationES9_
libgrpc++_error_details.so.1:_ZN6google8protobuf17DescriptorBuilder10BuildOneofERKNS0_20OneofDescriptorProtoEPNS0_10DescriptorEPNS0_15OneofDescriptorE
libgrpc++_error_details.so.1:_ZN6google8protobuf17DescriptorBuilder10FindSymbolERKNSt7__cxx1112basic_stringIcSt11char_traitsIcESaIcEEEb
libgrpc++_error_details.so.1:_ZN6google8protobuf17DescriptorBuilder11BuildMethodERKNS0_21MethodDescriptorProtoEPKNS0_17ServiceDescriptorEPNS0_16MethodDescriptorE
libgrpc++_error_details.so.1:_ZN6google8protobuf17DescriptorBuilder11IsInPackageEPKNS0_14FileDescriptorERKNSt7__cxx1112basic_stringIcSt11char_traitsIcESaIcEEE
libgrpc++_error_details.so.1:_ZN6google8protobuf17DescriptorBuilder12BuildMessageERKNS0_15DescriptorProtoEPKNS0_10DescriptorEPS5_
libgrpc++_error_details.so.1:_ZN6google8protobuf17DescriptorBuilder12BuildServiceERKNS0_22ServiceDescriptorProtoEPKvPNS0_17ServiceDescriptorE
libgrpc++_error_details.so.1:_ZN6google8protobuf17DescriptorBuilder12LookupSymbolERKNSt7__cxx1112basic_stringIcSt11char_traitsIcESaIcEEES9_NS0_14DescriptorPool15PlaceholderTypeENS1_11ResolveModeEb
libgrpc++_error_details.so.1:_ZN6google8protobuf17DescriptorBuilder13BuildFileImplERKNS0_19FileDescriptorProtoE
libgrpc++_error_details.so.1:_ZN6google8protobuf17DescriptorBuilder13CrossLinkEnumEPNS0_14EnumDescriptorERKNS0_19EnumDescriptorProtoE
libgrpc++_error_details.so.1:_ZN6google8protobuf17DescriptorBuilder13CrossLinkFileEPNS0_14FileDescriptorERKNS0_19FileDescriptorProtoE
libgrpc++_error_details.so.1:_ZN6google8protobuf17DescriptorBuilder14AddImportErrorERKNS0_19FileDescriptorProtoEi
libgrpc++_error_details.so.1:_ZN6google8protobuf17DescriptorBuilder14BuildEnumValueERKNS0_24EnumValueDescriptorProtoEPKNS0_14EnumDescriptorEPNS0_19EnumValueDescriptorE
libgrpc++_error_details.so.1:_ZN6google8protobuf17DescriptorBuilder14CrossLinkFieldEPNS0_15FieldDescriptorERKNS0_20FieldDescriptorProtoE
libgrpc++_error_details.so.1:_ZN6google8protobuf17DescriptorBuilder14ValidateJSTypeEPNS0_15FieldDescriptorERKNS0_20FieldDescriptorProtoE
libgrpc++_error_details.so.1:_ZN6google8protobuf17DescriptorBuilder14ValidateProto3EPNS0_14FileDescriptorERKNS0_19FileDescriptorProtoE
libgrpc++_error_details.so.1:_ZN6google8protobuf17DescriptorBuilder15AllocateOptionsERKNS0_11FileOptionsEPNS0_14FileDescriptorE
libgrpc++_error_details.so.1:_ZN6google8protobuf17DescriptorBuilder15CrossLinkMethodEPNS0_16MethodDescriptorERKNS0_21MethodDescriptorProtoE
libgrpc++_error_details.so.1:_ZN6google8protobuf17DescriptorBuilder16CrossLinkMessageEPNS0_10DescriptorERKNS0_15DescriptorProtoE
libgrpc++_error_details.so.1:_ZN6google8protobuf17DescriptorBuilder16CrossLinkServiceEPNS0_17ServiceDescriptorERKNS0_22ServiceDescriptorProtoE
libgrpc++_error_details.so.1:_ZN6google8protobuf17DescriptorBuilder16ValidateMapEntryEPNS0_15FieldDescriptorERKNS0_20FieldDescriptorProtoE
libgrpc++_error_details.so.1:_ZN6google8protobuf17DescriptorBuilder17OptionInterpreter14SetOptionValueEPKNS0_15FieldDescriptorEPNS0_15UnknownFieldSetE
libgrpc++_error_details.so.1:_ZN6google8protobuf17DescriptorBuilder17OptionInterpreter18SetAggregateOptionEPKNS0_15FieldDescriptorEPNS0_15UnknownFieldSetE
libgrpc++_error_details.so.1:_ZN6google8protobuf17DescriptorBuilder17OptionInterpreter20ExamineIfOptionIsSetEN9__gnu_cxx17__normal_iteratorIPKPKNS0_15FieldDescriptorESt6vectorIS7_SaIS7_EEEESD_S7_RKNSt7__cxx1112basic_stringIcSt11char_traitsIcESaIcEEERKNS0_15UnknownFieldSetE
libgrpc++_error_details.so.1:_ZN6google8protobuf17DescriptorBuilder17OptionInterpreter20UpdateSourceCodeInfoEPNS0_14SourceCodeInfoE
libgrpc++_error_details.so.1:_ZN6google8protobuf17DescriptorBuilder17OptionInterpreter21InterpretSingleOptionEPNS0_7MessageERKSt6vectorIiSaIiEES9_
libgrpc++_error_details.so.1:_ZN6google8protobuf17DescriptorBuilder17OptionInterpreter22AddWithoutInterpretingERKNS0_19UninterpretedOptionEPNS0_7MessageE
libgrpc++_error_details.so.1:_ZN6google8protobuf17DescriptorBuilder17OptionInterpreter8SetInt32EiiNS0_15FieldDescriptor4TypeEPNS0_15UnknownFieldSetE
libgrpc++_error_details.so.1:_ZN6google8protobuf17DescriptorBuilder17OptionInterpreter8SetInt64EilNS0_15FieldDescriptor4TypeEPNS0_15UnknownFieldSetE
libgrpc++_error_details.so.1:_ZN6google8protobuf17DescriptorBuilder17OptionInterpreter9SetUInt32EijNS0_15FieldDescriptor4TypeEPNS0_15UnknownFieldSetE
libgrpc++_error_details.so.1:_ZN6google8protobuf17DescriptorBuilder17OptionInterpreter9SetUInt64EimNS0_15FieldDescriptor4TypeEPNS0_15UnknownFieldSetE
libgrpc++_error_details.so.1:_ZN6google8protobuf17DescriptorBuilder17OptionInterpreterC1EPS1_
libgrpc++_error_details.so.1:_ZN6google8protobuf17DescriptorBuilder17OptionInterpreterC2EPS1_
libgrpc++_error_details.so.1:_ZN6google8protobuf17DescriptorBuilder17OptionInterpreterD1Ev
libgrpc++_error_details.so.1:_ZN6google8protobuf17DescriptorBuilder17OptionInterpreterD2Ev
libgrpc++_error_details.so.1:_ZN6google8protobuf17DescriptorBuilder18AddNotDefinedErrorERKNSt7__cxx1112basic_stringIcSt11char_traitsIcESaIcEEERKNS0_7MessageENS0_14DescriptorPool14ErrorCollector13ErrorLocationES9_
libgrpc++_error_details.so.1:_ZN6google8protobuf17DescriptorBuilder18BuildReservedRangeERKNS0_29DescriptorProto_ReservedRangeEPKNS0_10DescriptorEPNS5_13ReservedRangeE
libgrpc++_error_details.so.1:_ZN6google8protobuf17DescriptorBuilder18BuildReservedRangeERKNS0_37EnumDescriptorProto_EnumReservedRangeEPKNS0_14EnumDescriptorEPNS5_13ReservedRangeE
libgrpc++_error_details.so.1:_ZN6google8protobuf17DescriptorBuilder18CrossLinkEnumValueEPNS0_19EnumValueDescriptorERKNS0_24EnumValueDescriptorProtoE
libgrpc++_error_details.so.1:_ZN6google8protobuf17DescriptorBuilder18DetectMapConflictsEPKNS0_10DescriptorERKNS0_15DescriptorProtoE
libgrpc++_error_details.so.1:_ZN6google8protobuf17DescriptorBuilder18ValidateProto3EnumEPNS0_14EnumDescriptorERKNS0_19EnumDescriptorProtoE
libgrpc++_error_details.so.1:_ZN6google8protobuf17DescriptorBuilder18ValidateSymbolNameERKNSt7__cxx1112basic_stringIcSt11char_traitsIcESaIcEEES9_RKNS0_7MessageE
libgrpc++_error_details.so.1:_ZN6google8protobuf17DescriptorBuilder19AddTwiceListedErrorERKNS0_19FileDescriptorProtoEi
libgrpc++_error_details.so.1:_ZN6google8protobuf17DescriptorBuilder19BuildExtensionRangeERKNS0_30DescriptorProto_ExtensionRangeEPKNS0_10DescriptorEPNS5_14ExtensionRangeE
libgrpc++_error_details.so.1:_ZN6google8protobuf17DescriptorBuilder19LogUnusedDependencyERKNS0_19FileDescriptorProtoEPKNS0_14FileDescriptorE
libgrpc++_error_details.so.1:_ZN6google8protobuf17DescriptorBuilder19ValidateEnumOptionsEPNS0_14EnumDescriptorERKNS0_19EnumDescriptorProtoE
libgrpc++_error_details.so.1:_ZN6google8protobuf17DescriptorBuilder19ValidateFileOptionsEPNS0_14FileDescriptorERKNS0_19FileDescriptorProtoE
libgrpc++_error_details.so.1:_ZN6google8protobuf17DescriptorBuilder19ValidateProto3FieldEPNS0_15FieldDescriptorERKNS0_20FieldDescriptorProtoE
libgrpc++_error_details.so.1:_ZN6google8protobuf17DescriptorBuilder20ValidateFieldOptionsEPNS0_15FieldDescriptorERKNS0_20FieldDescriptorProtoE
libgrpc++_error_details.so.1:_ZN6google8protobuf17DescriptorBuilder21BuildFieldOrExtensionERKNS0_20FieldDescriptorProtoEPKNS0_10DescriptorEPNS0_15FieldDescriptorEb
libgrpc++_error_details.so.1:_ZN6google8protobuf17DescriptorBuilder21ValidateMethodOptionsEPNS0_16MethodDescriptorERKNS0_21MethodDescriptorProtoE
libgrpc++_error_details.so.1:_ZN6google8protobuf17DescriptorBuilder21ValidateProto3MessageEPNS0_10DescriptorERKNS0_15DescriptorProtoE
libgrpc++_error_details.so.1:_ZN6google8protobuf17DescriptorBuilder22ValidateMessageOptionsEPNS0_10DescriptorERKNS0_15DescriptorProtoE
libgrpc++_error_details.so.1:_ZN6google8protobuf17DescriptorBuilder22ValidateServiceOptionsEPNS0_17ServiceDescriptorERKNS0_22ServiceDescriptorProtoE
libgrpc++_error_details.so.1:_ZN6google8protobuf17DescriptorBuilder23AddRecursiveImportErrorERKNS0_19FileDescriptorProtoEi
libgrpc++_error_details.so.1:_ZN6google8protobuf17DescriptorBuilder23CrossLinkExtensionRangeEPNS0_10Descriptor14ExtensionRangeERKNS0_30DescriptorProto_ExtensionRangeE
libgrpc++_error_details.so.1:_ZN6google8protobuf17DescriptorBuilder24CheckEnumValueUniquenessERKNS0_19EnumDescriptorProtoEPKNS0_14EnumDescriptorE
libgrpc++_error_details.so.1:_ZN6google8protobuf17DescriptorBuilder24RecordPublicDependenciesEPKNS0_14FileDescriptorE
libgrpc++_error_details.so.1:_ZN6google8protobuf17DescriptorBuilder24ValidateEnumValueOptionsEPNS0_19EnumValueDescriptorERKNS0_24EnumValueDescriptorProtoE
libgrpc++_error_details.so.1:_ZN6google8protobuf17DescriptorBuilder25LookupSymbolNoPlaceholderERKNSt7__cxx1112basic_stringIcSt11char_traitsIcESaIcEEES9_NS1_11ResolveModeEb
libgrpc++_error_details.so.1:_ZN6google8protobuf17DescriptorBuilder26FindSymbolNotEnforcingDepsERKNSt7__cxx1112basic_stringIcSt11char_traitsIcESaIcEEEb
libgrpc++_error_details.so.1:_ZN6google8protobuf17DescriptorBuilder32FindSymbolNotEnforcingDepsHelperEPKNS0_14DescriptorPoolERKNSt7__cxx1112basic_stringIcSt11char_traitsIcESaIcEEEb
libgrpc++_error_details.so.1:_ZN6google8protobuf17DescriptorBuilder8AddErrorERKNSt7__cxx1112basic_stringIcSt11char_traitsIcESaIcEEERKNS0_7MessageENS0_14DescriptorPool14ErrorCollector13ErrorLocationEPKc
libgrpc++_error_details.so.1:_ZN6google8protobuf17DescriptorBuilder8AddErrorERKNSt7__cxx1112basic_stringIcSt11char_traitsIcESaIcEEERKNS0_7MessageENS0_14DescriptorPool14ErrorCollector13ErrorLocationES9_
libgrpc++_error_details.so.1:_ZN6google8protobuf17DescriptorBuilder9AddSymbolERKNSt7__cxx1112basic_stringIcSt11char_traitsIcESaIcEEEPKvS9_RKNS0_7MessageENS0_6SymbolE
libgrpc++_error_details.so.1:_ZN6google8protobuf17DescriptorBuilder9BuildEnumERKNS0_19EnumDescriptorProtoEPKNS0_10DescriptorEPNS0_14EnumDescriptorE
libgrpc++_error_details.so.1:_ZN6google8protobuf17DescriptorBuilder9BuildFileERKNS0_19FileDescriptorProtoE
libgrpc++_error_details.so.1:_ZN6google8protobuf17DescriptorBuilderC1EPKNS0_14DescriptorPoolEPNS2_6TablesEPNS2_14ErrorCollectorE
libgrpc++_error_details.so.1:_ZN6google8protobuf17DescriptorBuilderC2EPKNS0_14DescriptorPoolEPNS2_6TablesEPNS2_14ErrorCollectorE
libgrpc++_error_details.so.1:_ZN6google8protobuf17DescriptorBuilderD1Ev
libgrpc++_error_details.so.1:_ZN6google8protobuf17DescriptorBuilderD2Ev
libgrpc++_error_details.so.1:_ZN6google8protobuf17FastHex32ToBufferEjPc
libgrpc++_error_details.so.1:_ZN6google8protobuf17FastHex64ToBufferEmPc
libgrpc++_error_details.so.1:_ZN6google8protobuf17FastInt32ToBufferEiPc
libgrpc++_error_details.so.1:_ZN6google8protobuf17FastInt64ToBufferElPc
libgrpc++_error_details.so.1:_ZN6google8protobuf17FileDescriptorSet12InternalSwapEPS1_
libgrpc++_error_details.so.1:_ZN6google8protobuf17FileDescriptorSet15UnsafeArenaSwapEPS1_
libgrpc++_error_details.so.1:_ZN6google8protobuf17FileDescriptorSet16default_instanceEv
libgrpc++_error_details.so.1:_ZN6google8protobuf17FileDescriptorSet21InitAsDefaultInstanceEv
libgrpc++_error_details.so.1:_ZN6google8protobuf17FileDescriptorSet27MergePartialFromCodedStreamEPNS0_2io16CodedInputStreamE
libgrpc++_error_details.so.1:_ZN6google8protobuf17FileDescriptorSet4SwapEPS1_
libgrpc++_error_details.so.1:_ZN6google8protobuf17FileDescriptorSet5ClearEv
libgrpc++_error_details.so.1:_ZN6google8protobuf17FileDescriptorSet8CopyFromERKNS0_7MessageE
libgrpc++_error_details.so.1:_ZN6google8protobuf17FileDescriptorSet8CopyFromERKS1_
libgrpc++_error_details.so.1:_ZN6google8protobuf17FileDescriptorSet9ArenaDtorEPv
libgrpc++_error_details.so.1:_ZN6google8protobuf17FileDescriptorSet9MergeFromERKNS0_7MessageE
libgrpc++_error_details.so.1:_ZN6google8protobuf17FileDescriptorSet9MergeFromERKS1_
libgrpc++_error_details.so.1:_ZN6google8protobuf17FileDescriptorSetC1EPNS0_5ArenaE
libgrpc++_error_details.so.1:_ZN6google8protobuf17FileDescriptorSetC1ERKS1_
libgrpc++_error_details.so.1:_ZN6google8protobuf17FileDescriptorSetC1Ev
libgrpc++_error_details.so.1:_ZN6google8protobuf17FileDescriptorSetC2EPNS0_5ArenaE
libgrpc++_error_details.so.1:_ZN6google8protobuf17FileDescriptorSetC2ERKS1_
libgrpc++_error_details.so.1:_ZN6google8protobuf17FileDescriptorSetC2Ev
libgrpc++_error_details.so.1:_ZN6google8protobuf17FileDescriptorSetD0Ev
libgrpc++_error_details.so.1:_ZN6google8protobuf17FileDescriptorSetD1Ev
libgrpc++_error_details.so.1:_ZN6google8protobuf17FileDescriptorSetD2Ev
libgrpc++_error_details.so.1:_ZN6google8protobuf17GeneratedCodeInfo12InternalSwapEPS1_
libgrpc++_error_details.so.1:_ZN6google8protobuf17GeneratedCodeInfo15UnsafeArenaSwapEPS1_
libgrpc++_error_details.so.1:_ZN6google8protobuf17GeneratedCodeInfo16default_instanceEv
libgrpc++_error_details.so.1:_ZN6google8protobuf17GeneratedCodeInfo21InitAsDefaultInstanceEv
libgrpc++_error_details.so.1:_ZN6google8protobuf17GeneratedCodeInfo27MergePartialFromCodedStreamEPNS0_2io16CodedInputStreamE
libgrpc++_error_details.so.1:_ZN6google8protobuf17GeneratedCodeInfo4SwapEPS1_
libgrpc++_error_details.so.1:_ZN6google8protobuf17GeneratedCodeInfo5ClearEv
libgrpc++_error_details.so.1:_ZN6google8protobuf17GeneratedCodeInfo8CopyFromERKNS0_7MessageE
libgrpc++_error_details.so.1:_ZN6google8protobuf17GeneratedCodeInfo8CopyFromERKS1_
libgrpc++_error_details.so.1:_ZN6google8protobuf17GeneratedCodeInfo9ArenaDtorEPv
libgrpc++_error_details.so.1:_ZN6google8protobuf17GeneratedCodeInfo9MergeFromERKNS0_7MessageE
libgrpc++_error_details.so.1:_ZN6google8protobuf17GeneratedCodeInfo9MergeFromERKS1_
libgrpc++_error_details.so.1:_ZN6google8protobuf17GeneratedCodeInfoC1EPNS0_5ArenaE
libgrpc++_error_details.so.1:_ZN6google8protobuf17GeneratedCodeInfoC1ERKS1_
libgrpc++_error_details.so.1:_ZN6google8protobuf17GeneratedCodeInfoC1Ev
libgrpc++_error_details.so.1:_ZN6google8protobuf17GeneratedCodeInfoC2EPNS0_5ArenaE
libgrpc++_error_details.so.1:_ZN6google8protobuf17GeneratedCodeInfoC2ERKS1_
libgrpc++_error_details.so.1:_ZN6google8protobuf17GeneratedCodeInfoC2Ev
libgrpc++_error_details.so.1:_ZN6google8protobuf17GeneratedCodeInfoD0Ev
libgrpc++_error_details.so.1:_ZN6google8protobuf17GeneratedCodeInfoD1Ev
libgrpc++_error_details.so.1:_ZN6google8protobuf17GeneratedCodeInfoD2Ev
libgrpc++_error_details.so.1:_ZN6google8protobuf17ReplaceCharactersEPNSt7__cxx1112basic_stringIcSt11char_traitsIcESaIcEEEPKcc
libgrpc++_error_details.so.1:_ZN6google8protobuf18DescriptorDatabase19FindAllMessageNamesEPSt6vectorINSt7__cxx1112basic_stringIcSt11char_traitsIcESaIcEEESaIS8_EE
libgrpc++_error_details.so.1:_ZN6google8protobuf18DescriptorDatabase19FindAllPackageNamesEPSt6vectorINSt7__cxx1112basic_stringIcSt11char_traitsIcESaIcEEESaIS8_EE
libgrpc++_error_details.so.1:_ZN6google8protobuf18DescriptorDatabaseD0Ev
libgrpc++_error_details.so.1:_ZN6google8protobuf18DescriptorDatabaseD1Ev
libgrpc++_error_details.so.1:_ZN6google8protobuf18DescriptorDatabaseD2Ev
libgrpc++_error_details.so.1:_ZN6google8protobuf18StringPrintfVectorEPKcRKSt6vectorINSt7__cxx1112basic_stringIcSt11char_traitsIcESaIcEEESaIS9_EE
libgrpc++_error_details.so.1:_ZN6google8protobuf19EnumDescriptorProto12InternalSwapEPS1_
libgrpc++_error_details.so.1:_ZN6google8protobuf19EnumDescriptorProto13HasBitSetters7optionsEPKS1_
libgrpc++_error_details.so.1:_ZN6google8protobuf19EnumDescriptorProto15UnsafeArenaSwapEPS1_
libgrpc++_error_details.so.1:_ZN6google8protobuf19EnumDescriptorProto16default_instanceEv
libgrpc++_error_details.so.1:_ZN6google8protobuf19EnumDescriptorProto21InitAsDefaultInstanceEv
libgrpc++_error_details.so.1:_ZN6google8protobuf19EnumDescriptorProto27MergePartialFromCodedStreamEPNS0_2io16CodedInputStreamE
libgrpc++_error_details.so.1:_ZN6google8protobuf19EnumDescriptorProto34unsafe_arena_set_allocated_optionsEPNS0_11EnumOptionsE
libgrpc++_error_details.so.1:_ZN6google8protobuf19EnumDescriptorProto4SwapEPS1_
libgrpc++_error_details.so.1:_ZN6google8protobuf19EnumDescriptorProto5ClearEv
libgrpc++_error_details.so.1:_ZN6google8protobuf19EnumDescriptorProto8CopyFromERKNS0_7MessageE
libgrpc++_error_details.so.1:_ZN6google8protobuf19EnumDescriptorProto8CopyFromERKS1_
libgrpc++_error_details.so.1:_ZN6google8protobuf19EnumDescriptorProto9ArenaDtorEPv
libgrpc++_error_details.so.1:_ZN6google8protobuf19EnumDescriptorProto9MergeFromERKNS0_7MessageE
libgrpc++_error_details.so.1:_ZN6google8protobuf19EnumDescriptorProto9MergeFromERKS1_
libgrpc++_error_details.so.1:_ZN6google8protobuf19EnumDescriptorProtoC1EPNS0_5ArenaE
libgrpc++_error_details.so.1:_ZN6google8protobuf19EnumDescriptorProtoC1ERKS1_
libgrpc++_error_details.so.1:_ZN6google8protobuf19EnumDescriptorProtoC1Ev
libgrpc++_error_details.so.1:_ZN6google8protobuf19EnumDescriptorProtoC2EPNS0_5ArenaE
libgrpc++_error_details.so.1:_ZN6google8protobuf19EnumDescriptorProtoC2ERKS1_
libgrpc++_error_details.so.1:_ZN6google8protobuf19EnumDescriptorProtoC2Ev
libgrpc++_error_details.so.1:_ZN6google8protobuf19EnumDescriptorProtoD0Ev
libgrpc++_error_details.so.1:_ZN6google8protobuf19EnumDescriptorProtoD1Ev
libgrpc++_error_details.so.1:_ZN6google8protobuf19EnumDescriptorProtoD2Ev
libgrpc++_error_details.so.1:_ZN6google8protobuf19FileDescriptorProto12InternalSwapEPS1_
libgrpc++_error_details.so.1:_ZN6google8protobuf19FileDescriptorProto13HasBitSetters16source_code_infoEPKS1_
libgrpc++_error_details.so.1:_ZN6google8protobuf19FileDescriptorProto13HasBitSetters7optionsEPKS1_
libgrpc++_error_details.so.1:_ZN6google8protobuf19FileDescriptorProto15UnsafeArenaSwapEPS1_
libgrpc++_error_details.so.1:_ZN6google8protobuf19FileDescriptorProto16default_instanceEv
libgrpc++_error_details.so.1:_ZN6google8protobuf19FileDescriptorProto21InitAsDefaultInstanceEv
libgrpc++_error_details.so.1:_ZN6google8protobuf19FileDescriptorProto27MergePartialFromCodedStreamEPNS0_2io16CodedInputStreamE
libgrpc++_error_details.so.1:_ZN6google8protobuf19FileDescriptorProto34unsafe_arena_set_allocated_optionsEPNS0_11FileOptionsE
libgrpc++_error_details.so.1:_ZN6google8protobuf19FileDescriptorProto43unsafe_arena_set_allocated_source_code_infoEPNS0_14SourceCodeInfoE
libgrpc++_error_details.so.1:_ZN6google8protobuf19FileDescriptorProto4SwapEPS1_
libgrpc++_error_details.so.1:_ZN6google8protobuf19FileDescriptorProto5ClearEv
libgrpc++_error_details.so.1:_ZN6google8protobuf19FileDescriptorProto8CopyFromERKNS0_7MessageE
libgrpc++_error_details.so.1:_ZN6google8protobuf19FileDescriptorProto8CopyFromERKS1_
libgrpc++_error_details.so.1:_ZN6google8protobuf19FileDescriptorProto9ArenaDtorEPv
libgrpc++_error_details.so.1:_ZN6google8protobuf19FileDescriptorProto9MergeFromERKNS0_7MessageE
libgrpc++_error_details.so.1:_ZN6google8protobuf19FileDescriptorProto9MergeFromERKS1_
libgrpc++_error_details.so.1:_ZN6google8protobuf19FileDescriptorProtoC1EPNS0_5ArenaE
libgrpc++_error_details.so.1:_ZN6google8protobuf19FileDescriptorProtoC1ERKS1_
libgrpc++_error_details.so.1:_ZN6google8protobuf19FileDescriptorProtoC1Ev
libgrpc++_error_details.so.1:_ZN6google8protobuf19FileDescriptorProtoC2EPNS0_5ArenaE
libgrpc++_error_details.so.1:_ZN6google8protobuf19FileDescriptorProtoC2ERKS1_
libgrpc++_error_details.so.1:_ZN6google8protobuf19FileDescriptorProtoC2Ev
libgrpc++_error_details.so.1:_ZN6google8protobuf19FileDescriptorProtoD0Ev
libgrpc++_error_details.so.1:_ZN6google8protobuf19FileDescriptorProtoD1Ev
libgrpc++_error_details.so.1:_ZN6google8protobuf19FileDescriptorProtoD2Ev
libgrpc++_error_details.so.1:_ZN6google8protobuf19UninterpretedOption12InternalSwapEPS1_
libgrpc++_error_details.so.1:_ZN6google8protobuf19UninterpretedOption15UnsafeArenaSwapEPS1_
libgrpc++_error_details.so.1:_ZN6google8protobuf19UninterpretedOption16default_instanceEv
libgrpc++_error_details.so.1:_ZN6google8protobuf19UninterpretedOption21InitAsDefaultInstanceEv
libgrpc++_error_details.so.1:_ZN6google8protobuf19UninterpretedOption27MergePartialFromCodedStreamEPNS0_2io16CodedInputStreamE
libgrpc++_error_details.so.1:_ZN6google8protobuf19UninterpretedOption4SwapEPS1_
libgrpc++_error_details.so.1:_ZN6google8protobuf19UninterpretedOption5ClearEv
libgrpc++_error_details.so.1:_ZN6google8protobuf19UninterpretedOption8CopyFromERKNS0_7MessageE
libgrpc++_error_details.so.1:_ZN6google8protobuf19UninterpretedOption8CopyFromERKS1_
libgrpc++_error_details.so.1:_ZN6google8protobuf19UninterpretedOption9ArenaDtorEPv
libgrpc++_error_details.so.1:_ZN6google8protobuf19UninterpretedOption9MergeFromERKNS0_7MessageE
libgrpc++_error_details.so.1:_ZN6google8protobuf19UninterpretedOption9MergeFromERKS1_
libgrpc++_error_details.so.1:_ZN6google8protobuf19UninterpretedOptionC1EPNS0_5ArenaE
libgrpc++_error_details.so.1:_ZN6google8protobuf19UninterpretedOptionC1ERKS1_
libgrpc++_error_details.so.1:_ZN6google8protobuf19UninterpretedOptionC1Ev
libgrpc++_error_details.so.1:_ZN6google8protobuf19UninterpretedOptionC2EPNS0_5ArenaE
libgrpc++_error_details.so.1:_ZN6google8protobuf19UninterpretedOptionC2ERKS1_
libgrpc++_error_details.so.1:_ZN6google8protobuf19UninterpretedOptionC2Ev
libgrpc++_error_details.so.1:_ZN6google8protobuf19UninterpretedOptionD0Ev
libgrpc++_error_details.so.1:_ZN6google8protobuf19UninterpretedOptionD1Ev
libgrpc++_error_details.so.1:_ZN6google8protobuf19UninterpretedOptionD2Ev
libgrpc++_error_details.so.1:_ZN6google8protobuf19WebSafeBase64EscapeENS0_11StringPieceEPNSt7__cxx1112basic_stringIcSt11char_traitsIcESaIcEEE
libgrpc++_error_details.so.1:_ZN6google8protobuf19WebSafeBase64EscapeEPKhiPNSt7__cxx1112basic_stringIcSt11char_traitsIcESaIcEEEb
libgrpc++_error_details.so.1:_ZN6google8protobuf19WebSafeBase64EscapeEPKhiPcib
libgrpc++_error_details.so.1:_ZN6google8protobuf20Base64EscapeInternalEPKhiPNSt7__cxx1112basic_stringIcSt11char_traitsIcESaIcEEEbPKc
libgrpc++_error_details.so.1:_ZN6google8protobuf20Base64EscapeInternalEPKhiPciPKcb
libgrpc++_error_details.so.1:_ZN6google8protobuf20FieldDescriptorProto12InternalSwapEPS1_
libgrpc++_error_details.so.1:_ZN6google8protobuf20FieldDescriptorProto13HasBitSetters7optionsEPKS1_
libgrpc++_error_details.so.1:_ZN6google8protobuf20FieldDescriptorProto15UnsafeArenaSwapEPS1_
libgrpc++_error_details.so.1:_ZN6google8protobuf20FieldDescriptorProto16default_instanceEv
libgrpc++_error_details.so.1:_ZN6google8protobuf20FieldDescriptorProto21InitAsDefaultInstanceEv
libgrpc++_error_details.so.1:_ZN6google8protobuf20FieldDescriptorProto27MergePartialFromCodedStreamEPNS0_2io16CodedInputStreamE
libgrpc++_error_details.so.1:_ZN6google8protobuf20FieldDescriptorProto34unsafe_arena_set_allocated_optionsEPNS0_12FieldOptionsE
libgrpc++_error_details.so.1:_ZN6google8protobuf20FieldDescriptorProto4SwapEPS1_
libgrpc++_error_details.so.1:_ZN6google8protobuf20FieldDescriptorProto5ClearEv
libgrpc++_error_details.so.1:_ZN6google8protobuf20FieldDescriptorProto8CopyFromERKNS0_7MessageE
libgrpc++_error_details.so.1:_ZN6google8protobuf20FieldDescriptorProto8CopyFromERKS1_
libgrpc++_error_details.so.1:_ZN6google8protobuf20FieldDescriptorProto9ArenaDtorEPv
libgrpc++_error_details.so.1:_ZN6google8protobuf20FieldDescriptorProto9MergeFromERKNS0_7MessageE
libgrpc++_error_details.so.1:_ZN6google8protobuf20FieldDescriptorProto9MergeFromERKS1_
libgrpc++_error_details.so.1:_ZN6google8protobuf20FieldDescriptorProtoC1EPNS0_5ArenaE
libgrpc++_error_details.so.1:_ZN6google8protobuf20FieldDescriptorProtoC1ERKS1_
libgrpc++_error_details.so.1:_ZN6google8protobuf20FieldDescriptorProtoC1Ev
libgrpc++_error_details.so.1:_ZN6google8protobuf20FieldDescriptorProtoC2EPNS0_5ArenaE
libgrpc++_error_details.so.1:_ZN6google8protobuf20FieldDescriptorProtoC2ERKS1_
libgrpc++_error_details.so.1:_ZN6google8protobuf20FieldDescriptorProtoC2Ev
libgrpc++_error_details.so.1:_ZN6google8protobuf20FieldDescriptorProtoD0Ev
libgrpc++_error_details.so.1:_ZN6google8protobuf20FieldDescriptorProtoD1Ev
libgrpc++_error_details.so.1:_ZN6google8protobuf20FieldDescriptorProtoD2Ev
libgrpc++_error_details.so.1:_ZN6google8protobuf20FileDescriptorTables14FinalizeTablesEv
libgrpc++_error_details.so.1:_ZN6google8protobuf20FileDescriptorTables16AddFieldByNumberEPKNS0_15FieldDescriptorE
libgrpc++_error_details.so.1:_ZN6google8protobuf20FileDescriptorTables19AddAliasUnderParentEPKvRKNSt7__cxx1112basic_stringIcSt11char_traitsIcESaIcEEENS0_6SymbolE
libgrpc++_error_details.so.1:_ZN6google8protobuf20FileDescriptorTables20AddEnumValueByNumberEPKNS0_19EnumValueDescriptorE
libgrpc++_error_details.so.1:_ZN6google8protobuf20FileDescriptorTables20BuildLocationsByPathEPSt4pairIPKS1_PKNS0_14SourceCodeInfoEE
libgrpc++_error_details.so.1:_ZN6google8protobuf20FileDescriptorTables23AddFieldByStylizedNamesEPKNS0_15FieldDescriptorE
libgrpc++_error_details.so.1:_ZN6google8protobuf20FileDescriptorTables36FieldsByCamelcaseNamesLazyInitStaticEPKS1_
libgrpc++_error_details.so.1:_ZN6google8protobuf20FileDescriptorTables36FieldsByLowercaseNamesLazyInitStaticEPKS1_
libgrpc++_error_details.so.1:_ZN6google8protobuf20FileDescriptorTablesC1Ev
libgrpc++_error_details.so.1:_ZN6google8protobuf20FileDescriptorTablesC2Ev
libgrpc++_error_details.so.1:_ZN6google8protobuf20FileDescriptorTablesD1Ev
libgrpc++_error_details.so.1:_ZN6google8protobuf20FileDescriptorTablesD2Ev
libgrpc++_error_details.so.1:_ZN6google8protobuf20OneofDescriptorProto12InternalSwapEPS1_
libgrpc++_error_details.so.1:_ZN6google8protobuf20OneofDescriptorProto13HasBitSetters7optionsEPKS1_
libgrpc++_error_details.so.1:_ZN6google8protobuf20OneofDescriptorProto15UnsafeArenaSwapEPS1_
libgrpc++_error_details.so.1:_ZN6google8protobuf20OneofDescriptorProto16default_instanceEv
libgrpc++_error_details.so.1:_ZN6google8protobuf20OneofDescriptorProto21InitAsDefaultInstanceEv
libgrpc++_error_details.so.1:_ZN6google8protobuf20OneofDescriptorProto27MergePartialFromCodedStreamEPNS0_2io16CodedInputStreamE
libgrpc++_error_details.so.1:_ZN6google8protobuf20OneofDescriptorProto34unsafe_arena_set_allocated_optionsEPNS0_12OneofOptionsE
libgrpc++_error_details.so.1:_ZN6google8protobuf20OneofDescriptorProto4SwapEPS1_
libgrpc++_error_details.so.1:_ZN6google8protobuf20OneofDescriptorProto5ClearEv
libgrpc++_error_details.so.1:_ZN6google8protobuf20OneofDescriptorProto8CopyFromERKNS0_7MessageE
libgrpc++_error_details.so.1:_ZN6google8protobuf20OneofDescriptorProto8CopyFromERKS1_
libgrpc++_error_details.so.1:_ZN6google8protobuf20OneofDescriptorProto9ArenaDtorEPv
libgrpc++_error_details.so.1:_ZN6google8protobuf20OneofDescriptorProto9MergeFromERKNS0_7MessageE
libgrpc++_error_details.so.1:_ZN6google8protobuf20OneofDescriptorProto9MergeFromERKS1_
libgrpc++_error_details.so.1:_ZN6google8protobuf20OneofDescriptorProtoC1EPNS0_5ArenaE
libgrpc++_error_details.so.1:_ZN6google8protobuf20OneofDescriptorProtoC1ERKS1_
libgrpc++_error_details.so.1:_ZN6google8protobuf20OneofDescriptorProtoC1Ev
libgrpc++_error_details.so.1:_ZN6google8protobuf20OneofDescriptorProtoC2EPNS0_5ArenaE
libgrpc++_error_details.so.1:_ZN6google8protobuf20OneofDescriptorProtoC2ERKS1_
libgrpc++_error_details.so.1:_ZN6google8protobuf20OneofDescriptorProtoC2Ev
libgrpc++_error_details.so.1:_ZN6google8protobuf20OneofDescriptorProtoD0Ev
libgrpc++_error_details.so.1:_ZN6google8protobuf20OneofDescriptorProtoD1Ev
libgrpc++_error_details.so.1:_ZN6google8protobuf20OneofDescriptorProtoD2Ev
libgrpc++_error_details.so.1:_ZN6google8protobuf21DynamicMessageFactory12GetPrototypeEPKNS0_10DescriptorE
libgrpc++_error_details.so.1:_ZN6google8protobuf21DynamicMessageFactory18GetPrototypeNoLockEPKNS0_10DescriptorE
libgrpc++_error_details.so.1:_ZN6google8protobuf21DynamicMessageFactory26DeleteDefaultOneofInstanceEPKNS0_10DescriptorEPKjPKv
libgrpc++_error_details.so.1:_ZN6google8protobuf21DynamicMessageFactory29ConstructDefaultOneofInstanceEPKNS0_10DescriptorEPKjPv
libgrpc++_error_details.so.1:_ZN6google8protobuf21DynamicMessageFactoryC1EPKNS0_14DescriptorPoolE
libgrpc++_error_details.so.1:_ZN6google8protobuf21DynamicMessageFactoryC1Ev
libgrpc++_error_details.so.1:_ZN6google8protobuf21DynamicMessageFactoryC2EPKNS0_14DescriptorPoolE
libgrpc++_error_details.so.1:_ZN6google8protobuf21DynamicMessageFactoryC2Ev
libgrpc++_error_details.so.1:_ZN6google8protobuf21DynamicMessageFactoryD0Ev
libgrpc++_error_details.so.1:_ZN6google8protobuf21DynamicMessageFactoryD1Ev
libgrpc++_error_details.so.1:_ZN6google8protobuf21DynamicMessageFactoryD2Ev
libgrpc++_error_details.so.1:_ZN6google8protobuf21ExtensionRangeOptions12InternalSwapEPS1_
libgrpc++_error_details.so.1:_ZN6google8protobuf21ExtensionRangeOptions15UnsafeArenaSwapEPS1_
libgrpc++_error_details.so.1:_ZN6google8protobuf21ExtensionRangeOptions16default_instanceEv
libgrpc++_error_details.so.1:_ZN6google8protobuf21ExtensionRangeOptions21InitAsDefaultInstanceEv
libgrpc++_error_details.so.1:_ZN6google8protobuf21ExtensionRangeOptions27MergePartialFromCodedStreamEPNS0_2io16CodedInputStreamE
libgrpc++_error_details.so.1:_ZN6google8protobuf21ExtensionRangeOptions4SwapEPS1_
libgrpc++_error_details.so.1:_ZN6google8protobuf21ExtensionRangeOptions5ClearEv
libgrpc++_error_details.so.1:_ZN6google8protobuf21ExtensionRangeOptions8CopyFromERKNS0_7MessageE
libgrpc++_error_details.so.1:_ZN6google8protobuf21ExtensionRangeOptions8CopyFromERKS1_
libgrpc++_error_details.so.1:_ZN6google8protobuf21ExtensionRangeOptions9ArenaDtorEPv
libgrpc++_error_details.so.1:_ZN6google8protobuf21ExtensionRangeOptions9MergeFromERKNS0_7MessageE
libgrpc++_error_details.so.1:_ZN6google8protobuf21ExtensionRangeOptions9MergeFromERKS1_
libgrpc++_error_details.so.1:_ZN6google8protobuf21ExtensionRangeOptionsC1EPNS0_5ArenaE
libgrpc++_error_details.so.1:_ZN6google8protobuf21ExtensionRangeOptionsC1ERKS1_
libgrpc++_error_details.so.1:_ZN6google8protobuf21ExtensionRangeOptionsC1Ev
libgrpc++_error_details.so.1:_ZN6google8protobuf21ExtensionRangeOptionsC2EPNS0_5ArenaE
libgrpc++_error_details.so.1:_ZN6google8protobuf21ExtensionRangeOptionsC2ERKS1_
libgrpc++_error_details.so.1:_ZN6google8protobuf21ExtensionRangeOptionsC2Ev
libgrpc++_error_details.so.1:_ZN6google8protobuf21ExtensionRangeOptionsD0Ev
libgrpc++_error_details.so.1:_ZN6google8protobuf21ExtensionRangeOptionsD1Ev
libgrpc++_error_details.so.1:_ZN6google8protobuf21ExtensionRangeOptionsD2Ev
libgrpc++_error_details.so.1:_ZN6google8protobuf21FastInt32ToBufferLeftEiPc
libgrpc++_error_details.so.1:_ZN6google8protobuf21FastInt64ToBufferLeftElPc
libgrpc++_error_details.so.1:_ZN6google8protobuf21MethodDescriptorProto12InternalSwapEPS1_
libgrpc++_error_details.so.1:_ZN6google8protobuf21MethodDescriptorProto13HasBitSetters7optionsEPKS1_
libgrpc++_error_details.so.1:_ZN6google8protobuf21MethodDescriptorProto15UnsafeArenaSwapEPS1_
libgrpc++_error_details.so.1:_ZN6google8protobuf21MethodDescriptorProto16default_instanceEv
libgrpc++_error_details.so.1:_ZN6google8protobuf21MethodDescriptorProto21InitAsDefaultInstanceEv
libgrpc++_error_details.so.1:_ZN6google8protobuf21MethodDescriptorProto27MergePartialFromCodedStreamEPNS0_2io16CodedInputStreamE
libgrpc++_error_details.so.1:_ZN6google8protobuf21MethodDescriptorProto34unsafe_arena_set_allocated_optionsEPNS0_13MethodOptionsE
libgrpc++_error_details.so.1:_ZN6google8protobuf21MethodDescriptorProto4SwapEPS1_
libgrpc++_error_details.so.1:_ZN6google8protobuf21MethodDescriptorProto5ClearEv
libgrpc++_error_details.so.1:_ZN6google8protobuf21MethodDescriptorProto8CopyFromERKNS0_7MessageE
libgrpc++_error_details.so.1:_ZN6google8protobuf21MethodDescriptorProto8CopyFromERKS1_
libgrpc++_error_details.so.1:_ZN6google8protobuf21MethodDescriptorProto9ArenaDtorEPv
libgrpc++_error_details.so.1:_ZN6google8protobuf21MethodDescriptorProto9MergeFromERKNS0_7MessageE
libgrpc++_error_details.so.1:_ZN6google8protobuf21MethodDescriptorProto9MergeFromERKS1_
libgrpc++_error_details.so.1:_ZN6google8protobuf21MethodDescriptorProtoC1EPNS0_5ArenaE
libgrpc++_error_details.so.1:_ZN6google8protobuf21MethodDescriptorProtoC1ERKS1_
libgrpc++_error_details.so.1:_ZN6google8protobuf21MethodDescriptorProtoC1Ev
libgrpc++_error_details.so.1:_ZN6google8protobuf21MethodDescriptorProtoC2EPNS0_5ArenaE
libgrpc++_error_details.so.1:_ZN6google8protobuf21MethodDescriptorProtoC2ERKS1_
libgrpc++_error_details.so.1:_ZN6google8protobuf21MethodDescriptorProtoC2Ev
libgrpc++_error_details.so.1:_ZN6google8protobuf21MethodDescriptorProtoD0Ev
libgrpc++_error_details.so.1:_ZN6google8protobuf21MethodDescriptorProtoD1Ev
libgrpc++_error_details.so.1:_ZN6google8protobuf21MethodDescriptorProtoD2Ev
libgrpc++_error_details.so.1:_ZN6google8protobuf21SplitStringAllowEmptyERKNSt7__cxx1112basic_stringIcSt11char_traitsIcESaIcEEEPKcPSt6vectorIS6_SaIS6_EE
libgrpc++_error_details.so.1:_ZN6google8protobuf21UnescapeCEscapeStringERKNSt7__cxx1112basic_stringIcSt11char_traitsIcESaIcEEE
libgrpc++_error_details.so.1:_ZN6google8protobuf21UnescapeCEscapeStringERKNSt7__cxx1112basic_stringIcSt11char_traitsIcESaIcEEEPS6_
libgrpc++_error_details.so.1:_ZN6google8protobuf21UnescapeCEscapeStringERKNSt7__cxx1112basic_stringIcSt11char_traitsIcESaIcEEEPS6_PSt6vectorIS6_SaIS6_EE
libgrpc++_error_details.so.1:_ZN6google8protobuf21WebSafeBase64UnescapeENS0_11StringPieceEPNSt7__cxx1112basic_stringIcSt11char_traitsIcESaIcEEE
libgrpc++_error_details.so.1:_ZN6google8protobuf21WebSafeBase64UnescapeEPKciPci
libgrpc++_error_details.so.1:_ZN6google8protobuf22Base64UnescapeInternalEPKciPciPKa
libgrpc++_error_details.so.1:_ZN6google8protobuf22CleanStringLineEndingsEPNSt7__cxx1112basic_stringIcSt11char_traitsIcESaIcEEEb
libgrpc++_error_details.so.1:_ZN6google8protobuf22CleanStringLineEndingsERKNSt7__cxx1112basic_stringIcSt11char_traitsIcESaIcEEEPS6_b
libgrpc++_error_details.so.1:_ZN6google8protobuf22DescriptorPoolDatabase14FindFileByNameERKNSt7__cxx1112basic_stringIcSt11char_traitsIcESaIcEEEPNS0_19FileDescriptorProtoE
libgrpc++_error_details.so.1:_ZN6google8protobuf22DescriptorPoolDatabase23FindAllExtensionNumbersERKNSt7__cxx1112basic_stringIcSt11char_traitsIcESaIcEEEPSt6vectorIiSaIiEE
libgrpc++_error_details.so.1:_ZN6google8protobuf22DescriptorPoolDatabase24FindFileContainingSymbolERKNSt7__cxx1112basic_stringIcSt11char_traitsIcESaIcEEEPNS0_19FileDescriptorProtoE
libgrpc++_error_details.so.1:_ZN6google8protobuf22DescriptorPoolDatabase27FindFileContainingExtensionERKNSt7__cxx1112basic_stringIcSt11char_traitsIcESaIcEEEiPNS0_19FileDescriptorProtoE
libgrpc++_error_details.so.1:_ZN6google8protobuf22DescriptorPoolDatabaseC1ERKNS0_14DescriptorPoolE
libgrpc++_error_details.so.1:_ZN6google8protobuf22DescriptorPoolDatabaseC2ERKNS0_14DescriptorPoolE
libgrpc++_error_details.so.1:_ZN6google8protobuf22DescriptorPoolDatabaseD0Ev
libgrpc++_error_details.so.1:_ZN6google8protobuf22DescriptorPoolDatabaseD1Ev
libgrpc++_error_details.so.1:_ZN6google8protobuf22DescriptorPoolDatabaseD2Ev
libgrpc++_error_details.so.1:_ZN6google8protobuf22FastUInt32ToBufferLeftEjPc
libgrpc++_error_details.so.1:_ZN6google8protobuf22FastUInt64ToBufferLeftEmPc
libgrpc++_error_details.so.1:_ZN6google8protobuf22GlobalReplaceSubstringERKNSt7__cxx1112basic_stringIcSt11char_traitsIcESaIcEEES8_PS6_
libgrpc++_error_details.so.1:_ZN6google8protobuf22ServiceDescriptorProto12InternalSwapEPS1_
libgrpc++_error_details.so.1:_ZN6google8protobuf22ServiceDescriptorProto13HasBitSetters7optionsEPKS1_
libgrpc++_error_details.so.1:_ZN6google8protobuf22ServiceDescriptorProto15UnsafeArenaSwapEPS1_
libgrpc++_error_details.so.1:_ZN6google8protobuf22ServiceDescriptorProto16default_instanceEv
libgrpc++_error_details.so.1:_ZN6google8protobuf22ServiceDescriptorProto21InitAsDefaultInstanceEv
libgrpc++_error_details.so.1:_ZN6google8protobuf22ServiceDescriptorProto27MergePartialFromCodedStreamEPNS0_2io16CodedInputStreamE
libgrpc++_error_details.so.1:_ZN6google8protobuf22ServiceDescriptorProto34unsafe_arena_set_allocated_optionsEPNS0_14ServiceOptionsE
libgrpc++_error_details.so.1:_ZN6google8protobuf22ServiceDescriptorProto4SwapEPS1_
libgrpc++_error_details.so.1:_ZN6google8protobuf22ServiceDescriptorProto5ClearEv
libgrpc++_error_details.so.1:_ZN6google8protobuf22ServiceDescriptorProto8CopyFromERKNS0_7MessageE
libgrpc++_error_details.so.1:_ZN6google8protobuf22ServiceDescriptorProto8CopyFromERKS1_
libgrpc++_error_details.so.1:_ZN6google8protobuf22ServiceDescriptorProto9ArenaDtorEPv
libgrpc++_error_details.so.1:_ZN6google8protobuf22ServiceDescriptorProto9MergeFromERKNS0_7MessageE
libgrpc++_error_details.so.1:_ZN6google8protobuf22ServiceDescriptorProto9MergeFromERKS1_
libgrpc++_error_details.so.1:_ZN6google8protobuf22ServiceDescriptorProtoC1EPNS0_5ArenaE
libgrpc++_error_details.so.1:_ZN6google8protobuf22ServiceDescriptorProtoC1ERKS1_
libgrpc++_error_details.so.1:_ZN6google8protobuf22ServiceDescriptorProtoC1Ev
libgrpc++_error_details.so.1:_ZN6google8protobuf22ServiceDescriptorProtoC2EPNS0_5ArenaE
libgrpc++_error_details.so.1:_ZN6google8protobuf22ServiceDescriptorProtoC2ERKS1_
libgrpc++_error_details.so.1:_ZN6google8protobuf22ServiceDescriptorProtoC2Ev
libgrpc++_error_details.so.1:_ZN6google8protobuf22ServiceDescriptorProtoD0Ev
libgrpc++_error_details.so.1:_ZN6google8protobuf22ServiceDescriptorProtoD1Ev
libgrpc++_error_details.so.1:_ZN6google8protobuf22ServiceDescriptorProtoD2Ev
libgrpc++_error_details.so.1:_ZN6google8protobuf23InternalFastHexToBufferEmPci
libgrpc++_error_details.so.1:_ZN6google8protobuf23ShutdownProtobufLibraryEv
libgrpc++_error_details.so.1:_ZN6google8protobuf23SourceCodeInfo_Location12InternalSwapEPS1_
libgrpc++_error_details.so.1:_ZN6google8protobuf23SourceCodeInfo_Location15UnsafeArenaSwapEPS1_
libgrpc++_error_details.so.1:_ZN6google8protobuf23SourceCodeInfo_Location16default_instanceEv
libgrpc++_error_details.so.1:_ZN6google8protobuf23SourceCodeInfo_Location21InitAsDefaultInstanceEv
libgrpc++_error_details.so.1:_ZN6google8protobuf23SourceCodeInfo_Location27MergePartialFromCodedStreamEPNS0_2io16CodedInputStreamE
libgrpc++_error_details.so.1:_ZN6google8protobuf23SourceCodeInfo_Location4SwapEPS1_
libgrpc++_error_details.so.1:_ZN6google8protobuf23SourceCodeInfo_Location5ClearEv
libgrpc++_error_details.so.1:_ZN6google8protobuf23SourceCodeInfo_Location8CopyFromERKNS0_7MessageE
libgrpc++_error_details.so.1:_ZN6google8protobuf23SourceCodeInfo_Location8CopyFromERKS1_
libgrpc++_error_details.so.1:_ZN6google8protobuf23SourceCodeInfo_Location9ArenaDtorEPv
libgrpc++_error_details.so.1:_ZN6google8protobuf23SourceCodeInfo_Location9MergeFromERKNS0_7MessageE
libgrpc++_error_details.so.1:_ZN6google8protobuf23SourceCodeInfo_Location9MergeFromERKS1_
libgrpc++_error_details.so.1:_ZN6google8protobuf23SourceCodeInfo_LocationC1EPNS0_5ArenaE
libgrpc++_error_details.so.1:_ZN6google8protobuf23SourceCodeInfo_LocationC1ERKS1_
libgrpc++_error_details.so.1:_ZN6google8protobuf23SourceCodeInfo_LocationC1Ev
libgrpc++_error_details.so.1:_ZN6google8protobuf23SourceCodeInfo_LocationC2EPNS0_5ArenaE
libgrpc++_error_details.so.1:_ZN6google8protobuf23SourceCodeInfo_LocationC2ERKS1_
libgrpc++_error_details.so.1:_ZN6google8protobuf23SourceCodeInfo_LocationC2Ev
libgrpc++_error_details.so.1:_ZN6google8protobuf23SourceCodeInfo_LocationD0Ev
libgrpc++_error_details.so.1:_ZN6google8protobuf23SourceCodeInfo_LocationD1Ev
libgrpc++_error_details.so.1:_ZN6google8protobuf23SourceCodeInfo_LocationD2Ev
libgrpc++_error_details.so.1:_ZN6google8protobuf23UTF8FirstLetterNumBytesEPKci
libgrpc++_error_details.so.1:_ZN6google8protobuf24EnumValueDescriptorProto12InternalSwapEPS1_
libgrpc++_error_details.so.1:_ZN6google8protobuf24EnumValueDescriptorProto13HasBitSetters7optionsEPKS1_
libgrpc++_error_details.so.1:_ZN6google8protobuf24EnumValueDescriptorProto15UnsafeArenaSwapEPS1_
libgrpc++_error_details.so.1:_ZN6google8protobuf24EnumValueDescriptorProto16default_instanceEv
libgrpc++_error_details.so.1:_ZN6google8protobuf24EnumValueDescriptorProto21InitAsDefaultInstanceEv
libgrpc++_error_details.so.1:_ZN6google8protobuf24EnumValueDescriptorProto27MergePartialFromCodedStreamEPNS0_2io16CodedInputStreamE
libgrpc++_error_details.so.1:_ZN6google8protobuf24EnumValueDescriptorProto34unsafe_arena_set_allocated_optionsEPNS0_16EnumValueOptionsE
libgrpc++_error_details.so.1:_ZN6google8protobuf24EnumValueDescriptorProto4SwapEPS1_
libgrpc++_error_details.so.1:_ZN6google8protobuf24EnumValueDescriptorProto5ClearEv
libgrpc++_error_details.so.1:_ZN6google8protobuf24EnumValueDescriptorProto8CopyFromERKNS0_7MessageE
libgrpc++_error_details.so.1:_ZN6google8protobuf24EnumValueDescriptorProto8CopyFromERKS1_
libgrpc++_error_details.so.1:_ZN6google8protobuf24EnumValueDescriptorProto9ArenaDtorEPv
libgrpc++_error_details.so.1:_ZN6google8protobuf24EnumValueDescriptorProto9MergeFromERKNS0_7MessageE
libgrpc++_error_details.so.1:_ZN6google8protobuf24EnumValueDescriptorProto9MergeFromERKS1_
libgrpc++_error_details.so.1:_ZN6google8protobuf24EnumValueDescriptorProtoC1EPNS0_5ArenaE
libgrpc++_error_details.so.1:_ZN6google8protobuf24EnumValueDescriptorProtoC1ERKS1_
libgrpc++_error_details.so.1:_ZN6google8protobuf24EnumValueDescriptorProtoC1Ev
libgrpc++_error_details.so.1:_ZN6google8protobuf24EnumValueDescriptorProtoC2EPNS0_5ArenaE
libgrpc++_error_details.so.1:_ZN6google8protobuf24EnumValueDescriptorProtoC2ERKS1_
libgrpc++_error_details.so.1:_ZN6google8protobuf24EnumValueDescriptorProtoC2Ev
libgrpc++_error_details.so.1:_ZN6google8protobuf24EnumValueDescriptorProtoD0Ev
libgrpc++_error_details.so.1:_ZN6google8protobuf24EnumValueDescriptorProtoD1Ev
libgrpc++_error_details.so.1:_ZN6google8protobuf24EnumValueDescriptorProtoD2Ev
libgrpc++_error_details.so.1:_ZN6google8protobuf24MergedDescriptorDatabase14FindFileByNameERKNSt7__cxx1112basic_stringIcSt11char_traitsIcESaIcEEEPNS0_19FileDescriptorProtoE
libgrpc++_error_details.so.1:_ZN6google8protobuf24MergedDescriptorDatabase23FindAllExtensionNumbersERKNSt7__cxx1112basic_stringIcSt11char_traitsIcESaIcEEEPSt6vectorIiSaIiEE
libgrpc++_error_details.so.1:_ZN6google8protobuf24MergedDescriptorDatabase24FindFileContainingSymbolERKNSt7__cxx1112basic_stringIcSt11char_traitsIcESaIcEEEPNS0_19FileDescriptorProtoE
libgrpc++_error_details.so.1:_ZN6google8protobuf24MergedDescriptorDatabase27FindFileContainingExtensionERKNSt7__cxx1112basic_stringIcSt11char_traitsIcESaIcEEEiPNS0_19FileDescriptorProtoE
libgrpc++_error_details.so.1:_ZN6google8protobuf24MergedDescriptorDatabaseC1EPNS0_18DescriptorDatabaseES3_
libgrpc++_error_details.so.1:_ZN6google8protobuf24MergedDescriptorDatabaseC1ERKSt6vectorIPNS0_18DescriptorDatabaseESaIS4_EE
libgrpc++_error_details.so.1:_ZN6google8protobuf24MergedDescriptorDatabaseC2EPNS0_18DescriptorDatabaseES3_
libgrpc++_error_details.so.1:_ZN6google8protobuf24MergedDescriptorDatabaseC2ERKSt6vectorIPNS0_18DescriptorDatabaseESaIS4_EE
libgrpc++_error_details.so.1:_ZN6google8protobuf24MergedDescriptorDatabaseD0Ev
libgrpc++_error_details.so.1:_ZN6google8protobuf24MergedDescriptorDatabaseD1Ev
libgrpc++_error_details.so.1:_ZN6google8protobuf24MergedDescriptorDatabaseD2Ev
libgrpc++_error_details.so.1:_ZN6google8protobuf24SimpleDescriptorDatabase14FindFileByNameERKNSt7__cxx1112basic_stringIcSt11char_traitsIcESaIcEEEPNS0_19FileDescriptorProtoE
libgrpc++_error_details.so.1:_ZN6google8protobuf24SimpleDescriptorDatabase16FindAllFileNamesEPSt6vectorINSt7__cxx1112basic_stringIcSt11char_traitsIcESaIcEEESaIS8_EE
libgrpc++_error_details.so.1:_ZN6google8protobuf24SimpleDescriptorDatabase23FindAllExtensionNumbersERKNSt7__cxx1112basic_stringIcSt11char_traitsIcESaIcEEEPSt6vectorIiSaIiEE
libgrpc++_error_details.so.1:_ZN6google8protobuf24SimpleDescriptorDatabase24FindFileContainingSymbolERKNSt7__cxx1112basic_stringIcSt11char_traitsIcESaIcEEEPNS0_19FileDescriptorProtoE
libgrpc++_error_details.so.1:_ZN6google8protobuf24SimpleDescriptorDatabase27FindFileContainingExtensionERKNSt7__cxx1112basic_stringIcSt11char_traitsIcESaIcEEEiPNS0_19FileDescriptorProtoE
libgrpc++_error_details.so.1:_ZN6google8protobuf24SimpleDescriptorDatabase3AddERKNS0_19FileDescriptorProtoE
libgrpc++_error_details.so.1:_ZN6google8protobuf24SimpleDescriptorDatabase9AddAndOwnEPKNS0_19FileDescriptorProtoE
libgrpc++_error_details.so.1:_ZN6google8protobuf24SimpleDescriptorDatabase9MaybeCopyEPKNS0_19FileDescriptorProtoEPS2_
libgrpc++_error_details.so.1:_ZN6google8protobuf24SimpleDescriptorDatabaseC1Ev
libgrpc++_error_details.so.1:_ZN6google8protobuf24SimpleDescriptorDatabaseC2Ev
libgrpc++_error_details.so.1:_ZN6google8protobuf24SimpleDescriptorDatabaseD0Ev
libgrpc++_error_details.so.1:_ZN6google8protobuf24SimpleDescriptorDatabaseD1Ev
libgrpc++_error_details.so.1:_ZN6google8protobuf24SimpleDescriptorDatabaseD2Ev
libgrpc++_error_details.so.1:_ZN6google8protobuf24UnescapeCEscapeSequencesEPKcPc
libgrpc++_error_details.so.1:_ZN6google8protobuf24UnescapeCEscapeSequencesEPKcPcPSt6vectorINSt7__cxx1112basic_stringIcSt11char_traitsIcESaIcEEESaISA_EE
libgrpc++_error_details.so.1:_ZN6google8protobuf25CalculateBase64EscapedLenEi
libgrpc++_error_details.so.1:_ZN6google8protobuf25CalculateBase64EscapedLenEib
libgrpc++_error_details.so.1:_ZN6google8protobuf25EncodedDescriptorDatabase10MaybeParseESt4pairIPKviEPNS0_19FileDescriptorProtoE
libgrpc++_error_details.so.1:_ZN6google8protobuf25EncodedDescriptorDatabase14FindFileByNameERKNSt7__cxx1112basic_stringIcSt11char_traitsIcESaIcEEEPNS0_19FileDescriptorProtoE
libgrpc++_error_details.so.1:_ZN6google8protobuf25EncodedDescriptorDatabase23FindAllExtensionNumbersERKNSt7__cxx1112basic_stringIcSt11char_traitsIcESaIcEEEPSt6vectorIiSaIiEE
libgrpc++_error_details.so.1:_ZN6google8protobuf25EncodedDescriptorDatabase24FindFileContainingSymbolERKNSt7__cxx1112basic_stringIcSt11char_traitsIcESaIcEEEPNS0_19FileDescriptorProtoE
libgrpc++_error_details.so.1:_ZN6google8protobuf25EncodedDescriptorDatabase27FindFileContainingExtensionERKNSt7__cxx1112basic_stringIcSt11char_traitsIcESaIcEEEiPNS0_19FileDescriptorProtoE
libgrpc++_error_details.so.1:_ZN6google8protobuf25EncodedDescriptorDatabase30FindNameOfFileContainingSymbolERKNSt7__cxx1112basic_stringIcSt11char_traitsIcESaIcEEEPS7_
libgrpc++_error_details.so.1:_ZN6google8protobuf25EncodedDescriptorDatabase3AddEPKvi
libgrpc++_error_details.so.1:_ZN6google8protobuf25EncodedDescriptorDatabase7AddCopyEPKvi
libgrpc++_error_details.so.1:_ZN6google8protobuf25EncodedDescriptorDatabaseC1Ev
libgrpc++_error_details.so.1:_ZN6google8protobuf25EncodedDescriptorDatabaseC2Ev
libgrpc++_error_details.so.1:_ZN6google8protobuf25EncodedDescriptorDatabaseD0Ev
libgrpc++_error_details.so.1:_ZN6google8protobuf25EncodedDescriptorDatabaseD1Ev
libgrpc++_error_details.so.1:_ZN6google8protobuf25EncodedDescriptorDatabaseD2Ev
libgrpc++_error_details.so.1:_ZN6google8protobuf26FieldOptions_CType_IsValidEi
libgrpc++_error_details.so.1:_ZN6google8protobuf27FieldOptions_JSType_IsValidEi
libgrpc++_error_details.so.1:_ZN6google8protobuf28GeneratedCodeInfo_Annotation12InternalSwapEPS1_
libgrpc++_error_details.so.1:_ZN6google8protobuf28GeneratedCodeInfo_Annotation15UnsafeArenaSwapEPS1_
libgrpc++_error_details.so.1:_ZN6google8protobuf28GeneratedCodeInfo_Annotation16default_instanceEv
libgrpc++_error_details.so.1:_ZN6google8protobuf28GeneratedCodeInfo_Annotation21InitAsDefaultInstanceEv
libgrpc++_error_details.so.1:_ZN6google8protobuf28GeneratedCodeInfo_Annotation27MergePartialFromCodedStreamEPNS0_2io16CodedInputStreamE
libgrpc++_error_details.so.1:_ZN6google8protobuf28GeneratedCodeInfo_Annotation4SwapEPS1_
libgrpc++_error_details.so.1:_ZN6google8protobuf28GeneratedCodeInfo_Annotation5ClearEv
libgrpc++_error_details.so.1:_ZN6google8protobuf28GeneratedCodeInfo_Annotation8CopyFromERKNS0_7MessageE
libgrpc++_error_details.so.1:_ZN6google8protobuf28GeneratedCodeInfo_Annotation8CopyFromERKS1_
libgrpc++_error_details.so.1:_ZN6google8protobuf28GeneratedCodeInfo_Annotation9ArenaDtorEPv
libgrpc++_error_details.so.1:_ZN6google8protobuf28GeneratedCodeInfo_Annotation9MergeFromERKNS0_7MessageE
libgrpc++_error_details.so.1:_ZN6google8protobuf28GeneratedCodeInfo_Annotation9MergeFromERKS1_
libgrpc++_error_details.so.1:_ZN6google8protobuf28GeneratedCodeInfo_AnnotationC1EPNS0_5ArenaE
libgrpc++_error_details.so.1:_ZN6google8protobuf28GeneratedCodeInfo_AnnotationC1ERKS1_
libgrpc++_error_details.so.1:_ZN6google8protobuf28GeneratedCodeInfo_AnnotationC1Ev
libgrpc++_error_details.so.1:_ZN6google8protobuf28GeneratedCodeInfo_AnnotationC2EPNS0_5ArenaE
libgrpc++_error_details.so.1:_ZN6google8protobuf28GeneratedCodeInfo_AnnotationC2ERKS1_
libgrpc++_error_details.so.1:_ZN6google8protobuf28GeneratedCodeInfo_AnnotationC2Ev
libgrpc++_error_details.so.1:_ZN6google8protobuf28GeneratedCodeInfo_AnnotationD0Ev
libgrpc++_error_details.so.1:_ZN6google8protobuf28GeneratedCodeInfo_AnnotationD1Ev
libgrpc++_error_details.so.1:_ZN6google8protobuf28GeneratedCodeInfo_AnnotationD2Ev
libgrpc++_error_details.so.1:_ZN6google8protobuf28UninterpretedOption_NamePart12InternalSwapEPS1_
libgrpc++_error_details.so.1:_ZN6google8protobuf28UninterpretedOption_NamePart15UnsafeArenaSwapEPS1_
libgrpc++_error_details.so.1:_ZN6google8protobuf28UninterpretedOption_NamePart16default_instanceEv
libgrpc++_error_details.so.1:_ZN6google8protobuf28UninterpretedOption_NamePart21InitAsDefaultInstanceEv
libgrpc++_error_details.so.1:_ZN6google8protobuf28UninterpretedOption_NamePart27MergePartialFromCodedStreamEPNS0_2io16CodedInputStreamE
libgrpc++_error_details.so.1:_ZN6google8protobuf28UninterpretedOption_NamePart4SwapEPS1_
libgrpc++_error_details.so.1:_ZN6google8protobuf28UninterpretedOption_NamePart5ClearEv
libgrpc++_error_details.so.1:_ZN6google8protobuf28UninterpretedOption_NamePart8CopyFromERKNS0_7MessageE
libgrpc++_error_details.so.1:_ZN6google8protobuf28UninterpretedOption_NamePart8CopyFromERKS1_
libgrpc++_error_details.so.1:_ZN6google8protobuf28UninterpretedOption_NamePart9ArenaDtorEPv
libgrpc++_error_details.so.1:_ZN6google8protobuf28UninterpretedOption_NamePart9MergeFromERKNS0_7MessageE
libgrpc++_error_details.so.1:_ZN6google8protobuf28UninterpretedOption_NamePart9MergeFromERKS1_
libgrpc++_error_details.so.1:_ZN6google8protobuf28UninterpretedOption_NamePartC1EPNS0_5ArenaE
libgrpc++_error_details.so.1:_ZN6google8protobuf28UninterpretedOption_NamePartC1ERKS1_
libgrpc++_error_details.so.1:_ZN6google8protobuf28UninterpretedOption_NamePartC1Ev
libgrpc++_error_details.so.1:_ZN6google8protobuf28UninterpretedOption_NamePartC2EPNS0_5ArenaE
libgrpc++_error_details.so.1:_ZN6google8protobuf28UninterpretedOption_NamePartC2ERKS1_
libgrpc++_error_details.so.1:_ZN6google8protobuf28UninterpretedOption_NamePartC2Ev
libgrpc++_error_details.so.1:_ZN6google8protobuf28UninterpretedOption_NamePartD0Ev
libgrpc++_error_details.so.1:_ZN6google8protobuf28UninterpretedOption_NamePartD1Ev
libgrpc++_error_details.so.1:_ZN6google8protobuf28UninterpretedOption_NamePartD2Ev
libgrpc++_error_details.so.1:_ZN6google8protobuf29DescriptorProto_ReservedRange12InternalSwapEPS1_
libgrpc++_error_details.so.1:_ZN6google8protobuf29DescriptorProto_ReservedRange15UnsafeArenaSwapEPS1_
libgrpc++_error_details.so.1:_ZN6google8protobuf29DescriptorProto_ReservedRange16default_instanceEv
libgrpc++_error_details.so.1:_ZN6google8protobuf29DescriptorProto_ReservedRange21InitAsDefaultInstanceEv
libgrpc++_error_details.so.1:_ZN6google8protobuf29DescriptorProto_ReservedRange27MergePartialFromCodedStreamEPNS0_2io16CodedInputStreamE
libgrpc++_error_details.so.1:_ZN6google8protobuf29DescriptorProto_ReservedRange4SwapEPS1_
libgrpc++_error_details.so.1:_ZN6google8protobuf29DescriptorProto_ReservedRange5ClearEv
libgrpc++_error_details.so.1:_ZN6google8protobuf29DescriptorProto_ReservedRange8CopyFromERKNS0_7MessageE
libgrpc++_error_details.so.1:_ZN6google8protobuf29DescriptorProto_ReservedRange8CopyFromERKS1_
libgrpc++_error_details.so.1:_ZN6google8protobuf29DescriptorProto_ReservedRange9ArenaDtorEPv
libgrpc++_error_details.so.1:_ZN6google8protobuf29DescriptorProto_ReservedRange9MergeFromERKNS0_7MessageE
libgrpc++_error_details.so.1:_ZN6google8protobuf29DescriptorProto_ReservedRange9MergeFromERKS1_
libgrpc++_error_details.so.1:_ZN6google8protobuf29DescriptorProto_ReservedRangeC1EPNS0_5ArenaE
libgrpc++_error_details.so.1:_ZN6google8protobuf29DescriptorProto_ReservedRangeC1ERKS1_
libgrpc++_error_details.so.1:_ZN6google8protobuf29DescriptorProto_ReservedRangeC1Ev
libgrpc++_error_details.so.1:_ZN6google8protobuf29DescriptorProto_ReservedRangeC2EPNS0_5ArenaE
libgrpc++_error_details.so.1:_ZN6google8protobuf29DescriptorProto_ReservedRangeC2ERKS1_
libgrpc++_error_details.so.1:_ZN6google8protobuf29DescriptorProto_ReservedRangeC2Ev
libgrpc++_error_details.so.1:_ZN6google8protobuf29DescriptorProto_ReservedRangeD0Ev
libgrpc++_error_details.so.1:_ZN6google8protobuf29DescriptorProto_ReservedRangeD1Ev
libgrpc++_error_details.so.1:_ZN6google8protobuf29DescriptorProto_ReservedRangeD2Ev
libgrpc++_error_details.so.1:_ZN6google8protobuf29FieldOptions_CType_descriptorEv
libgrpc++_error_details.so.1:_ZN6google8protobuf2io14ErrorCollectorD0Ev
libgrpc++_error_details.so.1:_ZN6google8protobuf2io14ErrorCollectorD1Ev
libgrpc++_error_details.so.1:_ZN6google8protobuf2io14ErrorCollectorD2Ev
libgrpc++_error_details.so.1:_ZN6google8protobuf2io14NoLocaleStrtodEPKcPPc
libgrpc++_error_details.so.1:_ZN6google8protobuf2io15FileInputStream22CopyingFileInputStream4ReadEPvi
libgrpc++_error_details.so.1:_ZN6google8protobuf2io15FileInputStream22CopyingFileInputStream4SkipEi
libgrpc++_error_details.so.1:_ZN6google8protobuf2io15FileInputStream22CopyingFileInputStream5CloseEv
libgrpc++_error_details.so.1:_ZN6google8protobuf2io15FileInputStream22CopyingFileInputStreamC1Ei
libgrpc++_error_details.so.1:_ZN6google8protobuf2io15FileInputStream22CopyingFileInputStreamC2Ei
libgrpc++_error_details.so.1:_ZN6google8protobuf2io15FileInputStream22CopyingFileInputStreamD0Ev
libgrpc++_error_details.so.1:_ZN6google8protobuf2io15FileInputStream22CopyingFileInputStreamD1Ev
libgrpc++_error_details.so.1:_ZN6google8protobuf2io15FileInputStream22CopyingFileInputStreamD2Ev
libgrpc++_error_details.so.1:_ZN6google8protobuf2io15FileInputStream4NextEPPKvPi
libgrpc++_error_details.so.1:_ZN6google8protobuf2io15FileInputStream4SkipEi
libgrpc++_error_details.so.1:_ZN6google8protobuf2io15FileInputStream5CloseEv
libgrpc++_error_details.so.1:_ZN6google8protobuf2io15FileInputStream6BackUpEi
libgrpc++_error_details.so.1:_ZN6google8protobuf2io15FileInputStreamC1Eii
libgrpc++_error_details.so.1:_ZN6google8protobuf2io15FileInputStreamC2Eii
libgrpc++_error_details.so.1:_ZN6google8protobuf2io16ArrayInputStream4NextEPPKvPi
libgrpc++_error_details.so.1:_ZN6google8protobuf2io16ArrayInputStream4SkipEi
libgrpc++_error_details.so.1:_ZN6google8protobuf2io16ArrayInputStream6BackUpEi
libgrpc++_error_details.so.1:_ZN6google8protobuf2io16ArrayInputStreamC1EPKvii
libgrpc++_error_details.so.1:_ZN6google8protobuf2io16ArrayInputStreamC2EPKvii
libgrpc++_error_details.so.1:_ZN6google8protobuf2io16CodedInputStream10ReadStringEPNSt7__cxx1112basic_stringIcSt11char_traitsIcESaIcEEEi
libgrpc++_error_details.so.1:_ZN6google8protobuf2io16CodedInputStream11ReadTagSlowEv
libgrpc++_error_details.so.1:_ZN6google8protobuf2io16CodedInputStream12SkipFallbackEii
libgrpc++_error_details.so.1:_ZN6google8protobuf2io16CodedInputStream15ReadTagFallbackEj
libgrpc++_error_details.so.1:_ZN6google8protobuf2io16CodedInputStream16ReadVarint32SlowEPj
libgrpc++_error_details.so.1:_ZN6google8protobuf2io16CodedInputStream16ReadVarint64SlowEPm
libgrpc++_error_details.so.1:_ZN6google8protobuf2io16CodedInputStream18ReadStringFallbackEPNSt7__cxx1112basic_stringIcSt11char_traitsIcESaIcEEEi
libgrpc++_error_details.so.1:_ZN6google8protobuf2io16CodedInputStream18SetTotalBytesLimitEi
libgrpc++_error_details.so.1:_ZN6google8protobuf2io16CodedInputStream20ReadVarint32FallbackEj
libgrpc++_error_details.so.1:_ZN6google8protobuf2io16CodedInputStream20ReadVarint64FallbackEv
libgrpc++_error_details.so.1:_ZN6google8protobuf2io16CodedInputStream22GetDirectBufferPointerEPPKvPi
libgrpc++_error_details.so.1:_ZN6google8protobuf2io16CodedInputStream22ReadLengthAndPushLimitEv
libgrpc++_error_details.so.1:_ZN6google8protobuf2io16CodedInputStream23ReadVarintSizeAsIntSlowEv
libgrpc++_error_details.so.1:_ZN6google8protobuf2io16CodedInputStream25PrintTotalBytesLimitErrorEv
libgrpc++_error_details.so.1:_ZN6google8protobuf2io16CodedInputStream26ReadLittleEndian32FallbackEPj
libgrpc++_error_details.so.1:_ZN6google8protobuf2io16CodedInputStream26ReadLittleEndian64FallbackEPm
libgrpc++_error_details.so.1:_ZN6google8protobuf2io16CodedInputStream27ReadVarintSizeAsIntFallbackEv
libgrpc++_error_details.so.1:_ZN6google8protobuf2io16CodedInputStream28BackUpInputToCurrentPositionEv
libgrpc++_error_details.so.1:_ZN6google8protobuf2io16CodedInputStream34DecrementRecursionDepthAndPopLimitEi
libgrpc++_error_details.so.1:_ZN6google8protobuf2io16CodedInputStream35IncrementRecursionDepthAndPushLimitEi
libgrpc++_error_details.so.1:_ZN6google8protobuf2io16CodedInputStream37CheckEntireMessageConsumedAndPopLimitEi
libgrpc++_error_details.so.1:_ZN6google8protobuf2io16CodedInputStream7ReadRawEPvi
libgrpc++_error_details.so.1:_ZN6google8protobuf2io16CodedInputStream7RefreshEv
libgrpc++_error_details.so.1:_ZN6google8protobuf2io16CodedInputStream8PopLimitEi
libgrpc++_error_details.so.1:_ZN6google8protobuf2io16CodedInputStream9PushLimitEi
libgrpc++_error_details.so.1:_ZN6google8protobuf2io16CodedInputStreamD1Ev
libgrpc++_error_details.so.1:_ZN6google8protobuf2io16CodedInputStreamD2Ev
libgrpc++_error_details.so.1:_ZN6google8protobuf2io16FileOutputStream23CopyingFileOutputStream5CloseEv
libgrpc++_error_details.so.1:_ZN6google8protobuf2io16FileOutputStream23CopyingFileOutputStream5WriteEPKvi
libgrpc++_error_details.so.1:_ZN6google8protobuf2io16FileOutputStream23CopyingFileOutputStreamC1Ei
libgrpc++_error_details.so.1:_ZN6google8protobuf2io16FileOutputStream23CopyingFileOutputStreamC2Ei
libgrpc++_error_details.so.1:_ZN6google8protobuf2io16FileOutputStream23CopyingFileOutputStreamD0Ev
libgrpc++_error_details.so.1:_ZN6google8protobuf2io16FileOutputStream23CopyingFileOutputStreamD1Ev
libgrpc++_error_details.so.1:_ZN6google8protobuf2io16FileOutputStream23CopyingFileOutputStreamD2Ev
libgrpc++_error_details.so.1:_ZN6google8protobuf2io16FileOutputStream4NextEPPvPi
libgrpc++_error_details.so.1:_ZN6google8protobuf2io16FileOutputStream5CloseEv
libgrpc++_error_details.so.1:_ZN6google8protobuf2io16FileOutputStream5FlushEv
libgrpc++_error_details.so.1:_ZN6google8protobuf2io16FileOutputStream6BackUpEi
libgrpc++_error_details.so.1:_ZN6google8protobuf2io16FileOutputStreamC1Eii
libgrpc++_error_details.so.1:_ZN6google8protobuf2io16FileOutputStreamC2Eii
libgrpc++_error_details.so.1:_ZN6google8protobuf2io16FileOutputStreamD0Ev
libgrpc++_error_details.so.1:_ZN6google8protobuf2io16FileOutputStreamD1Ev
libgrpc++_error_details.so.1:_ZN6google8protobuf2io16FileOutputStreamD2Ev
libgrpc++_error_details.so.1:_ZN6google8protobuf2io17ArrayOutputStream4NextEPPvPi
libgrpc++_error_details.so.1:_ZN6google8protobuf2io17ArrayOutputStream6BackUpEi
libgrpc++_error_details.so.1:_ZN6google8protobuf2io17ArrayOutputStreamC1EPvii
libgrpc++_error_details.so.1:_ZN6google8protobuf2io17ArrayOutputStreamC2EPvii
libgrpc++_error_details.so.1:_ZN6google8protobuf2io17CodedOutputStream14EnableAliasingEb
libgrpc++_error_details.so.1:_ZN6google8protobuf2io17CodedOutputStream15WriteAliasedRawEPKvi
libgrpc++_error_details.so.1:_ZN6google8protobuf2io17CodedOutputStream15WriteRawToArrayEPKviPh
libgrpc++_error_details.so.1:_ZN6google8protobuf2io17CodedOutputStream19WriteLittleEndian32Ej
libgrpc++_error_details.so.1:_ZN6google8protobuf2io17CodedOutputStream19WriteLittleEndian64Em
libgrpc++_error_details.so.1:_ZN6google8protobuf2io17CodedOutputStream21WriteVarint32SlowPathEj
libgrpc++_error_details.so.1:_ZN6google8protobuf2io17CodedOutputStream21WriteVarint64SlowPathEm
libgrpc++_error_details.so.1:_ZN6google8protobuf2io17CodedOutputStream22GetDirectBufferPointerEPPvPi
libgrpc++_error_details.so.1:_ZN6google8protobuf2io17CodedOutputStream26WriteStringWithSizeToArrayERKNSt7__cxx1112basic_stringIcSt11char_traitsIcESaIcEEEPh
libgrpc++_error_details.so.1:_ZN6google8protobuf2io17CodedOutputStream4SkipEi
libgrpc++_error_details.so.1:_ZN6google8protobuf2io17CodedOutputStream4TrimEv
libgrpc++_error_details.so.1:_ZN6google8protobuf2io17CodedOutputStream7RefreshEv
libgrpc++_error_details.so.1:_ZN6google8protobuf2io17CodedOutputStream8WriteRawEPKvi
libgrpc++_error_details.so.1:_ZN6google8protobuf2io17CodedOutputStreamC1EPNS1_20ZeroCopyOutputStreamE
libgrpc++_error_details.so.1:_ZN6google8protobuf2io17CodedOutputStreamC1EPNS1_20ZeroCopyOutputStreamEb
libgrpc++_error_details.so.1:_ZN6google8protobuf2io17CodedOutputStreamC2EPNS1_20ZeroCopyOutputStreamE
libgrpc++_error_details.so.1:_ZN6google8protobuf2io17CodedOutputStreamC2EPNS1_20ZeroCopyOutputStreamEb
libgrpc++_error_details.so.1:_ZN6google8protobuf2io17CodedOutputStreamD1Ev
libgrpc++_error_details.so.1:_ZN6google8protobuf2io17CodedOutputStreamD2Ev
libgrpc++_error_details.so.1:_ZN6google8protobuf2io17SafeDoubleToFloatEd
libgrpc++_error_details.so.1:_ZN6google8protobuf2io18CopyingInputStream4SkipEi
libgrpc++_error_details.so.1:_ZN6google8protobuf2io18IstreamInputStream25CopyingIstreamInputStream4ReadEPvi
libgrpc++_error_details.so.1:_ZN6google8protobuf2io18IstreamInputStream25CopyingIstreamInputStreamC1EPSi
libgrpc++_error_details.so.1:_ZN6google8protobuf2io18IstreamInputStream25CopyingIstreamInputStreamC2EPSi
libgrpc++_error_details.so.1:_ZN6google8protobuf2io18IstreamInputStream25CopyingIstreamInputStreamD0Ev
libgrpc++_error_details.so.1:_ZN6google8protobuf2io18IstreamInputStream25CopyingIstreamInputStreamD1Ev
libgrpc++_error_details.so.1:_ZN6google8protobuf2io18IstreamInputStream25CopyingIstreamInputStreamD2Ev
libgrpc++_error_details.so.1:_ZN6google8protobuf2io18IstreamInputStream4NextEPPKvPi
libgrpc++_error_details.so.1:_ZN6google8protobuf2io18IstreamInputStream4SkipEi
libgrpc++_error_details.so.1:_ZN6google8protobuf2io18IstreamInputStream6BackUpEi
libgrpc++_error_details.so.1:_ZN6google8protobuf2io18IstreamInputStreamC1EPSii
libgrpc++_error_details.so.1:_ZN6google8protobuf2io18IstreamInputStreamC2EPSii
libgrpc++_error_details.so.1:_ZN6google8protobuf2io18StringOutputStream4NextEPPvPi
libgrpc++_error_details.so.1:_ZN6google8protobuf2io18StringOutputStream6BackUpEi
libgrpc++_error_details.so.1:_ZN6google8protobuf2io18StringOutputStreamC1EPNSt7__cxx1112basic_stringIcSt11char_traitsIcESaIcEEE
libgrpc++_error_details.so.1:_ZN6google8protobuf2io18StringOutputStreamC2EPNSt7__cxx1112basic_stringIcSt11char_traitsIcESaIcEEE
libgrpc++_error_details.so.1:_ZN6google8protobuf2io19LimitingInputStream4NextEPPKvPi
libgrpc++_error_details.so.1:_ZN6google8protobuf2io19LimitingInputStream4SkipEi
libgrpc++_error_details.so.1:_ZN6google8protobuf2io19LimitingInputStream6BackUpEi
libgrpc++_error_details.so.1:_ZN6google8protobuf2io19LimitingInputStreamC1EPNS1_19ZeroCopyInputStreamEl
libgrpc++_error_details.so.1:_ZN6google8protobuf2io19LimitingInputStreamC2EPNS1_19ZeroCopyInputStreamEl
libgrpc++_error_details.so.1:_ZN6google8protobuf2io19LimitingInputStreamD0Ev
libgrpc++_error_details.so.1:_ZN6google8protobuf2io19LimitingInputStreamD1Ev
libgrpc++_error_details.so.1:_ZN6google8protobuf2io19LimitingInputStreamD2Ev
libgrpc++_error_details.so.1:_ZN6google8protobuf2io19OstreamOutputStream26CopyingOstreamOutputStream5WriteEPKvi
libgrpc++_error_details.so.1:_ZN6google8protobuf2io19OstreamOutputStream26CopyingOstreamOutputStreamC1EPSo
libgrpc++_error_details.so.1:_ZN6google8protobuf2io19OstreamOutputStream26CopyingOstreamOutputStreamC2EPSo
libgrpc++_error_details.so.1:_ZN6google8protobuf2io19OstreamOutputStream26CopyingOstreamOutputStreamD0Ev
libgrpc++_error_details.so.1:_ZN6google8protobuf2io19OstreamOutputStream26CopyingOstreamOutputStreamD1Ev
libgrpc++_error_details.so.1:_ZN6google8protobuf2io19OstreamOutputStream26CopyingOstreamOutputStreamD2Ev
libgrpc++_error_details.so.1:_ZN6google8protobuf2io19OstreamOutputStream4NextEPPvPi
libgrpc++_error_details.so.1:_ZN6google8protobuf2io19OstreamOutputStream6BackUpEi
libgrpc++_error_details.so.1:_ZN6google8protobuf2io19OstreamOutputStreamC1EPSoi
libgrpc++_error_details.so.1:_ZN6google8protobuf2io19OstreamOutputStreamC2EPSoi
libgrpc++_error_details.so.1:_ZN6google8protobuf2io19OstreamOutputStreamD0Ev
libgrpc++_error_details.so.1:_ZN6google8protobuf2io19OstreamOutputStreamD1Ev
libgrpc++_error_details.so.1:_ZN6google8protobuf2io19OstreamOutputStreamD2Ev
libgrpc++_error_details.so.1:_ZN6google8protobuf2io20ZeroCopyOutputStream15WriteAliasedRawEPKvi
libgrpc++_error_details.so.1:_ZN6google8protobuf2io24ConcatenatingInputStream4NextEPPKvPi
libgrpc++_error_details.so.1:_ZN6google8protobuf2io24ConcatenatingInputStream4SkipEi
libgrpc++_error_details.so.1:_ZN6google8protobuf2io24ConcatenatingInputStream6BackUpEi
libgrpc++_error_details.so.1:_ZN6google8protobuf2io24ConcatenatingInputStreamC1EPKPNS1_19ZeroCopyInputStreamEi
libgrpc++_error_details.so.1:_ZN6google8protobuf2io24ConcatenatingInputStreamC2EPKPNS1_19ZeroCopyInputStreamEi
libgrpc++_error_details.so.1:_ZN6google8protobuf2io25CopyingInputStreamAdaptor10FreeBufferEv
libgrpc++_error_details.so.1:_ZN6google8protobuf2io25CopyingInputStreamAdaptor22AllocateBufferIfNeededEv
libgrpc++_error_details.so.1:_ZN6google8protobuf2io25CopyingInputStreamAdaptor4NextEPPKvPi
libgrpc++_error_details.so.1:_ZN6google8protobuf2io25CopyingInputStreamAdaptor4SkipEi
libgrpc++_error_details.so.1:_ZN6google8protobuf2io25CopyingInputStreamAdaptor6BackUpEi
libgrpc++_error_details.so.1:_ZN6google8protobuf2io25CopyingInputStreamAdaptorC1EPNS1_18CopyingInputStreamEi
libgrpc++_error_details.so.1:_ZN6google8protobuf2io25CopyingInputStreamAdaptorC2EPNS1_18CopyingInputStreamEi
libgrpc++_error_details.so.1:_ZN6google8protobuf2io25CopyingInputStreamAdaptorD0Ev
libgrpc++_error_details.so.1:_ZN6google8protobuf2io25CopyingInputStreamAdaptorD1Ev
libgrpc++_error_details.so.1:_ZN6google8protobuf2io25CopyingInputStreamAdaptorD2Ev
libgrpc++_error_details.so.1:_ZN6google8protobuf2io26CopyingOutputStreamAdaptor10FreeBufferEv
libgrpc++_error_details.so.1:_ZN6google8protobuf2io26CopyingOutputStreamAdaptor11WriteBufferEv
libgrpc++_error_details.so.1:_ZN6google8protobuf2io26CopyingOutputStreamAdaptor22AllocateBufferIfNeededEv
libgrpc++_error_details.so.1:_ZN6google8protobuf2io26CopyingOutputStreamAdaptor4NextEPPvPi
libgrpc++_error_details.so.1:_ZN6google8protobuf2io26CopyingOutputStreamAdaptor5FlushEv
libgrpc++_error_details.so.1:_ZN6google8protobuf2io26CopyingOutputStreamAdaptor6BackUpEi
libgrpc++_error_details.so.1:_ZN6google8protobuf2io26CopyingOutputStreamAdaptorC1EPNS1_19CopyingOutputStreamEi
libgrpc++_error_details.so.1:_ZN6google8protobuf2io26CopyingOutputStreamAdaptorC2EPNS1_19CopyingOutputStreamEi
libgrpc++_error_details.so.1:_ZN6google8protobuf2io26CopyingOutputStreamAdaptorD0Ev
libgrpc++_error_details.so.1:_ZN6google8protobuf2io26CopyingOutputStreamAdaptorD1Ev
libgrpc++_error_details.so.1:_ZN6google8protobuf2io26CopyingOutputStreamAdaptorD2Ev
libgrpc++_error_details.so.1:_ZN6google8protobuf2io9Tokenizer10ParseFloatERKNSt7__cxx1112basic_stringIcSt11char_traitsIcESaIcEEE
libgrpc++_error_details.so.1:_ZN6google8protobuf2io9Tokenizer12IsIdentifierERKNSt7__cxx1112basic_stringIcSt11char_traitsIcESaIcEEE
libgrpc++_error_details.so.1:_ZN6google8protobuf2io9Tokenizer12ParseIntegerERKNSt7__cxx1112basic_stringIcSt11char_traitsIcESaIcEEEmPm
libgrpc++_error_details.so.1:_ZN6google8protobuf2io9Tokenizer13ConsumeNumberEbb
libgrpc++_error_details.so.1:_ZN6google8protobuf2io9Tokenizer13ConsumeStringEc
libgrpc++_error_details.so.1:_ZN6google8protobuf2io9Tokenizer16NextWithCommentsEPNSt7__cxx1112basic_stringIcSt11char_traitsIcESaIcEEEPSt6vectorIS8_SaIS8_EES9_
libgrpc++_error_details.so.1:_ZN6google8protobuf2io9Tokenizer17ParseStringAppendERKNSt7__cxx1112basic_stringIcSt11char_traitsIcESaIcEEEPS8_
libgrpc++_error_details.so.1:_ZN6google8protobuf2io9Tokenizer18ConsumeLineCommentEPNSt7__cxx1112basic_stringIcSt11char_traitsIcESaIcEEE
libgrpc++_error_details.so.1:_ZN6google8protobuf2io9Tokenizer19ConsumeBlockCommentEPNSt7__cxx1112basic_stringIcSt11char_traitsIcESaIcEEE
libgrpc++_error_details.so.1:_ZN6google8protobuf2io9Tokenizer22TryConsumeCommentStartEv
libgrpc++_error_details.so.1:_ZN6google8protobuf2io9Tokenizer4NextEv
libgrpc++_error_details.so.1:_ZN6google8protobuf2io9Tokenizer7RefreshEv
libgrpc++_error_details.so.1:_ZN6google8protobuf2io9Tokenizer8NextCharEv
libgrpc++_error_details.so.1:_ZN6google8protobuf2io9TokenizerC1EPNS1_19ZeroCopyInputStreamEPNS1_14ErrorCollectorE
libgrpc++_error_details.so.1:_ZN6google8protobuf2io9TokenizerC2EPNS1_19ZeroCopyInputStreamEPNS1_14ErrorCollectorE
libgrpc++_error_details.so.1:_ZN6google8protobuf2io9TokenizerD1Ev
libgrpc++_error_details.so.1:_ZN6google8protobuf2io9TokenizerD2Ev
libgrpc++_error_details.so.1:_ZN6google8protobuf30DescriptorProto_ExtensionRange12InternalSwapEPS1_
libgrpc++_error_details.so.1:_ZN6google8protobuf30DescriptorProto_ExtensionRange13HasBitSetters7optionsEPKS1_
libgrpc++_error_details.so.1:_ZN6google8protobuf30DescriptorProto_ExtensionRange15UnsafeArenaSwapEPS1_
libgrpc++_error_details.so.1:_ZN6google8protobuf30DescriptorProto_ExtensionRange16default_instanceEv
libgrpc++_error_details.so.1:_ZN6google8protobuf30DescriptorProto_ExtensionRange21InitAsDefaultInstanceEv
libgrpc++_error_details.so.1:_ZN6google8protobuf30DescriptorProto_ExtensionRange27MergePartialFromCodedStreamEPNS0_2io16CodedInputStreamE
libgrpc++_error_details.so.1:_ZN6google8protobuf30DescriptorProto_ExtensionRange34unsafe_arena_set_allocated_optionsEPNS0_21ExtensionRangeOptionsE
libgrpc++_error_details.so.1:_ZN6google8protobuf30DescriptorProto_ExtensionRange4SwapEPS1_
libgrpc++_error_details.so.1:_ZN6google8protobuf30DescriptorProto_ExtensionRange5ClearEv
libgrpc++_error_details.so.1:_ZN6google8protobuf30DescriptorProto_ExtensionRange8CopyFromERKNS0_7MessageE
libgrpc++_error_details.so.1:_ZN6google8protobuf30DescriptorProto_ExtensionRange8CopyFromERKS1_
libgrpc++_error_details.so.1:_ZN6google8protobuf30DescriptorProto_ExtensionRange9ArenaDtorEPv
libgrpc++_error_details.so.1:_ZN6google8protobuf30DescriptorProto_ExtensionRange9MergeFromERKNS0_7MessageE
libgrpc++_error_details.so.1:_ZN6google8protobuf30DescriptorProto_ExtensionRange9MergeFromERKS1_
libgrpc++_error_details.so.1:_ZN6google8protobuf30DescriptorProto_ExtensionRangeC1EPNS0_5ArenaE
libgrpc++_error_details.so.1:_ZN6google8protobuf30DescriptorProto_ExtensionRangeC1ERKS1_
libgrpc++_error_details.so.1:_ZN6google8protobuf30DescriptorProto_ExtensionRangeC1Ev
libgrpc++_error_details.so.1:_ZN6google8protobuf30DescriptorProto_ExtensionRangeC2EPNS0_5ArenaE
libgrpc++_error_details.so.1:_ZN6google8protobuf30DescriptorProto_ExtensionRangeC2ERKS1_
libgrpc++_error_details.so.1:_ZN6google8protobuf30DescriptorProto_ExtensionRangeC2Ev
libgrpc++_error_details.so.1:_ZN6google8protobuf30DescriptorProto_ExtensionRangeD0Ev
libgrpc++_error_details.so.1:_ZN6google8protobuf30DescriptorProto_ExtensionRangeD1Ev
libgrpc++_error_details.so.1:_ZN6google8protobuf30DescriptorProto_ExtensionRangeD2Ev
libgrpc++_error_details.so.1:_ZN6google8protobuf30FieldOptions_JSType_descriptorEv
libgrpc++_error_details.so.1:_ZN6google8protobuf30WebSafeBase64EscapeWithPaddingENS0_11StringPieceEPNSt7__cxx1112basic_stringIcSt11char_traitsIcESaIcEEE
libgrpc++_error_details.so.1:_ZN6google8protobuf32FileOptions_OptimizeMode_IsValidEi
libgrpc++_error_details.so.1:_ZN6google8protobuf33FieldDescriptorProto_Type_IsValidEi
libgrpc++_error_details.so.1:_ZN6google8protobuf34FieldDescriptorProto_Label_IsValidEi
libgrpc++_error_details.so.1:_ZN6google8protobuf35FileOptions_OptimizeMode_descriptorEv
libgrpc++_error_details.so.1:_ZN6google8protobuf36FieldDescriptorProto_Type_descriptorEv
libgrpc++_error_details.so.1:_ZN6google8protobuf37EnumDescriptorProto_EnumReservedRange12InternalSwapEPS1_
libgrpc++_error_details.so.1:_ZN6google8protobuf37EnumDescriptorProto_EnumReservedRange15UnsafeArenaSwapEPS1_
libgrpc++_error_details.so.1:_ZN6google8protobuf37EnumDescriptorProto_EnumReservedRange16default_instanceEv
libgrpc++_error_details.so.1:_ZN6google8protobuf37EnumDescriptorProto_EnumReservedRange21InitAsDefaultInstanceEv
libgrpc++_error_details.so.1:_ZN6google8protobuf37EnumDescriptorProto_EnumReservedRange27MergePartialFromCodedStreamEPNS0_2io16CodedInputStreamE
libgrpc++_error_details.so.1:_ZN6google8protobuf37EnumDescriptorProto_EnumReservedRange4SwapEPS1_
libgrpc++_error_details.so.1:_ZN6google8protobuf37EnumDescriptorProto_EnumReservedRange5ClearEv
libgrpc++_error_details.so.1:_ZN6google8protobuf37EnumDescriptorProto_EnumReservedRange8CopyFromERKNS0_7MessageE
libgrpc++_error_details.so.1:_ZN6google8protobuf37EnumDescriptorProto_EnumReservedRange8CopyFromERKS1_
libgrpc++_error_details.so.1:_ZN6google8protobuf37EnumDescriptorProto_EnumReservedRange9ArenaDtorEPv
libgrpc++_error_details.so.1:_ZN6google8protobuf37EnumDescriptorProto_EnumReservedRange9MergeFromERKNS0_7MessageE
libgrpc++_error_details.so.1:_ZN6google8protobuf37EnumDescriptorProto_EnumReservedRange9MergeFromERKS1_
libgrpc++_error_details.so.1:_ZN6google8protobuf37EnumDescriptorProto_EnumReservedRangeC1EPNS0_5ArenaE
libgrpc++_error_details.so.1:_ZN6google8protobuf37EnumDescriptorProto_EnumReservedRangeC1ERKS1_
libgrpc++_error_details.so.1:_ZN6google8protobuf37EnumDescriptorProto_EnumReservedRangeC1Ev
libgrpc++_error_details.so.1:_ZN6google8protobuf37EnumDescriptorProto_EnumReservedRangeC2EPNS0_5ArenaE
libgrpc++_error_details.so.1:_ZN6google8protobuf37EnumDescriptorProto_EnumReservedRangeC2ERKS1_
libgrpc++_error_details.so.1:_ZN6google8protobuf37EnumDescriptorProto_EnumReservedRangeC2Ev
libgrpc++_error_details.so.1:_ZN6google8protobuf37EnumDescriptorProto_EnumReservedRangeD0Ev
libgrpc++_error_details.so.1:_ZN6google8protobuf37EnumDescriptorProto_EnumReservedRangeD1Ev
libgrpc++_error_details.so.1:_ZN6google8protobuf37EnumDescriptorProto_EnumReservedRangeD2Ev
libgrpc++_error_details.so.1:_ZN6google8protobuf37FieldDescriptorProto_Label_descriptorEv
libgrpc++_error_details.so.1:_ZN6google8protobuf38MethodOptions_IdempotencyLevel_IsValidEi
libgrpc++_error_details.so.1:_ZN6google8protobuf3Any12InternalSwapEPS1_
libgrpc++_error_details.so.1:_ZN6google8protobuf3Any15ParseAnyTypeUrlERKNSt7__cxx1112basic_stringIcSt11char_traitsIcESaIcEEEPS7_
libgrpc++_error_details.so.1:_ZN6google8protobuf3Any16default_instanceEv
libgrpc++_error_details.so.1:_ZN6google8protobuf3Any21InitAsDefaultInstanceEv
libgrpc++_error_details.so.1:_ZN6google8protobuf3Any22GetAnyFieldDescriptorsERKNS0_7MessageEPPKNS0_15FieldDescriptorES8_
libgrpc++_error_details.so.1:_ZN6google8protobuf3Any27MergePartialFromCodedStreamEPNS0_2io16CodedInputStreamE
libgrpc++_error_details.so.1:_ZN6google8protobuf3Any4SwapEPS1_
libgrpc++_error_details.so.1:_ZN6google8protobuf3Any5ClearEv
libgrpc++_error_details.so.1:_ZN6google8protobuf3Any8CopyFromERKNS0_7MessageE
libgrpc++_error_details.so.1:_ZN6google8protobuf3Any8CopyFromERKS1_
libgrpc++_error_details.so.1:_ZN6google8protobuf3Any8PackFromERKNS0_7MessageE
libgrpc++_error_details.so.1:_ZN6google8protobuf3Any8PackFromERKNS0_7MessageERKNSt7__cxx1112basic_stringIcSt11char_traitsIcESaIcEEE
libgrpc++_error_details.so.1:_ZN6google8protobuf3Any9MergeFromERKNS0_7MessageE
libgrpc++_error_details.so.1:_ZN6google8protobuf3Any9MergeFromERKS1_
libgrpc++_error_details.so.1:_ZN6google8protobuf3AnyC1ERKS1_
libgrpc++_error_details.so.1:_ZN6google8protobuf3AnyC1Ev
libgrpc++_error_details.so.1:_ZN6google8protobuf3AnyC2ERKS1_
libgrpc++_error_details.so.1:_ZN6google8protobuf3AnyC2Ev
libgrpc++_error_details.so.1:_ZN6google8protobuf3AnyD0Ev
libgrpc++_error_details.so.1:_ZN6google8protobuf3AnyD1Ev
libgrpc++_error_details.so.1:_ZN6google8protobuf3AnyD2Ev
libgrpc++_error_details.so.1:_ZN6google8protobuf41MethodOptions_IdempotencyLevel_descriptorEv
libgrpc++_error_details.so.1:_ZN6google8protobuf4util6StatusC1ENS1_5error4CodeENS0_11StringPieceE
libgrpc++_error_details.so.1:_ZN6google8protobuf4util6StatusC1ERKS2_
libgrpc++_error_details.so.1:_ZN6google8protobuf4util6StatusC1Ev
libgrpc++_error_details.so.1:_ZN6google8protobuf4util6StatusC2ENS1_5error4CodeENS0_11StringPieceE
libgrpc++_error_details.so.1:_ZN6google8protobuf4util6StatusC2ERKS2_
libgrpc++_error_details.so.1:_ZN6google8protobuf4util6StatusC2Ev
libgrpc++_error_details.so.1:_ZN6google8protobuf4util6StatusaSERKS2_
libgrpc++_error_details.so.1:_ZN6google8protobuf4utillsERSoRKNS1_6StatusE
libgrpc++_error_details.so.1:_ZN6google8protobuf5Arena18CreateMaybeMessageINS0_11EnumOptionsEJEEEPT_PS1_DpOT0_
libgrpc++_error_details.so.1:_ZN6google8protobuf5Arena18CreateMaybeMessageINS0_11FileOptionsEJEEEPT_PS1_DpOT0_
libgrpc++_error_details.so.1:_ZN6google8protobuf5Arena18CreateMaybeMessageINS0_12FieldOptionsEJEEEPT_PS1_DpOT0_
libgrpc++_error_details.so.1:_ZN6google8protobuf5Arena18CreateMaybeMessageINS0_12OneofOptionsEJEEEPT_PS1_DpOT0_
libgrpc++_error_details.so.1:_ZN6google8protobuf5Arena18CreateMaybeMessageINS0_13MethodOptionsEJEEEPT_PS1_DpOT0_
libgrpc++_error_details.so.1:_ZN6google8protobuf5Arena18CreateMaybeMessageINS0_14MessageOptionsEJEEEPT_PS1_DpOT0_
libgrpc++_error_details.so.1:_ZN6google8protobuf5Arena18CreateMaybeMessageINS0_14ServiceOptionsEJEEEPT_PS1_DpOT0_
libgrpc++_error_details.so.1:_ZN6google8protobuf5Arena18CreateMaybeMessageINS0_14SourceCodeInfoEJEEEPT_PS1_DpOT0_
libgrpc++_error_details.so.1:_ZN6google8protobuf5Arena18CreateMaybeMessageINS0_15DescriptorProtoEJEEEPT_PS1_DpOT0_
libgrpc++_error_details.so.1:_ZN6google8protobuf5Arena18CreateMaybeMessageINS0_16EnumValueOptionsEJEEEPT_PS1_DpOT0_
libgrpc++_error_details.so.1:_ZN6google8protobuf5Arena18CreateMaybeMessageINS0_17FileDescriptorSetEJEEEPT_PS1_DpOT0_
libgrpc++_error_details.so.1:_ZN6google8protobuf5Arena18CreateMaybeMessageINS0_17GeneratedCodeInfoEJEEEPT_PS1_DpOT0_
libgrpc++_error_details.so.1:_ZN6google8protobuf5Arena18CreateMaybeMessageINS0_19EnumDescriptorProtoEJEEEPT_PS1_DpOT0_
libgrpc++_error_details.so.1:_ZN6google8protobuf5Arena18CreateMaybeMessageINS0_19FileDescriptorProtoEJEEEPT_PS1_DpOT0_
libgrpc++_error_details.so.1:_ZN6google8protobuf5Arena18CreateMaybeMessageINS0_19UninterpretedOptionEJEEEPT_PS1_DpOT0_
libgrpc++_error_details.so.1:_ZN6google8protobuf5Arena18CreateMaybeMessageINS0_20FieldDescriptorProtoEJEEEPT_PS1_DpOT0_
libgrpc++_error_details.so.1:_ZN6google8protobuf5Arena18CreateMaybeMessageINS0_20OneofDescriptorProtoEJEEEPT_PS1_DpOT0_
libgrpc++_error_details.so.1:_ZN6google8protobuf5Arena18CreateMaybeMessageINS0_21ExtensionRangeOptionsEJEEEPT_PS1_DpOT0_
libgrpc++_error_details.so.1:_ZN6google8protobuf5Arena18CreateMaybeMessageINS0_21MethodDescriptorProtoEJEEEPT_PS1_DpOT0_
libgrpc++_error_details.so.1:_ZN6google8protobuf5Arena18CreateMaybeMessageINS0_22ServiceDescriptorProtoEJEEEPT_PS1_DpOT0_
libgrpc++_error_details.so.1:_ZN6google8protobuf5Arena18CreateMaybeMessageINS0_23SourceCodeInfo_LocationEJEEEPT_PS1_DpOT0_
libgrpc++_error_details.so.1:_ZN6google8protobuf5Arena18CreateMaybeMessageINS0_24EnumValueDescriptorProtoEJEEEPT_PS1_DpOT0_
libgrpc++_error_details.so.1:_ZN6google8protobuf5Arena18CreateMaybeMessageINS0_28GeneratedCodeInfo_AnnotationEJEEEPT_PS1_DpOT0_
libgrpc++_error_details.so.1:_ZN6google8protobuf5Arena18CreateMaybeMessageINS0_28UninterpretedOption_NamePartEJEEEPT_PS1_DpOT0_
libgrpc++_error_details.so.1:_ZN6google8protobuf5Arena18CreateMaybeMessageINS0_29DescriptorProto_ReservedRangeEJEEEPT_PS1_DpOT0_
libgrpc++_error_details.so.1:_ZN6google8protobuf5Arena18CreateMaybeMessageINS0_30DescriptorProto_ExtensionRangeEJEEEPT_PS1_DpOT0_
libgrpc++_error_details.so.1:_ZN6google8protobuf5Arena18CreateMaybeMessageINS0_37EnumDescriptorProto_EnumReservedRangeEJEEEPT_PS1_DpOT0_
libgrpc++_error_details.so.1:_ZN6google8protobuf5Arena18CreateMaybeMessageINS0_3AnyEJEEEPT_PS1_DpOT0_
libgrpc++_error_details.so.1:_ZN6google8protobuf5Arena18CreateMaybeMessageINS_3rpc6StatusEJEEEPT_PS1_DpOT0_
libgrpc++_error_details.so.1:_ZN6google8protobuf5Arena19CallDestructorHooksEv
libgrpc++_error_details.so.1:_ZN6google8protobuf6StrCatB5cxx11ERKNS0_7strings8AlphaNumES4_
libgrpc++_error_details.so.1:_ZN6google8protobuf6StrCatB5cxx11ERKNS0_7strings8AlphaNumES4_S4_
libgrpc++_error_details.so.1:_ZN6google8protobuf6StrCatB5cxx11ERKNS0_7strings8AlphaNumES4_S4_S4_
libgrpc++_error_details.so.1:_ZN6google8protobuf6StrCatB5cxx11ERKNS0_7strings8AlphaNumES4_S4_S4_S4_
libgrpc++_error_details.so.1:_ZN6google8protobuf6StrCatB5cxx11ERKNS0_7strings8AlphaNumES4_S4_S4_S4_S4_
libgrpc++_error_details.so.1:_ZN6google8protobuf6StrCatB5cxx11ERKNS0_7strings8AlphaNumES4_S4_S4_S4_S4_S4_
libgrpc++_error_details.so.1:_ZN6google8protobuf6StrCatB5cxx11ERKNS0_7strings8AlphaNumES4_S4_S4_S4_S4_S4_S4_
libgrpc++_error_details.so.1:_ZN6google8protobuf6StrCatB5cxx11ERKNS0_7strings8AlphaNumES4_S4_S4_S4_S4_S4_S4_S4_
libgrpc++_error_details.so.1:_ZN6google8protobuf6ghtonlEj
libgrpc++_error_details.so.1:_ZN6google8protobuf7CEscapeERKNSt7__cxx1112basic_stringIcSt11char_traitsIcESaIcEEE
libgrpc++_error_details.so.1:_ZN6google8protobuf7ClosureD0Ev
libgrpc++_error_details.so.1:_ZN6google8protobuf7ClosureD1Ev
libgrpc++_error_details.so.1:_ZN6google8protobuf7ClosureD2Ev
libgrpc++_error_details.so.1:_ZN6google8protobuf7Message16ParseFromIstreamEPSi
libgrpc++_error_details.so.1:_ZN6google8protobuf7Message20DiscardUnknownFieldsEv
libgrpc++_error_details.so.1:_ZN6google8protobuf7Message21CheckTypeAndMergeFromERKNS0_11MessageLiteE
libgrpc++_error_details.so.1:_ZN6google8protobuf7Message23ParseFromFileDescriptorEi
libgrpc++_error_details.so.1:_ZN6google8protobuf7Message23ParsePartialFromIstreamEPSi
libgrpc++_error_details.so.1:_ZN6google8protobuf7Message27MergePartialFromCodedStreamEPNS0_2io16CodedInputStreamE
libgrpc++_error_details.so.1:_ZN6google8protobuf7Message30ParsePartialFromFileDescriptorEi
libgrpc++_error_details.so.1:_ZN6google8protobuf7Message5ClearEv
libgrpc++_error_details.so.1:_ZN6google8protobuf7Message8CopyFromERKS1_
libgrpc++_error_details.so.1:_ZN6google8protobuf7Message9MergeFromERKS1_
libgrpc++_error_details.so.1:_ZN6google8protobuf7strings10CHexEscapeERKNSt7__cxx1112basic_stringIcSt11char_traitsIcESaIcEEE
libgrpc++_error_details.so.1:_ZN6google8protobuf7strings10SubstituteB5cxx11EPKcRKNS1_8internal13SubstituteArgES7_S7_S7_S7_S7_S7_S7_S7_S7_
libgrpc++_error_details.so.1:_ZN6google8protobuf7strings15Utf8SafeCEscapeERKNSt7__cxx1112basic_stringIcSt11char_traitsIcESaIcEEE
libgrpc++_error_details.so.1:_ZN6google8protobuf7strings19SubstituteAndAppendEPNSt7__cxx1112basic_stringIcSt11char_traitsIcESaIcEEEPKcRKNS1_8internal13SubstituteArgESE_SE_SE_SE_SE_SE_SE_SE_SE_
libgrpc++_error_details.so.1:_ZN6google8protobuf7strings8AlphaNumC1ENS1_3HexE
libgrpc++_error_details.so.1:_ZN6google8protobuf7strings8AlphaNumC2ENS1_3HexE
libgrpc++_error_details.so.1:_ZN6google8protobuf7uint12810DivModImplES1_S1_PS1_S2_
libgrpc++_error_details.so.1:_ZN6google8protobuf7uint128dVERKS1_
libgrpc++_error_details.so.1:_ZN6google8protobuf7uint128rMERKS1_
libgrpc++_error_details.so.1:_ZN6google8protobuf8internal10GetTypeUrlB5cxx11ENS0_11StringPieceES2_
libgrpc++_error_details.so.1:_ZN6google8protobuf8internal10LogMessage6FinishEv
libgrpc++_error_details.so.1:_ZN6google8protobuf8internal10LogMessageC1ENS0_8LogLevelEPKci
libgrpc++_error_details.so.1:_ZN6google8protobuf8internal10LogMessageC2ENS0_8LogLevelEPKci
libgrpc++_error_details.so.1:_ZN6google8protobuf8internal10LogMessageD1Ev
libgrpc++_error_details.so.1:_ZN6google8protobuf8internal10LogMessageD2Ev
libgrpc++_error_details.so.1:_ZN6google8protobuf8internal10LogMessagelsEPKc
libgrpc++_error_details.so.1:_ZN6google8protobuf8internal10LogMessagelsEPv
libgrpc++_error_details.so.1:_ZN6google8protobuf8internal10LogMessagelsERKNS0_11StringPieceE
libgrpc++_error_details.so.1:_ZN6google8protobuf8internal10LogMessagelsERKNS0_4util6StatusE
libgrpc++_error_details.so.1:_ZN6google8protobuf8internal10LogMessagelsERKNS0_7uint128E
libgrpc++_error_details.so.1:_ZN6google8protobuf8internal10LogMessagelsERKNSt7__cxx1112basic_stringIcSt11char_traitsIcESaIcEEE
libgrpc++_error_details.so.1:_ZN6google8protobuf8internal10LogMessagelsEc
libgrpc++_error_details.so.1:_ZN6google8protobuf8internal10LogMessagelsEd
libgrpc++_error_details.so.1:_ZN6google8protobuf8internal10LogMessagelsEi
libgrpc++_error_details.so.1:_ZN6google8protobuf8internal10LogMessagelsEj
libgrpc++_error_details.so.1:_ZN6google8protobuf8internal10LogMessagelsEl
libgrpc++_error_details.so.1:_ZN6google8protobuf8internal10LogMessagelsEm
libgrpc++_error_details.so.1:_ZN6google8protobuf8internal10LogMessagelsEx
libgrpc++_error_details.so.1:_ZN6google8protobuf8internal10LogMessagelsEy
libgrpc++_error_details.so.1:_ZN6google8protobuf8internal10NameOfEnumB5cxx11EPKNS0_14EnumDescriptorEi
libgrpc++_error_details.so.1:_ZN6google8protobuf8internal10OnShutdownEPFvvE
libgrpc++_error_details.so.1:_ZN6google8protobuf8internal10WireFormat11SkipMessageEPNS0_2io16CodedInputStreamEPNS0_15UnknownFieldSetE
libgrpc++_error_details.so.1:_ZN6google8protobuf8internal10WireFormat13FieldByteSizeEPKNS0_15FieldDescriptorERKNS0_7MessageE
libgrpc++_error_details.so.1:_ZN6google8protobuf8internal10WireFormat18ParseAndMergeFieldEjPKNS0_15FieldDescriptorEPNS0_7MessageEPNS0_2io16CodedInputStreamE
libgrpc++_error_details.so.1:_ZN6google8protobuf8internal10WireFormat19SkipMessageSetFieldEPNS0_2io16CodedInputStreamEjPNS0_15UnknownFieldSetE
libgrpc++_error_details.so.1:_ZN6google8protobuf8internal10WireFormat20ParseAndMergePartialEPNS0_2io16CodedInputStreamEPNS0_7MessageE
libgrpc++_error_details.so.1:_ZN6google8protobuf8internal10WireFormat21FieldDataOnlyByteSizeEPKNS0_15FieldDescriptorERKNS0_7MessageE
libgrpc++_error_details.so.1:_ZN6google8protobuf8internal10WireFormat22MessageSetItemByteSizeEPKNS0_15FieldDescriptorERKNS0_7MessageE
libgrpc++_error_details.so.1:_ZN6google8protobuf8internal10WireFormat22SerializeUnknownFieldsERKNS0_15UnknownFieldSetEPNS0_2io17CodedOutputStreamE
libgrpc++_error_details.so.1:_ZN6google8protobuf8internal10WireFormat24ComputeUnknownFieldsSizeERKNS0_15UnknownFieldSetE
libgrpc++_error_details.so.1:_ZN6google8protobuf8internal10WireFormat24SerializeWithCachedSizesERKNS0_7MessageEiPNS0_2io17CodedOutputStreamE
libgrpc++_error_details.so.1:_ZN6google8protobuf8internal10WireFormat27ParseAndMergeMessageSetItemEPNS0_2io16CodedInputStreamEPNS0_7MessageE
libgrpc++_error_details.so.1:_ZN6google8protobuf8internal10WireFormat28ParseAndMergeMessageSetFieldEjPKNS0_15FieldDescriptorEPNS0_7MessageEPNS0_2io16CodedInputStreamE
libgrpc++_error_details.so.1:_ZN6google8protobuf8internal10WireFormat29SerializeFieldWithCachedSizesEPKNS0_15FieldDescriptorERKNS0_7MessageEPNS0_2io17CodedOutputStreamE
libgrpc++_error_details.so.1:_ZN6google8protobuf8internal10WireFormat29SerializeUnknownFieldsToArrayERKNS0_15UnknownFieldSetEPh
libgrpc++_error_details.so.1:_ZN6google8protobuf8internal10WireFormat30ReadPackedEnumPreserveUnknownsEPNS0_2io16CodedInputStreamEjPFbiEPNS0_15UnknownFieldSetEPNS0_13RepeatedFieldIiEE
libgrpc++_error_details.so.1:_ZN6google8protobuf8internal10WireFormat31SerializeUnknownMessageSetItemsERKNS0_15UnknownFieldSetEPNS0_2io17CodedOutputStreamE
libgrpc++_error_details.so.1:_ZN6google8protobuf8internal10WireFormat33ComputeUnknownMessageSetItemsSizeERKNS0_15UnknownFieldSetE
libgrpc++_error_details.so.1:_ZN6google8protobuf8internal10WireFormat38SerializeMessageSetItemWithCachedSizesEPKNS0_15FieldDescriptorERKNS0_7MessageEPNS0_2io17CodedOutputStreamE
libgrpc++_error_details.so.1:_ZN6google8protobuf8internal10WireFormat38SerializeUnknownMessageSetItemsToArrayERKNS0_15UnknownFieldSetEPh
libgrpc++_error_details.so.1:_ZN6google8protobuf8internal10WireFormat8ByteSizeERKNS0_7MessageE
libgrpc++_error_details.so.1:_ZN6google8protobuf8internal10WireFormat9SkipFieldEPNS0_2io16CodedInputStreamEjPNS0_15UnknownFieldSetE
libgrpc++_error_details.so.1:_ZN6google8protobuf8internal11AnyMetadata16InternalPackFromERKNS0_11MessageLiteENS0_11StringPieceES6_
libgrpc++_error_details.so.1:_ZN6google8protobuf8internal11AnyMetadata8PackFromERKNS0_7MessageE
libgrpc++_error_details.so.1:_ZN6google8protobuf8internal11AnyMetadata8PackFromERKNS0_7MessageERKNSt7__cxx1112basic_stringIcSt11char_traitsIcESaIcEEE
libgrpc++_error_details.so.1:_ZN6google8protobuf8internal11AnyMetadataC1EPNS1_14ArenaStringPtrES4_
libgrpc++_error_details.so.1:_ZN6google8protobuf8internal11AnyMetadataC2EPNS1_14ArenaStringPtrES4_
libgrpc++_error_details.so.1:_ZN6google8protobuf8internal11InitSCCImplEPNS1_11SCCInfoBaseE
libgrpc++_error_details.so.1:_ZN6google8protobuf8internal11LogFinisheraSERNS1_10LogMessageE
libgrpc++_error_details.so.1:_ZN6google8protobuf8internal12ExtensionSet10AddMessageEPKNS0_15FieldDescriptorEPNS0_14MessageFactoryE
libgrpc++_error_details.so.1:_ZN6google8protobuf8internal12ExtensionSet10AddMessageEihRKNS0_11MessageLiteEPKNS0_15FieldDescriptorE
libgrpc++_error_details.so.1:_ZN6google8protobuf8internal12ExtensionSet10FindOrNullEi
libgrpc++_error_details.so.1:_ZN6google8protobuf8internal12ExtensionSet10ParseFieldEjPNS0_2io16CodedInputStreamEPKNS0_11MessageLiteE
libgrpc++_error_details.so.1:_ZN6google8protobuf8internal12ExtensionSet10ParseFieldEjPNS0_2io16CodedInputStreamEPKNS0_11MessageLiteEPNS3_17CodedOutputStreamE
libgrpc++_error_details.so.1:_ZN6google8protobuf8internal12ExtensionSet10ParseFieldEjPNS0_2io16CodedInputStreamEPKNS0_7MessageEPNS0_15UnknownFieldSetE
libgrpc++_error_details.so.1:_ZN6google8protobuf8internal12ExtensionSet10ParseFieldEjPNS0_2io16CodedInputStreamEPNS1_15ExtensionFinderEPNS1_12FieldSkipperE
libgrpc++_error_details.so.1:_ZN6google8protobuf8internal12ExtensionSet10RemoveLastEi
libgrpc++_error_details.so.1:_ZN6google8protobuf8internal12ExtensionSet11ReleaseLastEi
libgrpc++_error_details.so.1:_ZN6google8protobuf8internal12ExtensionSet12GrowCapacityEm
libgrpc++_error_details.so.1:_ZN6google8protobuf8internal12ExtensionSet12SwapElementsEiii
libgrpc++_error_details.so.1:_ZN6google8protobuf8internal12ExtensionSet13DeleteFlatMapEPKNS2_8KeyValueEt
libgrpc++_error_details.so.1:_ZN6google8protobuf8internal12ExtensionSet13MutableStringB5cxx11EihPKNS0_15FieldDescriptorE
libgrpc++_error_details.so.1:_ZN6google8protobuf8internal12ExtensionSet13SwapExtensionEPS2_i
libgrpc++_error_details.so.1:_ZN6google8protobuf8internal12ExtensionSet14ClearExtensionEi
libgrpc++_error_details.so.1:_ZN6google8protobuf8internal12ExtensionSet14MutableMessageEPKNS0_15FieldDescriptorEPNS0_14MessageFactoryE
libgrpc++_error_details.so.1:_ZN6google8protobuf8internal12ExtensionSet14MutableMessageEihRKNS0_11MessageLiteEPKNS0_15FieldDescriptorE
libgrpc++_error_details.so.1:_ZN6google8protobuf8internal12ExtensionSet14ReleaseMessageEPKNS0_15FieldDescriptorEPNS0_14MessageFactoryE
libgrpc++_error_details.so.1:_ZN6google8protobuf8internal12ExtensionSet14ReleaseMessageEiRKNS0_11MessageLiteE
libgrpc++_error_details.so.1:_ZN6google8protobuf8internal12ExtensionSet15ParseMessageSetEPNS0_2io16CodedInputStreamEPKNS0_11MessageLiteEPNSt7__cxx1112basic_stringIcSt11char_traitsIcESaIcEEE
libgrpc++_error_details.so.1:_ZN6google8protobuf8internal12ExtensionSet15ParseMessageSetEPNS0_2io16CodedInputStreamEPKNS0_7MessageEPNS0_15UnknownFieldSetE
libgrpc++_error_details.so.1:_ZN6google8protobuf8internal12ExtensionSet15ParseMessageSetEPNS0_2io16CodedInputStreamEPNS1_15ExtensionFinderEPNS1_22MessageSetFieldSkipperE
libgrpc++_error_details.so.1:_ZN6google8protobuf8internal12ExtensionSet15SetRepeatedBoolEiib
libgrpc++_error_details.so.1:_ZN6google8protobuf8internal12ExtensionSet15SetRepeatedEnumEiii
libgrpc++_error_details.so.1:_ZN6google8protobuf8internal12ExtensionSet16SetRepeatedFloatEiif
libgrpc++_error_details.so.1:_ZN6google8protobuf8internal12ExtensionSet16SetRepeatedInt32Eiii
libgrpc++_error_details.so.1:_ZN6google8protobuf8internal12ExtensionSet16SetRepeatedInt64Eiil
libgrpc++_error_details.so.1:_ZN6google8protobuf8internal12ExtensionSet17MaybeNewExtensionEiPKNS0_15FieldDescriptorEPPNS2_9ExtensionE
libgrpc++_error_details.so.1:_ZN6google8protobuf8internal12ExtensionSet17RegisterExtensionEPKNS0_11MessageLiteEihbb
libgrpc++_error_details.so.1:_ZN6google8protobuf8internal12ExtensionSet17SetRepeatedDoubleEiid
libgrpc++_error_details.so.1:_ZN6google8protobuf8internal12ExtensionSet17SetRepeatedUInt32Eiij
libgrpc++_error_details.so.1:_ZN6google8protobuf8internal12ExtensionSet17SetRepeatedUInt64Eiim
libgrpc++_error_details.so.1:_ZN6google8protobuf8internal12ExtensionSet19AddAllocatedMessageEPKNS0_15FieldDescriptorEPNS0_11MessageLiteE
libgrpc++_error_details.so.1:_ZN6google8protobuf8internal12ExtensionSet19ParseMessageSetItemEPNS0_2io16CodedInputStreamEPNS1_15ExtensionFinderEPNS1_22MessageSetFieldSkipperE
libgrpc++_error_details.so.1:_ZN6google8protobuf8internal12ExtensionSet19ParseMessageSetLiteEPNS0_2io16CodedInputStreamEPNS1_15ExtensionFinderEPNS1_12FieldSkipperE
libgrpc++_error_details.so.1:_ZN6google8protobuf8internal12ExtensionSet19SetAllocatedMessageEihPKNS0_15FieldDescriptorEPNS0_11MessageLiteE
libgrpc++_error_details.so.1:_ZN6google8protobuf8internal12ExtensionSet20FindOrNullInLargeMapEi
libgrpc++_error_details.so.1:_ZN6google8protobuf8internal12ExtensionSet20LazyMessageExtension15UnusedKeyMethodEv
libgrpc++_error_details.so.1:_ZN6google8protobuf8internal12ExtensionSet21MutableRepeatedStringB5cxx11Eii
libgrpc++_error_details.so.1:_ZN6google8protobuf8internal12ExtensionSet21ParseFieldMaybeLazilyEiiPNS0_2io16CodedInputStreamEPNS1_15ExtensionFinderEPNS1_22MessageSetFieldSkipperE
libgrpc++_error_details.so.1:_ZN6google8protobuf8internal12ExtensionSet21RegisterEnumExtensionEPKNS0_11MessageLiteEihbbPFbiE
libgrpc++_error_details.so.1:_ZN6google8protobuf8internal12ExtensionSet22MutableRepeatedMessageEii
libgrpc++_error_details.so.1:_ZN6google8protobuf8internal12ExtensionSet23MutableRawRepeatedFieldEi
libgrpc++_error_details.so.1:_ZN6google8protobuf8internal12ExtensionSet23MutableRawRepeatedFieldEihbPKNS0_15FieldDescriptorE
libgrpc++_error_details.so.1:_ZN6google8protobuf8internal12ExtensionSet23ParseMessageSetItemLiteEPNS0_2io16CodedInputStreamEPNS1_15ExtensionFinderEPNS1_12FieldSkipperE
libgrpc++_error_details.so.1:_ZN6google8protobuf8internal12ExtensionSet24FindExtensionInfoFromTagEjPNS1_15ExtensionFinderEPiPNS1_13ExtensionInfoEPb
libgrpc++_error_details.so.1:_ZN6google8protobuf8internal12ExtensionSet24RegisterMessageExtensionEPKNS0_11MessageLiteEihbbS5_
libgrpc++_error_details.so.1:_ZN6google8protobuf8internal12ExtensionSet25MaybeNewRepeatedExtensionEPKNS0_15FieldDescriptorE
libgrpc++_error_details.so.1:_ZN6google8protobuf8internal12ExtensionSet25UnsafeArenaReleaseMessageEPKNS0_15FieldDescriptorEPNS0_14MessageFactoryE
libgrpc++_error_details.so.1:_ZN6google8protobuf8internal12ExtensionSet25UnsafeArenaReleaseMessageEiRKNS0_11MessageLiteE
libgrpc++_error_details.so.1:_ZN6google8protobuf8internal12ExtensionSet26InternalExtensionMergeFromEiRKNS2_9ExtensionE
libgrpc++_error_details.so.1:_ZN6google8protobuf8internal12ExtensionSet27ParseFieldWithExtensionInfoEibRKNS1_13ExtensionInfoEPNS0_2io16CodedInputStreamEPNS1_12FieldSkipperE
libgrpc++_error_details.so.1:_ZN6google8protobuf8internal12ExtensionSet30UnsafeArenaSetAllocatedMessageEihPKNS0_15FieldDescriptorEPNS0_11MessageLiteE
libgrpc++_error_details.so.1:_ZN6google8protobuf8internal12ExtensionSet32FindExtensionInfoFromFieldNumberEiiPNS1_15ExtensionFinderEPNS1_13ExtensionInfoEPb
libgrpc++_error_details.so.1:_ZN6google8protobuf8internal12ExtensionSet4SwapEPS2_
libgrpc++_error_details.so.1:_ZN6google8protobuf8internal12ExtensionSet5ClearEv
libgrpc++_error_details.so.1:_ZN6google8protobuf8internal12ExtensionSet5EraseEi
libgrpc++_error_details.so.1:_ZN6google8protobuf8internal12ExtensionSet6InsertEi
libgrpc++_error_details.so.1:_ZN6google8protobuf8internal12ExtensionSet7AddBoolEihbbPKNS0_15FieldDescriptorE
libgrpc++_error_details.so.1:_ZN6google8protobuf8internal12ExtensionSet7AddEnumEihbiPKNS0_15FieldDescriptorE
libgrpc++_error_details.so.1:_ZN6google8protobuf8internal12ExtensionSet7SetBoolEihbPKNS0_15FieldDescriptorE
libgrpc++_error_details.so.1:_ZN6google8protobuf8internal12ExtensionSet7SetEnumEihiPKNS0_15FieldDescriptorE
libgrpc++_error_details.so.1:_ZN6google8protobuf8internal12ExtensionSet8AddFloatEihbfPKNS0_15FieldDescriptorE
libgrpc++_error_details.so.1:_ZN6google8protobuf8internal12ExtensionSet8AddInt32EihbiPKNS0_15FieldDescriptorE
libgrpc++_error_details.so.1:_ZN6google8protobuf8internal12ExtensionSet8AddInt64EihblPKNS0_15FieldDescriptorE
libgrpc++_error_details.so.1:_ZN6google8protobuf8internal12ExtensionSet8SetFloatEihfPKNS0_15FieldDescriptorE
libgrpc++_error_details.so.1:_ZN6google8protobuf8internal12ExtensionSet8SetInt32EihiPKNS0_15FieldDescriptorE
libgrpc++_error_details.so.1:_ZN6google8protobuf8internal12ExtensionSet8SetInt64EihlPKNS0_15FieldDescriptorE
libgrpc++_error_details.so.1:_ZN6google8protobuf8internal12ExtensionSet9AddDoubleEihbdPKNS0_15FieldDescriptorE
libgrpc++_error_details.so.1:_ZN6google8protobuf8internal12ExtensionSet9AddStringB5cxx11EihPKNS0_15FieldDescriptorE
libgrpc++_error_details.so.1:_ZN6google8protobuf8internal12ExtensionSet9AddUInt32EihbjPKNS0_15FieldDescriptorE
libgrpc++_error_details.so.1:_ZN6google8protobuf8internal12ExtensionSet9AddUInt64EihbmPKNS0_15FieldDescriptorE
libgrpc++_error_details.so.1:_ZN6google8protobuf8internal12ExtensionSet9Extension4FreeEv
libgrpc++_error_details.so.1:_ZN6google8protobuf8internal12ExtensionSet9Extension5ClearEv
libgrpc++_error_details.so.1:_ZN6google8protobuf8internal12ExtensionSet9MergeFromERKS2_
libgrpc++_error_details.so.1:_ZN6google8protobuf8internal12ExtensionSet9SetDoubleEihdPKNS0_15FieldDescriptorE
libgrpc++_error_details.so.1:_ZN6google8protobuf8internal12ExtensionSet9SetUInt32EihjPKNS0_15FieldDescriptorE
libgrpc++_error_details.so.1:_ZN6google8protobuf8internal12ExtensionSet9SetUInt64EihmPKNS0_15FieldDescriptorE
libgrpc++_error_details.so.1:_ZN6google8protobuf8internal12ExtensionSetC1EPNS0_5ArenaE
libgrpc++_error_details.so.1:_ZN6google8protobuf8internal12ExtensionSetC1Ev
libgrpc++_error_details.so.1:_ZN6google8protobuf8internal12ExtensionSetC2EPNS0_5ArenaE
libgrpc++_error_details.so.1:_ZN6google8protobuf8internal12ExtensionSetC2Ev
libgrpc++_error_details.so.1:_ZN6google8protobuf8internal12ExtensionSetD1Ev
libgrpc++_error_details.so.1:_ZN6google8protobuf8internal12ExtensionSetD2Ev
libgrpc++_error_details.so.1:_ZN6google8protobuf8internal12FieldSkipper11SkipMessageEPNS0_2io16CodedInputStreamE
libgrpc++_error_details.so.1:_ZN6google8protobuf8internal12FieldSkipper15SkipUnknownEnumEii
libgrpc++_error_details.so.1:_ZN6google8protobuf8internal12FieldSkipper9SkipFieldEPNS0_2io16CodedInputStreamEj
libgrpc++_error_details.so.1:_ZN6google8protobuf8internal12MapFieldBase11SetMapDirtyEv
libgrpc++_error_details.so.1:_ZN6google8protobuf8internal12MapFieldBase16SetRepeatedDirtyEv
libgrpc++_error_details.so.1:_ZN6google8protobuf8internal12MapFieldBase20MutableRepeatedFieldEv
libgrpc++_error_details.so.1:_ZN6google8protobuf8internal12MapFieldBaseD0Ev
libgrpc++_error_details.so.1:_ZN6google8protobuf8internal12MapFieldBaseD1Ev
libgrpc++_error_details.so.1:_ZN6google8protobuf8internal12MapFieldBaseD2Ev
libgrpc++_error_details.so.1:_ZN6google8protobuf8internal13DestroyStringEPKv
libgrpc++_error_details.so.1:_ZN6google8protobuf8internal13FieldMetadata13CalculateTypeEiNS2_14FieldTypeClassE
libgrpc++_error_details.so.1:_ZN6google8protobuf8internal13OnShutdownRunEPFvPKvES3_
libgrpc++_error_details.so.1:_ZN6google8protobuf8internal13ReflectionOps13IsInitializedERKNS0_7MessageE
libgrpc++_error_details.so.1:_ZN6google8protobuf8internal13ReflectionOps20DiscardUnknownFieldsEPNS0_7MessageE
libgrpc++_error_details.so.1:_ZN6google8protobuf8internal13ReflectionOps24FindInitializationErrorsERKNS0_7MessageERKNSt7__cxx1112basic_stringIcSt11char_traitsIcESaIcEEEPSt6vectorISB_SaISB_EE
libgrpc++_error_details.so.1:_ZN6google8protobuf8internal13ReflectionOps4CopyERKNS0_7MessageEPS3_
libgrpc++_error_details.so.1:_ZN6google8protobuf8internal13ReflectionOps5ClearEPNS0_7MessageE
libgrpc++_error_details.so.1:_ZN6google8protobuf8internal13ReflectionOps5MergeERKNS0_7MessageEPS3_
libgrpc++_error_details.so.1:_ZN6google8protobuf8internal13VerifyVersionEiiPKc
libgrpc++_error_details.so.1:_ZN6google8protobuf8internal13VersionStringB5cxx11Ei
libgrpc++_error_details.so.1:_ZN6google8protobuf8internal14AddDescriptorsEPKNS1_15DescriptorTableE
libgrpc++_error_details.so.1:_ZN6google8protobuf8internal14DestroyMessageEPKv
libgrpc++_error_details.so.1:_ZN6google8protobuf8internal14LazyDescriptor10OnceStaticEPS2_
libgrpc++_error_details.so.1:_ZN6google8protobuf8internal14LazyDescriptor12OnceInternalEv
libgrpc++_error_details.so.1:_ZN6google8protobuf8internal14LazyDescriptor3SetEPKNS0_10DescriptorE
libgrpc++_error_details.so.1:_ZN6google8protobuf8internal14LazyDescriptor4OnceEv
libgrpc++_error_details.so.1:_ZN6google8protobuf8internal14LazyDescriptor7SetLazyERKNSt7__cxx1112basic_stringIcSt11char_traitsIcESaIcEEEPKNS0_14FileDescriptorE
libgrpc++_error_details.so.1:_ZN6google8protobuf8internal14NullLogHandlerENS0_8LogLevelEPKciRKNSt7__cxx1112basic_stringIcSt11char_traitsIcESaIcEEE
libgrpc++_error_details.so.1:_ZN6google8protobuf8internal14ParseNamedEnumEPKNS0_14EnumDescriptorERKNSt7__cxx1112basic_stringIcSt11char_traitsIcESaIcEEEPi
libgrpc++_error_details.so.1:_ZN6google8protobuf8internal14WireFormatLite10SInt32SizeERKNS0_13RepeatedFieldIiEE
libgrpc++_error_details.so.1:_ZN6google8protobuf8internal14WireFormatLite10SInt64SizeERKNS0_13RepeatedFieldIlEE
libgrpc++_error_details.so.1:_ZN6google8protobuf8internal14WireFormatLite10UInt32SizeERKNS0_13RepeatedFieldIjEE
libgrpc++_error_details.so.1:_ZN6google8protobuf8internal14WireFormatLite10UInt64SizeERKNS0_13RepeatedFieldImEE
libgrpc++_error_details.so.1:_ZN6google8protobuf8internal14WireFormatLite10WriteBytesEiRKNSt7__cxx1112basic_stringIcSt11char_traitsIcESaIcEEEPNS0_2io17CodedOutputStreamE
libgrpc++_error_details.so.1:_ZN6google8protobuf8internal14WireFormatLite10WriteFloatEifPNS0_2io17CodedOutputStreamE
libgrpc++_error_details.so.1:_ZN6google8protobuf8internal14WireFormatLite10WriteGroupEiRKNS0_11MessageLiteEPNS0_2io17CodedOutputStreamE
libgrpc++_error_details.so.1:_ZN6google8protobuf8internal14WireFormatLite10WriteInt32EiiPNS0_2io17CodedOutputStreamE
libgrpc++_error_details.so.1:_ZN6google8protobuf8internal14WireFormatLite10WriteInt64EilPNS0_2io17CodedOutputStreamE
libgrpc++_error_details.so.1:_ZN6google8protobuf8internal14WireFormatLite11SkipMessageEPNS0_2io16CodedInputStreamE
libgrpc++_error_details.so.1:_ZN6google8protobuf8internal14WireFormatLite11SkipMessageEPNS0_2io16CodedInputStreamEPNS3_17CodedOutputStreamE
libgrpc++_error_details.so.1:_ZN6google8protobuf8internal14WireFormatLite11WriteDoubleEidPNS0_2io17CodedOutputStreamE
libgrpc++_error_details.so.1:_ZN6google8protobuf8internal14WireFormatLite11WriteSInt32EiiPNS0_2io17CodedOutputStreamE
libgrpc++_error_details.so.1:_ZN6google8protobuf8internal14WireFormatLite11WriteSInt64EilPNS0_2io17CodedOutputStreamE
libgrpc++_error_details.so.1:_ZN6google8protobuf8internal14WireFormatLite11WriteStringEiRKNSt7__cxx1112basic_stringIcSt11char_traitsIcESaIcEEEPNS0_2io17CodedOutputStreamE
libgrpc++_error_details.so.1:_ZN6google8protobuf8internal14WireFormatLite11WriteUInt32EijPNS0_2io17CodedOutputStreamE
libgrpc++_error_details.so.1:_ZN6google8protobuf8internal14WireFormatLite11WriteUInt64EimPNS0_2io17CodedOutputStreamE
libgrpc++_error_details.so.1:_ZN6google8protobuf8internal14WireFormatLite12WriteFixed32EijPNS0_2io17CodedOutputStreamE
libgrpc++_error_details.so.1:_ZN6google8protobuf8internal14WireFormatLite12WriteFixed64EimPNS0_2io17CodedOutputStreamE
libgrpc++_error_details.so.1:_ZN6google8protobuf8internal14WireFormatLite12WriteMessageEiRKNS0_11MessageLiteEPNS0_2io17CodedOutputStreamE
libgrpc++_error_details.so.1:_ZN6google8protobuf8internal14WireFormatLite13WriteSFixed32EiiPNS0_2io17CodedOutputStreamE
libgrpc++_error_details.so.1:_ZN6google8protobuf8internal14WireFormatLite13WriteSFixed64EilPNS0_2io17CodedOutputStreamE
libgrpc++_error_details.so.1:_ZN6google8protobuf8internal14WireFormatLite14WriteBoolArrayEPKbiPNS0_2io17CodedOutputStreamE
libgrpc++_error_details.so.1:_ZN6google8protobuf8internal14WireFormatLite15WriteFloatArrayEPKfiPNS0_2io17CodedOutputStreamE
libgrpc++_error_details.so.1:_ZN6google8protobuf8internal14WireFormatLite16VerifyUtf8StringEPKciNS2_9OperationES4_
libgrpc++_error_details.so.1:_ZN6google8protobuf8internal14WireFormatLite16WriteDoubleArrayEPKdiPNS0_2io17CodedOutputStreamE
libgrpc++_error_details.so.1:_ZN6google8protobuf8internal14WireFormatLite17WriteFixed32ArrayEPKjiPNS0_2io17CodedOutputStreamE
libgrpc++_error_details.so.1:_ZN6google8protobuf8internal14WireFormatLite17WriteFixed64ArrayEPKmiPNS0_2io17CodedOutputStreamE
libgrpc++_error_details.so.1:_ZN6google8protobuf8internal14WireFormatLite18WriteSFixed32ArrayEPKiiPNS0_2io17CodedOutputStreamE
libgrpc++_error_details.so.1:_ZN6google8protobuf8internal14WireFormatLite18WriteSFixed64ArrayEPKliPNS0_2io17CodedOutputStreamE
libgrpc++_error_details.so.1:_ZN6google8protobuf8internal14WireFormatLite22ReadPackedEnumNoInlineEPNS0_2io16CodedInputStreamEPFbiEPNS0_13RepeatedFieldIiEE
libgrpc++_error_details.so.1:_ZN6google8protobuf8internal14WireFormatLite22WriteBytesMaybeAliasedEiRKNSt7__cxx1112basic_stringIcSt11char_traitsIcESaIcEEEPNS0_2io17CodedOutputStreamE
libgrpc++_error_details.so.1:_ZN6google8protobuf8internal14WireFormatLite22WriteGroupMaybeToArrayEiRKNS0_11MessageLiteEPNS0_2io17CodedOutputStreamE
libgrpc++_error_details.so.1:_ZN6google8protobuf8internal14WireFormatLite23WriteStringMaybeAliasedEiRKNSt7__cxx1112basic_stringIcSt11char_traitsIcESaIcEEEPNS0_2io17CodedOutputStreamE
libgrpc++_error_details.so.1:_ZN6google8protobuf8internal14WireFormatLite24WriteMessageMaybeToArrayEiRKNS0_11MessageLiteEPNS0_2io17CodedOutputStreamE
libgrpc++_error_details.so.1:_ZN6google8protobuf8internal14WireFormatLite27WriteSubMessageMaybeToArrayEiRKNS0_11MessageLiteEPNS0_2io17CodedOutputStreamE
libgrpc++_error_details.so.1:_ZN6google8protobuf8internal14WireFormatLite30ReadPackedEnumPreserveUnknownsEPNS0_2io16CodedInputStreamEiPFbiEPNS3_17CodedOutputStreamEPNS0_13RepeatedFieldIiEE
libgrpc++_error_details.so.1:_ZN6google8protobuf8internal14WireFormatLite8EnumSizeERKNS0_13RepeatedFieldIiEE
libgrpc++_error_details.so.1:_ZN6google8protobuf8internal14WireFormatLite9Int32SizeERKNS0_13RepeatedFieldIiEE
libgrpc++_error_details.so.1:_ZN6google8protobuf8internal14WireFormatLite9Int64SizeERKNS0_13RepeatedFieldIlEE
libgrpc++_error_details.so.1:_ZN6google8protobuf8internal14WireFormatLite9ReadBytesEPNS0_2io16CodedInputStreamEPNSt7__cxx1112basic_stringIcSt11char_traitsIcESaIcEEE
libgrpc++_error_details.so.1:_ZN6google8protobuf8internal14WireFormatLite9ReadBytesEPNS0_2io16CodedInputStreamEPPNSt7__cxx1112basic_stringIcSt11char_traitsIcESaIcEEE
libgrpc++_error_details.so.1:_ZN6google8protobuf8internal14WireFormatLite9SkipFieldEPNS0_2io16CodedInputStreamEj
libgrpc++_error_details.so.1:_ZN6google8protobuf8internal14WireFormatLite9SkipFieldEPNS0_2io16CodedInputStreamEjPNS3_17CodedOutputStreamE
libgrpc++_error_details.so.1:_ZN6google8protobuf8internal14WireFormatLite9WriteBoolEibPNS0_2io17CodedOutputStreamE
libgrpc++_error_details.so.1:_ZN6google8protobuf8internal14WireFormatLite9WriteEnumEiiPNS0_2io17CodedOutputStreamE
libgrpc++_error_details.so.1:_ZN6google8protobuf8internal15DynamicMapField10MutableMapEv
libgrpc++_error_details.so.1:_ZN6google8protobuf8internal15DynamicMapField14DeleteMapValueERKNS0_6MapKeyE
libgrpc++_error_details.so.1:_ZN6google8protobuf8internal15DynamicMapField16AllocateMapValueEPNS0_11MapValueRefE
libgrpc++_error_details.so.1:_ZN6google8protobuf8internal15DynamicMapField22InsertOrLookupMapValueERKNS0_6MapKeyEPNS0_11MapValueRefE
libgrpc++_error_details.so.1:_ZN6google8protobuf8internal15DynamicMapField4SwapEPNS1_12MapFieldBaseE
libgrpc++_error_details.so.1:_ZN6google8protobuf8internal15DynamicMapField5ClearEv
libgrpc++_error_details.so.1:_ZN6google8protobuf8internal15DynamicMapField9MergeFromERKNS1_12MapFieldBaseE
libgrpc++_error_details.so.1:_ZN6google8protobuf8internal15DynamicMapFieldC1EPKNS0_7MessageE
libgrpc++_error_details.so.1:_ZN6google8protobuf8internal15DynamicMapFieldC1EPKNS0_7MessageEPNS0_5ArenaE
libgrpc++_error_details.so.1:_ZN6google8protobuf8internal15DynamicMapFieldC2EPKNS0_7MessageE
libgrpc++_error_details.so.1:_ZN6google8protobuf8internal15DynamicMapFieldC2EPKNS0_7MessageEPNS0_5ArenaE
libgrpc++_error_details.so.1:_ZN6google8protobuf8internal15DynamicMapFieldD0Ev
libgrpc++_error_details.so.1:_ZN6google8protobuf8internal15DynamicMapFieldD1Ev
libgrpc++_error_details.so.1:_ZN6google8protobuf8internal15DynamicMapFieldD2Ev
libgrpc++_error_details.so.1:_ZN6google8protobuf8internal15ExtensionFinderD0Ev
libgrpc++_error_details.so.1:_ZN6google8protobuf8internal15ExtensionFinderD1Ev
libgrpc++_error_details.so.1:_ZN6google8protobuf8internal15ExtensionFinderD2Ev
libgrpc++_error_details.so.1:_ZN6google8protobuf8internal15ParseAnyTypeUrlERKNSt7__cxx1112basic_stringIcSt11char_traitsIcESaIcEEEPS7_
libgrpc++_error_details.so.1:_ZN6google8protobuf8internal15ParseAnyTypeUrlERKNSt7__cxx1112basic_stringIcSt11char_traitsIcESaIcEEEPS7_SA_
libgrpc++_error_details.so.1:_ZN6google8protobuf8internal15UTF8GenericScanEPKNS1_19UTF8StateMachineObjEPKciPi
libgrpc++_error_details.so.1:_ZN6google8protobuf8internal16FunctionClosure0D0Ev
libgrpc++_error_details.so.1:_ZN6google8protobuf8internal16FunctionClosure0D1Ev
libgrpc++_error_details.so.1:_ZN6google8protobuf8internal16FunctionClosure0D2Ev
libgrpc++_error_details.so.1:_ZN6google8protobuf8internal17AssignDescriptorsEPKNS1_15DescriptorTableE
libgrpc++_error_details.so.1:_ZN6google8protobuf8internal17DefaultLogHandlerENS0_8LogLevelEPKciRKNSt7__cxx1112basic_stringIcSt11char_traitsIcESaIcEEE
libgrpc++_error_details.so.1:_ZN6google8protobuf8internal17PrintUTF8ErrorLogEPKcS3_b
libgrpc++_error_details.so.1:_ZN6google8protobuf8internal17SerializeInternalEPKhPKNS1_13FieldMetadataEiPNS0_2io17CodedOutputStreamE
libgrpc++_error_details.so.1:_ZN6google8protobuf8internal18GenericTypeHandlerINS0_11MessageLiteEE16NewFromPrototypeEPKS3_PNS0_5ArenaE
libgrpc++_error_details.so.1:_ZN6google8protobuf8internal18GenericTypeHandlerINS0_11MessageLiteEE5MergeERKS3_PS3_
libgrpc++_error_details.so.1:_ZN6google8protobuf8internal18GenericTypeHandlerINS0_7MessageEE16NewFromPrototypeEPKS3_PNS0_5ArenaE
libgrpc++_error_details.so.1:_ZN6google8protobuf8internal18GenericTypeHandlerINS0_7MessageEE20GetMaybeArenaPointerEPS3_
libgrpc++_error_details.so.1:_ZN6google8protobuf8internal18GenericTypeHandlerINS0_7MessageEE8GetArenaEPS3_
libgrpc++_error_details.so.1:_ZN6google8protobuf8internal18GenericTypeHandlerINSt7__cxx1112basic_stringIcSt11char_traitsIcESaIcEEEE5MergeERKS8_PS8_
libgrpc++_error_details.so.1:_ZN6google8protobuf8internal19ExtensionSerializerEPKhjjjPNS0_2io17CodedOutputStreamE
libgrpc++_error_details.so.1:_ZN6google8protobuf8internal19ImplicitWeakMessage16default_instanceEv
libgrpc++_error_details.so.1:_ZN6google8protobuf8internal19ImplicitWeakMessage27MergePartialFromCodedStreamEPNS0_2io16CodedInputStreamE
libgrpc++_error_details.so.1:_ZN6google8protobuf8internal20InitProtobufDefaultsEv
libgrpc++_error_details.so.1:_ZN6google8protobuf8internal20RepeatedPtrFieldBase14InternalExtendEi
libgrpc++_error_details.so.1:_ZN6google8protobuf8internal20RepeatedPtrFieldBase7AddWeakEPKNS0_11MessageLiteE
libgrpc++_error_details.so.1:_ZN6google8protobuf8internal20RepeatedPtrFieldBase7ReserveEi
libgrpc++_error_details.so.1:_ZN6google8protobuf8internal20RepeatedPtrFieldBase8CloseGapEii
libgrpc++_error_details.so.1:_ZN6google8protobuf8internal21MapFieldPrinterHelper7CopyKeyERKNS0_6MapKeyEPNS0_7MessageEPKNS0_15FieldDescriptorE
libgrpc++_error_details.so.1:_ZN6google8protobuf8internal21MapFieldPrinterHelper7SortMapERKNS0_7MessageEPKNS0_10ReflectionEPKNS0_15FieldDescriptorEPNS0_14MessageFactoryEPSt6vectorIPS4_SaISF_EE
libgrpc++_error_details.so.1:_ZN6google8protobuf8internal21MapFieldPrinterHelper9CopyValueERKNS0_11MapValueRefEPNS0_7MessageEPKNS0_15FieldDescriptorE
libgrpc++_error_details.so.1:_ZN6google8protobuf8internal22GetAnyFieldDescriptorsERKNS0_7MessageEPPKNS0_15FieldDescriptorES8_
libgrpc++_error_details.so.1:_ZN6google8protobuf8internal22MessageSetFieldSkipper19SkipMessageSetFieldEPNS0_2io16CodedInputStreamEi
libgrpc++_error_details.so.1:_ZN6google8protobuf8internal23GetOwnedMessageInternalEPNS0_5ArenaEPNS0_11MessageLiteES3_
libgrpc++_error_details.so.1:_ZN6google8protobuf8internal23IsStructurallyValidUTF8EPKci
libgrpc++_error_details.so.1:_ZN6google8protobuf8internal23SerializeMessageNoTableEPKNS0_11MessageLiteEPNS0_2io17CodedOutputStreamE
libgrpc++_error_details.so.1:_ZN6google8protobuf8internal23SerializeMessageNoTableEPKNS0_11MessageLiteEPNS1_11ArrayOutputE
libgrpc++_error_details.so.1:_ZN6google8protobuf8internal23SerializeNotImplementedEi
libgrpc++_error_details.so.1:_ZN6google8protobuf8internal24GeneratedExtensionFinder4FindEiPNS1_13ExtensionInfoE
libgrpc++_error_details.so.1:_ZN6google8protobuf8internal24RepeatedStringTypeTraits23GetDefaultRepeatedFieldB5cxx11Ev
libgrpc++_error_details.so.1:_ZN6google8protobuf8internal24SerializeInternalToArrayEPKhPKNS1_13FieldMetadataEibPh
libgrpc++_error_details.so.1:_ZN6google8protobuf8internal24SerializeMessageDispatchERKNS0_11MessageLiteEPKNS1_13FieldMetadataEiiPNS0_2io17CodedOutputStreamE
libgrpc++_error_details.so.1:_ZN6google8protobuf8internal24SerializeMessageDispatchERKNS0_11MessageLiteEPKNS1_13FieldMetadataEiiPNS1_11ArrayOutputE
libgrpc++_error_details.so.1:_ZN6google8protobuf8internal24UTF8GenericScanFastAsciiEPKNS1_19UTF8StateMachineObjEPKciPi
libgrpc++_error_details.so.1:_ZN6google8protobuf8internal24UTF8SpnStructurallyValidERKNS0_11StringPieceE
libgrpc++_error_details.so.1:_ZN6google8protobuf8internal25RegisterFileLevelMetadataEPKNS1_15DescriptorTableE
libgrpc++_error_details.so.1:_ZN6google8protobuf8internal25RepeatedPrimitiveDefaults16default_instanceEv
libgrpc++_error_details.so.1:_ZN6google8protobuf8internal25UnknownFieldSetSerializerEPKhjjjPNS0_2io17CodedOutputStreamE
libgrpc++_error_details.so.1:_ZN6google8protobuf8internal26DuplicateIfNonNullInternalEPNS0_11MessageLiteE
libgrpc++_error_details.so.1:_ZN6google8protobuf8internal26GeneratedMessageReflectionC1EPKNS0_10DescriptorERKNS1_16ReflectionSchemaEPKNS0_14DescriptorPoolEPNS0_14MessageFactoryE
libgrpc++_error_details.so.1:_ZN6google8protobuf8internal26GeneratedMessageReflectionC2EPKNS0_10DescriptorERKNS1_16ReflectionSchemaEPKNS0_14DescriptorPoolEPNS0_14MessageFactoryE
libgrpc++_error_details.so.1:_ZN6google8protobuf8internal26GeneratedMessageReflectionD0Ev
libgrpc++_error_details.so.1:_ZN6google8protobuf8internal26GeneratedMessageReflectionD1Ev
libgrpc++_error_details.so.1:_ZN6google8protobuf8internal26GeneratedMessageReflectionD2Ev
libgrpc++_error_details.so.1:_ZN6google8protobuf8internal26UnknownFieldSerializerLiteEPKhjjjPNS0_2io17CodedOutputStreamE
libgrpc++_error_details.so.1:_ZN6google8protobuf8internal27UnknownFieldSetFieldSkipper11SkipMessageEPNS0_2io16CodedInputStreamE
libgrpc++_error_details.so.1:_ZN6google8protobuf8internal27UnknownFieldSetFieldSkipper15SkipUnknownEnumEii
libgrpc++_error_details.so.1:_ZN6google8protobuf8internal27UnknownFieldSetFieldSkipper9SkipFieldEPNS0_2io16CodedInputStreamEj
libgrpc++_error_details.so.1:_ZN6google8protobuf8internal29CodedOutputStreamFieldSkipper11SkipMessageEPNS0_2io16CodedInputStreamE
libgrpc++_error_details.so.1:_ZN6google8protobuf8internal29CodedOutputStreamFieldSkipper15SkipUnknownEnumEii
libgrpc++_error_details.so.1:_ZN6google8protobuf8internal29CodedOutputStreamFieldSkipper9SkipFieldEPNS0_2io16CodedInputStreamEj
libgrpc++_error_details.so.1:_ZN6google8protobuf8internal29DescriptorPoolExtensionFinder4FindEiPNS1_13ExtensionInfoE
libgrpc++_error_details.so.1:_ZN6google8protobuf8internal29UTF8CoerceToStructurallyValidERKNS0_11StringPieceEPcc
libgrpc++_error_details.so.1:_ZN6google8protobuf8internal32StringSpaceUsedExcludingSelfLongERKNSt7__cxx1112basic_stringIcSt11char_traitsIcESaIcEEE
libgrpc++_error_details.so.1:_ZN6google8protobuf8internal38InitImplicitWeakMessageDefaultInstanceEv
libgrpc++_error_details.so.1:_ZN6google8protobuf8internal6IsNullILi10EEEbPKv
libgrpc++_error_details.so.1:_ZN6google8protobuf8internal6IsNullILi11EEEbPKv
libgrpc++_error_details.so.1:_ZN6google8protobuf8internal6IsNullILi12EEEbPKv
libgrpc++_error_details.so.1:_ZN6google8protobuf8internal6IsNullILi21EEEbPKv
libgrpc++_error_details.so.1:_ZN6google8protobuf8internal6IsNullILi9EEEbPKv
libgrpc++_error_details.so.1:_ZN6google8protobuf8internal9ArenaImpl10AddCleanupEPvPFvS3_E
libgrpc++_error_details.so.1:_ZN6google8protobuf8internal9ArenaImpl10FreeBlocksEv
libgrpc++_error_details.so.1:_ZN6google8protobuf8internal9ArenaImpl11CleanupListEv
libgrpc++_error_details.so.1:_ZN6google8protobuf8internal9ArenaImpl11SerialArena11CleanupListEv
libgrpc++_error_details.so.1:_ZN6google8protobuf8internal9ArenaImpl11SerialArena18AddCleanupFallbackEPvPFvS4_E
libgrpc++_error_details.so.1:_ZN6google8protobuf8internal9ArenaImpl11SerialArena19CleanupListFallbackEv
libgrpc++_error_details.so.1:_ZN6google8protobuf8internal9ArenaImpl11SerialArena23AllocateAlignedFallbackEm
libgrpc++_error_details.so.1:_ZN6google8protobuf8internal9ArenaImpl11SerialArena3NewEPNS2_5BlockEPvPS2_
libgrpc++_error_details.so.1:_ZN6google8protobuf8internal9ArenaImpl11SerialArena4FreeEPS3_PNS2_5BlockEPFvPvmE
libgrpc++_error_details.so.1:_ZN6google8protobuf8internal9ArenaImpl14GetSerialArenaEv
libgrpc++_error_details.so.1:_ZN6google8protobuf8internal9ArenaImpl15AllocateAlignedEm
libgrpc++_error_details.so.1:_ZN6google8protobuf8internal9ArenaImpl18AddCleanupFallbackEPvPFvS3_E
libgrpc++_error_details.so.1:_ZN6google8protobuf8internal9ArenaImpl22GetSerialArenaFallbackEPv
libgrpc++_error_details.so.1:_ZN6google8protobuf8internal9ArenaImpl23AllocateAlignedFallbackEm
libgrpc++_error_details.so.1:_ZN6google8protobuf8internal9ArenaImpl28AllocateAlignedAndAddCleanupEmPFvPvE
libgrpc++_error_details.so.1:_ZN6google8protobuf8internal9ArenaImpl36AllocateAlignedAndAddCleanupFallbackEmPFvPvE
libgrpc++_error_details.so.1:_ZN6google8protobuf8internal9ArenaImpl4InitEv
libgrpc++_error_details.so.1:_ZN6google8protobuf8internal9ArenaImpl5BlockC1EmPS3_
libgrpc++_error_details.so.1:_ZN6google8protobuf8internal9ArenaImpl5BlockC2EmPS3_
libgrpc++_error_details.so.1:_ZN6google8protobuf8internal9ArenaImpl5ResetEv
libgrpc++_error_details.so.1:_ZN6google8protobuf8internal9ArenaImpl8NewBlockEPNS2_5BlockEm
libgrpc++_error_details.so.1:_ZN6google8protobuf8internal9ArenaImplD1Ev
libgrpc++_error_details.so.1:_ZN6google8protobuf8internal9ArenaImplD2Ev
libgrpc++_error_details.so.1:_ZN6google8protobuf9DoNothingEv
libgrpc++_error_details.so.1:_ZN6google8protobuf9StrAppendEPNSt7__cxx1112basic_stringIcSt11char_traitsIcESaIcEEERKNS0_7strings8AlphaNumE
libgrpc++_error_details.so.1:_ZN6google8protobuf9StrAppendEPNSt7__cxx1112basic_stringIcSt11char_traitsIcESaIcEEERKNS0_7strings8AlphaNumESB_
libgrpc++_error_details.so.1:_ZN6google8protobuf9StrAppendEPNSt7__cxx1112basic_stringIcSt11char_traitsIcESaIcEEERKNS0_7strings8AlphaNumESB_SB_
libgrpc++_error_details.so.1:_ZN6google8protobuf9StrAppendEPNSt7__cxx1112basic_stringIcSt11char_traitsIcESaIcEEERKNS0_7strings8AlphaNumESB_SB_SB_
libgrpc++_error_details.so.1:_ZN6google8protobuflsERSoNS0_11StringPieceE
libgrpc++_error_details.so.1:_ZN6google8protobuflsERSoRKNS0_7uint128E
libgrpc++_error_details.so.1:_ZN9grpc_impl15SetErrorDetailsERKN6google3rpc6StatusEPN4grpc6StatusE
libgrpc++_error_details.so.1:_ZN9grpc_impl19ExtractErrorDetailsERKN4grpc6StatusEPN6google3rpc6StatusE
libgrpc++_error_details.so.1:_ZNK6google3rpc6Status11GetMetadataEv
libgrpc++_error_details.so.1:_ZNK6google3rpc6Status12ByteSizeLongEv
libgrpc++_error_details.so.1:_ZNK6google3rpc6Status13IsInitializedEv
libgrpc++_error_details.so.1:_ZNK6google3rpc6Status13SetCachedSizeEi
libgrpc++_error_details.so.1:_ZNK6google3rpc6Status24SerializeWithCachedSizesEPNS_8protobuf2io17CodedOutputStreamE
libgrpc++_error_details.so.1:_ZNK6google3rpc6Status39InternalSerializeWithCachedSizesToArrayEPh
libgrpc++_error_details.so.1:_ZNK6google8protobuf10Descriptor11DebugStringB5cxx11Ev
libgrpc++_error_details.so.1:_ZNK6google8protobuf10Descriptor11DebugStringEiPNSt7__cxx1112basic_stringIcSt11char_traitsIcESaIcEEERKNS0_18DebugStringOptionsEb
libgrpc++_error_details.so.1:_ZNK6google8protobuf10Descriptor14CopyJsonNameToEPNS0_15DescriptorProtoE
libgrpc++_error_details.so.1:_ZNK6google8protobuf10Descriptor14ExtensionRange6CopyToEPNS0_30DescriptorProto_ExtensionRangeE
libgrpc++_error_details.so.1:_ZNK6google8protobuf10Descriptor15FindFieldByNameERKNSt7__cxx1112basic_stringIcSt11char_traitsIcESaIcEEE
libgrpc++_error_details.so.1:_ZNK6google8protobuf10Descriptor15FindOneofByNameERKNSt7__cxx1112basic_stringIcSt11char_traitsIcESaIcEEE
libgrpc++_error_details.so.1:_ZNK6google8protobuf10Descriptor15GetLocationPathEPSt6vectorIiSaIiEE
libgrpc++_error_details.so.1:_ZNK6google8protobuf10Descriptor17FindFieldByNumberEi
libgrpc++_error_details.so.1:_ZNK6google8protobuf10Descriptor17GetSourceLocationEPNS0_14SourceLocationE
libgrpc++_error_details.so.1:_ZNK6google8protobuf10Descriptor18FindEnumTypeByNameERKNSt7__cxx1112basic_stringIcSt11char_traitsIcESaIcEEE
libgrpc++_error_details.so.1:_ZNK6google8protobuf10Descriptor19FindEnumValueByNameERKNSt7__cxx1112basic_stringIcSt11char_traitsIcESaIcEEE
libgrpc++_error_details.so.1:_ZNK6google8protobuf10Descriptor19FindExtensionByNameERKNSt7__cxx1112basic_stringIcSt11char_traitsIcESaIcEEE
libgrpc++_error_details.so.1:_ZNK6google8protobuf10Descriptor20FindNestedTypeByNameERKNSt7__cxx1112basic_stringIcSt11char_traitsIcESaIcEEE
libgrpc++_error_details.so.1:_ZNK6google8protobuf10Descriptor22DebugStringWithOptionsB5cxx11ERKNS0_18DebugStringOptionsE
libgrpc++_error_details.so.1:_ZNK6google8protobuf10Descriptor24FindFieldByCamelcaseNameERKNSt7__cxx1112basic_stringIcSt11char_traitsIcESaIcEEE
libgrpc++_error_details.so.1:_ZNK6google8protobuf10Descriptor24FindFieldByLowercaseNameERKNSt7__cxx1112basic_stringIcSt11char_traitsIcESaIcEEE
libgrpc++_error_details.so.1:_ZNK6google8protobuf10Descriptor28FindExtensionByCamelcaseNameERKNSt7__cxx1112basic_stringIcSt11char_traitsIcESaIcEEE
libgrpc++_error_details.so.1:_ZNK6google8protobuf10Descriptor28FindExtensionByLowercaseNameERKNSt7__cxx1112basic_stringIcSt11char_traitsIcESaIcEEE
libgrpc++_error_details.so.1:_ZNK6google8protobuf10Descriptor33FindReservedRangeContainingNumberEi
libgrpc++_error_details.so.1:_ZNK6google8protobuf10Descriptor34FindExtensionRangeContainingNumberEi
libgrpc++_error_details.so.1:_ZNK6google8protobuf10Descriptor6CopyToEPNS0_15DescriptorProtoE
libgrpc++_error_details.so.1:_ZNK6google8protobuf10Reflection16GetRepeatedFieldIbEERKNS0_13RepeatedFieldIT_EERKNS0_7MessageEPKNS0_15FieldDescriptorE
libgrpc++_error_details.so.1:_ZNK6google8protobuf10Reflection16GetRepeatedFieldIdEERKNS0_13RepeatedFieldIT_EERKNS0_7MessageEPKNS0_15FieldDescriptorE
libgrpc++_error_details.so.1:_ZNK6google8protobuf10Reflection16GetRepeatedFieldIfEERKNS0_13RepeatedFieldIT_EERKNS0_7MessageEPKNS0_15FieldDescriptorE
libgrpc++_error_details.so.1:_ZNK6google8protobuf10Reflection16GetRepeatedFieldIiEERKNS0_13RepeatedFieldIT_EERKNS0_7MessageEPKNS0_15FieldDescriptorE
libgrpc++_error_details.so.1:_ZNK6google8protobuf10Reflection16GetRepeatedFieldIjEERKNS0_13RepeatedFieldIT_EERKNS0_7MessageEPKNS0_15FieldDescriptorE
libgrpc++_error_details.so.1:_ZNK6google8protobuf10Reflection16GetRepeatedFieldIlEERKNS0_13RepeatedFieldIT_EERKNS0_7MessageEPKNS0_15FieldDescriptorE
libgrpc++_error_details.so.1:_ZNK6google8protobuf10Reflection16GetRepeatedFieldImEERKNS0_13RepeatedFieldIT_EERKNS0_7MessageEPKNS0_15FieldDescriptorE
libgrpc++_error_details.so.1:_ZNK6google8protobuf10Reflection17GetMessageFactoryEv
libgrpc++_error_details.so.1:_ZNK6google8protobuf10Reflection17RepeatedFieldDataEPNS0_7MessageEPKNS0_15FieldDescriptorENS4_7CppTypeEPKNS0_10DescriptorE
libgrpc++_error_details.so.1:_ZNK6google8protobuf10Reflection19AddAllocatedMessageEPNS0_7MessageEPKNS0_15FieldDescriptorES3_
libgrpc++_error_details.so.1:_ZNK6google8protobuf10Reflection20MutableRepeatedFieldIbEEPNS0_13RepeatedFieldIT_EEPNS0_7MessageEPKNS0_15FieldDescriptorE
libgrpc++_error_details.so.1:_ZNK6google8protobuf10Reflection20MutableRepeatedFieldIdEEPNS0_13RepeatedFieldIT_EEPNS0_7MessageEPKNS0_15FieldDescriptorE
libgrpc++_error_details.so.1:_ZNK6google8protobuf10Reflection20MutableRepeatedFieldIfEEPNS0_13RepeatedFieldIT_EEPNS0_7MessageEPKNS0_15FieldDescriptorE
libgrpc++_error_details.so.1:_ZNK6google8protobuf10Reflection20MutableRepeatedFieldIiEEPNS0_13RepeatedFieldIT_EEPNS0_7MessageEPKNS0_15FieldDescriptorE
libgrpc++_error_details.so.1:_ZNK6google8protobuf10Reflection20MutableRepeatedFieldIjEEPNS0_13RepeatedFieldIT_EEPNS0_7MessageEPKNS0_15FieldDescriptorE
libgrpc++_error_details.so.1:_ZNK6google8protobuf10Reflection20MutableRepeatedFieldIlEEPNS0_13RepeatedFieldIT_EEPNS0_7MessageEPKNS0_15FieldDescriptorE
libgrpc++_error_details.so.1:_ZNK6google8protobuf10Reflection20MutableRepeatedFieldImEEPNS0_13RepeatedFieldIT_EEPNS0_7MessageEPKNS0_15FieldDescriptorE
libgrpc++_error_details.so.1:_ZNK6google8protobuf10Reflection21RepeatedFieldAccessorEPKNS0_15FieldDescriptorE
libgrpc++_error_details.so.1:_ZNK6google8protobuf10Reflection24MutableRawRepeatedStringEPNS0_7MessageEPKNS0_15FieldDescriptorEb
libgrpc++_error_details.so.1:_ZNK6google8protobuf10Reflection6MapEndEPNS0_7MessageEPKNS0_15FieldDescriptorE
libgrpc++_error_details.so.1:_ZNK6google8protobuf10Reflection8MapBeginEPNS0_7MessageEPKNS0_15FieldDescriptorE
libgrpc++_error_details.so.1:_ZNK6google8protobuf10TextFormat13ParseInfoTree11GetLocationEPKNS0_15FieldDescriptorEi
libgrpc++_error_details.so.1:_ZNK6google8protobuf10TextFormat13ParseInfoTree16GetTreeForNestedEPKNS0_15FieldDescriptorEi
libgrpc++_error_details.so.1:_ZNK6google8protobuf10TextFormat17FieldValuePrinter10PrintBytesERKNSt7__cxx1112basic_stringIcSt11char_traitsIcESaIcEEE
libgrpc++_error_details.so.1:_ZNK6google8protobuf10TextFormat17FieldValuePrinter10PrintFloatB5cxx11Ef
libgrpc++_error_details.so.1:_ZNK6google8protobuf10TextFormat17FieldValuePrinter10PrintInt32B5cxx11Ei
libgrpc++_error_details.so.1:_ZNK6google8protobuf10TextFormat17FieldValuePrinter10PrintInt64B5cxx11El
libgrpc++_error_details.so.1:_ZNK6google8protobuf10TextFormat17FieldValuePrinter11PrintDoubleB5cxx11Ed
libgrpc++_error_details.so.1:_ZNK6google8protobuf10TextFormat17FieldValuePrinter11PrintStringERKNSt7__cxx1112basic_stringIcSt11char_traitsIcESaIcEEE
libgrpc++_error_details.so.1:_ZNK6google8protobuf10TextFormat17FieldValuePrinter11PrintUInt32B5cxx11Ej
libgrpc++_error_details.so.1:_ZNK6google8protobuf10TextFormat17FieldValuePrinter11PrintUInt64B5cxx11Em
libgrpc++_error_details.so.1:_ZNK6google8protobuf10TextFormat17FieldValuePrinter14PrintFieldNameB5cxx11ERKNS0_7MessageEPKNS0_10ReflectionEPKNS0_15FieldDescriptorE
libgrpc++_error_details.so.1:_ZNK6google8protobuf10TextFormat17FieldValuePrinter15PrintMessageEndB5cxx11ERKNS0_7MessageEiib
libgrpc++_error_details.so.1:_ZNK6google8protobuf10TextFormat17FieldValuePrinter17PrintMessageStartB5cxx11ERKNS0_7MessageEiib
libgrpc++_error_details.so.1:_ZNK6google8protobuf10TextFormat17FieldValuePrinter9PrintBoolB5cxx11Eb
libgrpc++_error_details.so.1:_ZNK6google8protobuf10TextFormat17FieldValuePrinter9PrintEnumEiRKNSt7__cxx1112basic_stringIcSt11char_traitsIcESaIcEEE
libgrpc++_error_details.so.1:_ZNK6google8protobuf10TextFormat21FastFieldValuePrinter10PrintBytesERKNSt7__cxx1112basic_stringIcSt11char_traitsIcESaIcEEEPNS1_17BaseTextGeneratorE
libgrpc++_error_details.so.1:_ZNK6google8protobuf10TextFormat21FastFieldValuePrinter10PrintFloatEfPNS1_17BaseTextGeneratorE
libgrpc++_error_details.so.1:_ZNK6google8protobuf10TextFormat21FastFieldValuePrinter10PrintInt32EiPNS1_17BaseTextGeneratorE
libgrpc++_error_details.so.1:_ZNK6google8protobuf10TextFormat21FastFieldValuePrinter10PrintInt64ElPNS1_17BaseTextGeneratorE
libgrpc++_error_details.so.1:_ZNK6google8protobuf10TextFormat21FastFieldValuePrinter11PrintDoubleEdPNS1_17BaseTextGeneratorE
libgrpc++_error_details.so.1:_ZNK6google8protobuf10TextFormat21FastFieldValuePrinter11PrintStringERKNSt7__cxx1112basic_stringIcSt11char_traitsIcESaIcEEEPNS1_17BaseTextGeneratorE
libgrpc++_error_details.so.1:_ZNK6google8protobuf10TextFormat21FastFieldValuePrinter11PrintUInt32EjPNS1_17BaseTextGeneratorE
libgrpc++_error_details.so.1:_ZNK6google8protobuf10TextFormat21FastFieldValuePrinter11PrintUInt64EmPNS1_17BaseTextGeneratorE
libgrpc++_error_details.so.1:_ZNK6google8protobuf10TextFormat21FastFieldValuePrinter14PrintFieldNameERKNS0_7MessageEPKNS0_10ReflectionEPKNS0_15FieldDescriptorEPNS1_17BaseTextGeneratorE
libgrpc++_error_details.so.1:_ZNK6google8protobuf10TextFormat21FastFieldValuePrinter14PrintFieldNameERKNS0_7MessageEiiPKNS0_10ReflectionEPKNS0_15FieldDescriptorEPNS1_17BaseTextGeneratorE
libgrpc++_error_details.so.1:_ZNK6google8protobuf10TextFormat21FastFieldValuePrinter15PrintMessageEndERKNS0_7MessageEiibPNS1_17BaseTextGeneratorE
libgrpc++_error_details.so.1:_ZNK6google8protobuf10TextFormat21FastFieldValuePrinter17PrintMessageStartERKNS0_7MessageEiibPNS1_17BaseTextGeneratorE
libgrpc++_error_details.so.1:_ZNK6google8protobuf10TextFormat21FastFieldValuePrinter9PrintBoolEbPNS1_17BaseTextGeneratorE
libgrpc++_error_details.so.1:_ZNK6google8protobuf10TextFormat21FastFieldValuePrinter9PrintEnumEiRKNSt7__cxx1112basic_stringIcSt11char_traitsIcESaIcEEEPNS1_17BaseTextGeneratorE
libgrpc++_error_details.so.1:_ZNK6google8protobuf10TextFormat6Finder11FindAnyTypeERKNS0_7MessageERKNSt7__cxx1112basic_stringIcSt11char_traitsIcESaIcEEESD_
libgrpc++_error_details.so.1:_ZNK6google8protobuf10TextFormat6Finder13FindExtensionEPNS0_7MessageERKNSt7__cxx1112basic_stringIcSt11char_traitsIcESaIcEEE
libgrpc++_error_details.so.1:_ZNK6google8protobuf10TextFormat6Finder20FindExtensionFactoryEPKNS0_15FieldDescriptorE
libgrpc++_error_details.so.1:_ZNK6google8protobuf10TextFormat7Printer10PrintFieldERKNS0_7MessageEPKNS0_10ReflectionEPKNS0_15FieldDescriptorEPNS2_13TextGeneratorE
libgrpc++_error_details.so.1:_ZNK6google8protobuf10TextFormat7Printer13PrintToStringERKNS0_7MessageEPNSt7__cxx1112basic_stringIcSt11char_traitsIcESaIcEEE
libgrpc++_error_details.so.1:_ZNK6google8protobuf10TextFormat7Printer14PrintFieldNameERKNS0_7MessageEiiPKNS0_10ReflectionEPKNS0_15FieldDescriptorEPNS2_13TextGeneratorE
libgrpc++_error_details.so.1:_ZNK6google8protobuf10TextFormat7Printer15PrintFieldValueERKNS0_7MessageEPKNS0_10ReflectionEPKNS0_15FieldDescriptorEiPNS2_13TextGeneratorE
libgrpc++_error_details.so.1:_ZNK6google8protobuf10TextFormat7Printer18PrintUnknownFieldsERKNS0_15UnknownFieldSetEPNS0_2io20ZeroCopyOutputStreamE
libgrpc++_error_details.so.1:_ZNK6google8protobuf10TextFormat7Printer18PrintUnknownFieldsERKNS0_15UnknownFieldSetEPNS2_13TextGeneratorE
libgrpc++_error_details.so.1:_ZNK6google8protobuf10TextFormat7Printer23PrintFieldValueToStringERKNS0_7MessageEPKNS0_15FieldDescriptorEiPNSt7__cxx1112basic_stringIcSt11char_traitsIcESaIcEEE
libgrpc++_error_details.so.1:_ZNK6google8protobuf10TextFormat7Printer23PrintShortRepeatedFieldERKNS0_7MessageEPKNS0_10ReflectionEPKNS0_15FieldDescriptorEPNS2_13TextGeneratorE
libgrpc++_error_details.so.1:_ZNK6google8protobuf10TextFormat7Printer26PrintUnknownFieldsToStringERKNS0_15UnknownFieldSetEPNSt7__cxx1112basic_stringIcSt11char_traitsIcESaIcEEE
libgrpc++_error_details.so.1:_ZNK6google8protobuf10TextFormat7Printer5PrintERKNS0_7MessageEPNS0_2io20ZeroCopyOutputStreamE
libgrpc++_error_details.so.1:_ZNK6google8protobuf10TextFormat7Printer5PrintERKNS0_7MessageEPNS2_13TextGeneratorE
libgrpc++_error_details.so.1:_ZNK6google8protobuf10TextFormat7Printer8PrintAnyERKNS0_7MessageEPNS2_13TextGeneratorE
libgrpc++_error_details.so.1:_ZNK6google8protobuf11EnumOptions11GetMetadataEv
libgrpc++_error_details.so.1:_ZNK6google8protobuf11EnumOptions12ByteSizeLongEv
libgrpc++_error_details.so.1:_ZNK6google8protobuf11EnumOptions13IsInitializedEv
libgrpc++_error_details.so.1:_ZNK6google8protobuf11EnumOptions13SetCachedSizeEi
libgrpc++_error_details.so.1:_ZNK6google8protobuf11EnumOptions24SerializeWithCachedSizesEPNS0_2io17CodedOutputStreamE
libgrpc++_error_details.so.1:_ZNK6google8protobuf11EnumOptions39InternalSerializeWithCachedSizesToArrayEPh
libgrpc++_error_details.so.1:_ZNK6google8protobuf11FileOptions11GetMetadataEv
libgrpc++_error_details.so.1:_ZNK6google8protobuf11FileOptions12ByteSizeLongEv
libgrpc++_error_details.so.1:_ZNK6google8protobuf11FileOptions13IsInitializedEv
libgrpc++_error_details.so.1:_ZNK6google8protobuf11FileOptions13SetCachedSizeEi
libgrpc++_error_details.so.1:_ZNK6google8protobuf11FileOptions24SerializeWithCachedSizesEPNS0_2io17CodedOutputStreamE
libgrpc++_error_details.so.1:_ZNK6google8protobuf11FileOptions39InternalSerializeWithCachedSizesToArrayEPh
libgrpc++_error_details.so.1:_ZNK6google8protobuf11MessageLite11DebugStringB5cxx11Ev
libgrpc++_error_details.so.1:_ZNK6google8protobuf11MessageLite14AppendToStringEPNSt7__cxx1112basic_stringIcSt11char_traitsIcESaIcEEE
libgrpc++_error_details.so.1:_ZNK6google8protobuf11MessageLite16SerializeToArrayEPvi
libgrpc++_error_details.so.1:_ZNK6google8protobuf11MessageLite17SerializeAsStringB5cxx11Ev
libgrpc++_error_details.so.1:_ZNK6google8protobuf11MessageLite17SerializeToStringEPNSt7__cxx1112basic_stringIcSt11char_traitsIcESaIcEEE
libgrpc++_error_details.so.1:_ZNK6google8protobuf11MessageLite21AppendPartialToStringEPNSt7__cxx1112basic_stringIcSt11char_traitsIcESaIcEEE
libgrpc++_error_details.so.1:_ZNK6google8protobuf11MessageLite22SerializeToCodedStreamEPNS0_2io17CodedOutputStreamE
libgrpc++_error_details.so.1:_ZNK6google8protobuf11MessageLite23SerializePartialToArrayEPvi
libgrpc++_error_details.so.1:_ZNK6google8protobuf11MessageLite24SerializePartialAsStringB5cxx11Ev
libgrpc++_error_details.so.1:_ZNK6google8protobuf11MessageLite24SerializePartialToStringEPNSt7__cxx1112basic_stringIcSt11char_traitsIcESaIcEEE
libgrpc++_error_details.so.1:_ZNK6google8protobuf11MessageLite24SerializeWithCachedSizesEPNS0_2io17CodedOutputStreamE
libgrpc++_error_details.so.1:_ZNK6google8protobuf11MessageLite25InitializationErrorStringB5cxx11Ev
libgrpc++_error_details.so.1:_ZNK6google8protobuf11MessageLite25SerializeToZeroCopyStreamEPNS0_2io20ZeroCopyOutputStreamE
libgrpc++_error_details.so.1:_ZNK6google8protobuf11MessageLite29LogInitializationErrorMessageEv
libgrpc++_error_details.so.1:_ZNK6google8protobuf11MessageLite29SerializePartialToCodedStreamEPNS0_2io17CodedOutputStreamE
libgrpc++_error_details.so.1:_ZNK6google8protobuf11MessageLite31SerializeWithCachedSizesToArrayEPh
libgrpc++_error_details.so.1:_ZNK6google8protobuf11MessageLite32SerializePartialToZeroCopyStreamEPNS0_2io20ZeroCopyOutputStreamE
libgrpc++_error_details.so.1:_ZNK6google8protobuf11MessageLite39InternalSerializeWithCachedSizesToArrayEPh
libgrpc++_error_details.so.1:_ZNK6google8protobuf11MessageLite3NewEPNS0_5ArenaE
libgrpc++_error_details.so.1:_ZNK6google8protobuf11StringPiece12CopyToStringEPNSt7__cxx1112basic_stringIcSt11char_traitsIcESaIcEEE
libgrpc++_error_details.so.1:_ZNK6google8protobuf11StringPiece12find_last_ofES1_m
libgrpc++_error_details.so.1:_ZNK6google8protobuf11StringPiece13find_first_ofES1_m
libgrpc++_error_details.so.1:_ZNK6google8protobuf11StringPiece14AppendToStringEPNSt7__cxx1112basic_stringIcSt11char_traitsIcESaIcEEE
libgrpc++_error_details.so.1:_ZNK6google8protobuf11StringPiece16find_last_not_ofES1_m
libgrpc++_error_details.so.1:_ZNK6google8protobuf11StringPiece16find_last_not_ofEcm
libgrpc++_error_details.so.1:_ZNK6google8protobuf11StringPiece17find_first_not_ofES1_m
libgrpc++_error_details.so.1:_ZNK6google8protobuf11StringPiece17find_first_not_ofEcm
libgrpc++_error_details.so.1:_ZNK6google8protobuf11StringPiece4copyEPcmm
libgrpc++_error_details.so.1:_ZNK6google8protobuf11StringPiece4findES1_m
libgrpc++_error_details.so.1:_ZNK6google8protobuf11StringPiece4findEcm
libgrpc++_error_details.so.1:_ZNK6google8protobuf11StringPiece5rfindES1_m
libgrpc++_error_details.so.1:_ZNK6google8protobuf11StringPiece5rfindEcm
libgrpc++_error_details.so.1:_ZNK6google8protobuf11StringPiece6substrEmm
libgrpc++_error_details.so.1:_ZNK6google8protobuf11StringPiece8containsES1_
libgrpc++_error_details.so.1:_ZNK6google8protobuf12FieldOptions11GetMetadataEv
libgrpc++_error_details.so.1:_ZNK6google8protobuf12FieldOptions12ByteSizeLongEv
libgrpc++_error_details.so.1:_ZNK6google8protobuf12FieldOptions13IsInitializedEv
libgrpc++_error_details.so.1:_ZNK6google8protobuf12FieldOptions13SetCachedSizeEi
libgrpc++_error_details.so.1:_ZNK6google8protobuf12FieldOptions24SerializeWithCachedSizesEPNS0_2io17CodedOutputStreamE
libgrpc++_error_details.so.1:_ZNK6google8protobuf12FieldOptions39InternalSerializeWithCachedSizesToArrayEPh
libgrpc++_error_details.so.1:_ZNK6google8protobuf12OneofOptions11GetMetadataEv
libgrpc++_error_details.so.1:_ZNK6google8protobuf12OneofOptions12ByteSizeLongEv
libgrpc++_error_details.so.1:_ZNK6google8protobuf12OneofOptions13IsInitializedEv
libgrpc++_error_details.so.1:_ZNK6google8protobuf12OneofOptions13SetCachedSizeEi
libgrpc++_error_details.so.1:_ZNK6google8protobuf12OneofOptions24SerializeWithCachedSizesEPNS0_2io17CodedOutputStreamE
libgrpc++_error_details.so.1:_ZNK6google8protobuf12OneofOptions39InternalSerializeWithCachedSizesToArrayEPh
libgrpc++_error_details.so.1:_ZNK6google8protobuf12UnknownField29SerializeLengthDelimitedNoTagEPNS0_2io17CodedOutputStreamE
libgrpc++_error_details.so.1:_ZNK6google8protobuf12UnknownField36SerializeLengthDelimitedNoTagToArrayEPh
libgrpc++_error_details.so.1:_ZNK6google8protobuf13MethodOptions11GetMetadataEv
libgrpc++_error_details.so.1:_ZNK6google8protobuf13MethodOptions12ByteSizeLongEv
libgrpc++_error_details.so.1:_ZNK6google8protobuf13MethodOptions13IsInitializedEv
libgrpc++_error_details.so.1:_ZNK6google8protobuf13MethodOptions13SetCachedSizeEi
libgrpc++_error_details.so.1:_ZNK6google8protobuf13MethodOptions24SerializeWithCachedSizesEPNS0_2io17CodedOutputStreamE
libgrpc++_error_details.so.1:_ZNK6google8protobuf13MethodOptions39InternalSerializeWithCachedSizesToArrayEPh
libgrpc++_error_details.so.1:_ZNK6google8protobuf14DescriptorPool14FindFileByNameERKNSt7__cxx1112basic_stringIcSt11char_traitsIcESaIcEEE
libgrpc++_error_details.so.1:_ZNK6google8protobuf14DescriptorPool14NewPlaceholderERKNSt7__cxx1112basic_stringIcSt11char_traitsIcESaIcEEENS1_15PlaceholderTypeE
libgrpc++_error_details.so.1:_ZNK6google8protobuf14DescriptorPool15FindFieldByNameERKNSt7__cxx1112basic_stringIcSt11char_traitsIcESaIcEEE
libgrpc++_error_details.so.1:_ZNK6google8protobuf14DescriptorPool15FindOneofByNameERKNSt7__cxx1112basic_stringIcSt11char_traitsIcESaIcEEE
libgrpc++_error_details.so.1:_ZNK6google8protobuf14DescriptorPool16FindMethodByNameERKNSt7__cxx1112basic_stringIcSt11char_traitsIcESaIcEEE
libgrpc++_error_details.so.1:_ZNK6google8protobuf14DescriptorPool17FindAllExtensionsEPKNS0_10DescriptorEPSt6vectorIPKNS0_15FieldDescriptorESaIS8_EE
libgrpc++_error_details.so.1:_ZNK6google8protobuf14DescriptorPool17FindServiceByNameERKNSt7__cxx1112basic_stringIcSt11char_traitsIcESaIcEEE
libgrpc++_error_details.so.1:_ZNK6google8protobuf14DescriptorPool18FindEnumTypeByNameERKNSt7__cxx1112basic_stringIcSt11char_traitsIcESaIcEEE
libgrpc++_error_details.so.1:_ZNK6google8protobuf14DescriptorPool18NewPlaceholderFileERKNSt7__cxx1112basic_stringIcSt11char_traitsIcESaIcEEE
libgrpc++_error_details.so.1:_ZNK6google8protobuf14DescriptorPool19FindEnumValueByNameERKNSt7__cxx1112basic_stringIcSt11char_traitsIcESaIcEEE
libgrpc++_error_details.so.1:_ZNK6google8protobuf14DescriptorPool19FindExtensionByNameERKNSt7__cxx1112basic_stringIcSt11char_traitsIcESaIcEEE
libgrpc++_error_details.so.1:_ZNK6google8protobuf14DescriptorPool20InternalIsFileLoadedERKNSt7__cxx1112basic_stringIcSt11char_traitsIcESaIcEEE
libgrpc++_error_details.so.1:_ZNK6google8protobuf14DescriptorPool21BuildFileFromDatabaseERKNS0_19FileDescriptorProtoE
libgrpc++_error_details.so.1:_ZNK6google8protobuf14DescriptorPool21FindExtensionByNumberEPKNS0_10DescriptorEi
libgrpc++_error_details.so.1:_ZNK6google8protobuf14DescriptorPool21FindMessageTypeByNameERKNSt7__cxx1112basic_stringIcSt11char_traitsIcESaIcEEE
libgrpc++_error_details.so.1:_ZNK6google8protobuf14DescriptorPool22IsSubSymbolOfBuiltTypeERKNSt7__cxx1112basic_stringIcSt11char_traitsIcESaIcEEE
libgrpc++_error_details.so.1:_ZNK6google8protobuf14DescriptorPool23CrossLinkOnDemandHelperERKNSt7__cxx1112basic_stringIcSt11char_traitsIcESaIcEEEb
libgrpc++_error_details.so.1:_ZNK6google8protobuf14DescriptorPool24FindFileContainingSymbolERKNSt7__cxx1112basic_stringIcSt11char_traitsIcESaIcEEE
libgrpc++_error_details.so.1:_ZNK6google8protobuf14DescriptorPool27NewPlaceholderWithMutexHeldERKNSt7__cxx1112basic_stringIcSt11char_traitsIcESaIcEEENS1_15PlaceholderTypeE
libgrpc++_error_details.so.1:_ZNK6google8protobuf14DescriptorPool29TryFindFileInFallbackDatabaseERKNSt7__cxx1112basic_stringIcSt11char_traitsIcESaIcEEE
libgrpc++_error_details.so.1:_ZNK6google8protobuf14DescriptorPool31NewPlaceholderFileWithMutexHeldERKNSt7__cxx1112basic_stringIcSt11char_traitsIcESaIcEEE
libgrpc++_error_details.so.1:_ZNK6google8protobuf14DescriptorPool31TryFindSymbolInFallbackDatabaseERKNSt7__cxx1112basic_stringIcSt11char_traitsIcESaIcEEE
libgrpc++_error_details.so.1:_ZNK6google8protobuf14DescriptorPool34TryFindExtensionInFallbackDatabaseEPKNS0_10DescriptorEi
libgrpc++_error_details.so.1:_ZNK6google8protobuf14DynamicMessage11GetMetadataEv
libgrpc++_error_details.so.1:_ZNK6google8protobuf14DynamicMessage13GetCachedSizeEv
libgrpc++_error_details.so.1:_ZNK6google8protobuf14DynamicMessage13SetCachedSizeEi
libgrpc++_error_details.so.1:_ZNK6google8protobuf14DynamicMessage3NewEPNS0_5ArenaE
libgrpc++_error_details.so.1:_ZNK6google8protobuf14DynamicMessage3NewEv
libgrpc++_error_details.so.1:_ZNK6google8protobuf14EnumDescriptor11DebugStringB5cxx11Ev
libgrpc++_error_details.so.1:_ZNK6google8protobuf14EnumDescriptor11DebugStringEiPNSt7__cxx1112basic_stringIcSt11char_traitsIcESaIcEEERKNS0_18DebugStringOptionsE
libgrpc++_error_details.so.1:_ZNK6google8protobuf14EnumDescriptor15FindValueByNameERKNSt7__cxx1112basic_stringIcSt11char_traitsIcESaIcEEE
libgrpc++_error_details.so.1:_ZNK6google8protobuf14EnumDescriptor15GetLocationPathEPSt6vectorIiSaIiEE
libgrpc++_error_details.so.1:_ZNK6google8protobuf14EnumDescriptor17FindValueByNumberEi
libgrpc++_error_details.so.1:_ZNK6google8protobuf14EnumDescriptor17GetSourceLocationEPNS0_14SourceLocationE
libgrpc++_error_details.so.1:_ZNK6google8protobuf14EnumDescriptor22DebugStringWithOptionsB5cxx11ERKNS0_18DebugStringOptionsE
libgrpc++_error_details.so.1:_ZNK6google8protobuf14EnumDescriptor33FindReservedRangeContainingNumberEi
libgrpc++_error_details.so.1:_ZNK6google8protobuf14EnumDescriptor34FindValueByNumberCreatingIfUnknownEi
libgrpc++_error_details.so.1:_ZNK6google8protobuf14EnumDescriptor6CopyToEPNS0_19EnumDescriptorProtoE
libgrpc++_error_details.so.1:_ZNK6google8protobuf14FatalException4whatEv
libgrpc++_error_details.so.1:_ZNK6google8protobuf14FileDescriptor10dependencyEi
libgrpc++_error_details.so.1:_ZNK6google8protobuf14FileDescriptor11DebugStringB5cxx11Ev
libgrpc++_error_details.so.1:_ZNK6google8protobuf14FileDescriptor14CopyJsonNameToEPNS0_19FileDescriptorProtoE
libgrpc++_error_details.so.1:_ZNK6google8protobuf14FileDescriptor17FindServiceByNameERKNSt7__cxx1112basic_stringIcSt11char_traitsIcESaIcEEE
libgrpc++_error_details.so.1:_ZNK6google8protobuf14FileDescriptor17GetSourceLocationEPNS0_14SourceLocationE
libgrpc++_error_details.so.1:_ZNK6google8protobuf14FileDescriptor17GetSourceLocationERKSt6vectorIiSaIiEEPNS0_14SourceLocationE
libgrpc++_error_details.so.1:_ZNK6google8protobuf14FileDescriptor18FindEnumTypeByNameERKNSt7__cxx1112basic_stringIcSt11char_traitsIcESaIcEEE
libgrpc++_error_details.so.1:_ZNK6google8protobuf14FileDescriptor19FindEnumValueByNameERKNSt7__cxx1112basic_stringIcSt11char_traitsIcESaIcEEE
libgrpc++_error_details.so.1:_ZNK6google8protobuf14FileDescriptor19FindExtensionByNameERKNSt7__cxx1112basic_stringIcSt11char_traitsIcESaIcEEE
libgrpc++_error_details.so.1:_ZNK6google8protobuf14FileDescriptor20CopySourceCodeInfoToEPNS0_19FileDescriptorProtoE
libgrpc++_error_details.so.1:_ZNK6google8protobuf14FileDescriptor21FindMessageTypeByNameERKNSt7__cxx1112basic_stringIcSt11char_traitsIcESaIcEEE
libgrpc++_error_details.so.1:_ZNK6google8protobuf14FileDescriptor22DebugStringWithOptionsB5cxx11ERKNS0_18DebugStringOptionsE
libgrpc++_error_details.so.1:_ZNK6google8protobuf14FileDescriptor28FindExtensionByCamelcaseNameERKNSt7__cxx1112basic_stringIcSt11char_traitsIcESaIcEEE
libgrpc++_error_details.so.1:_ZNK6google8protobuf14FileDescriptor28FindExtensionByLowercaseNameERKNSt7__cxx1112basic_stringIcSt11char_traitsIcESaIcEEE
libgrpc++_error_details.so.1:_ZNK6google8protobuf14FileDescriptor28InternalDependenciesOnceInitEv
libgrpc++_error_details.so.1:_ZNK6google8protobuf14FileDescriptor6CopyToEPNS0_19FileDescriptorProtoE
libgrpc++_error_details.so.1:_ZNK6google8protobuf14MessageOptions11GetMetadataEv
libgrpc++_error_details.so.1:_ZNK6google8protobuf14MessageOptions12ByteSizeLongEv
libgrpc++_error_details.so.1:_ZNK6google8protobuf14MessageOptions13IsInitializedEv
libgrpc++_error_details.so.1:_ZNK6google8protobuf14MessageOptions13SetCachedSizeEi
libgrpc++_error_details.so.1:_ZNK6google8protobuf14MessageOptions24SerializeWithCachedSizesEPNS0_2io17CodedOutputStreamE
libgrpc++_error_details.so.1:_ZNK6google8protobuf14MessageOptions39InternalSerializeWithCachedSizesToArrayEPh
libgrpc++_error_details.so.1:_ZNK6google8protobuf14ServiceOptions11GetMetadataEv
libgrpc++_error_details.so.1:_ZNK6google8protobuf14ServiceOptions12ByteSizeLongEv
libgrpc++_error_details.so.1:_ZNK6google8protobuf14ServiceOptions13IsInitializedEv
libgrpc++_error_details.so.1:_ZNK6google8protobuf14ServiceOptions13SetCachedSizeEi
libgrpc++_error_details.so.1:_ZNK6google8protobuf14ServiceOptions24SerializeWithCachedSizesEPNS0_2io17CodedOutputStreamE
libgrpc++_error_details.so.1:_ZNK6google8protobuf14ServiceOptions39InternalSerializeWithCachedSizesToArrayEPh
libgrpc++_error_details.so.1:_ZNK6google8protobuf14SourceCodeInfo11GetMetadataEv
libgrpc++_error_details.so.1:_ZNK6google8protobuf14SourceCodeInfo12ByteSizeLongEv
libgrpc++_error_details.so.1:_ZNK6google8protobuf14SourceCodeInfo13IsInitializedEv
libgrpc++_error_details.so.1:_ZNK6google8protobuf14SourceCodeInfo13SetCachedSizeEi
libgrpc++_error_details.so.1:_ZNK6google8protobuf14SourceCodeInfo24SerializeWithCachedSizesEPNS0_2io17CodedOutputStreamE
libgrpc++_error_details.so.1:_ZNK6google8protobuf14SourceCodeInfo39InternalSerializeWithCachedSizesToArrayEPh
libgrpc++_error_details.so.1:_ZNK6google8protobuf15DescriptorProto11GetMetadataEv
libgrpc++_error_details.so.1:_ZNK6google8protobuf15DescriptorProto12ByteSizeLongEv
libgrpc++_error_details.so.1:_ZNK6google8protobuf15DescriptorProto13IsInitializedEv
libgrpc++_error_details.so.1:_ZNK6google8protobuf15DescriptorProto13SetCachedSizeEi
libgrpc++_error_details.so.1:_ZNK6google8protobuf15DescriptorProto24SerializeWithCachedSizesEPNS0_2io17CodedOutputStreamE
libgrpc++_error_details.so.1:_ZNK6google8protobuf15DescriptorProto39InternalSerializeWithCachedSizesToArrayEPh
libgrpc++_error_details.so.1:_ZNK6google8protobuf15FieldDescriptor11DebugStringB5cxx11Ev
libgrpc++_error_details.so.1:_ZNK6google8protobuf15FieldDescriptor11DebugStringEiNS1_14PrintLabelFlagEPNSt7__cxx1112basic_stringIcSt11char_traitsIcESaIcEEERKNS0_18DebugStringOptionsE
libgrpc++_error_details.so.1:_ZNK6google8protobuf15FieldDescriptor12message_typeEv
libgrpc++_error_details.so.1:_ZNK6google8protobuf15FieldDescriptor14CopyJsonNameToEPNS0_20FieldDescriptorProtoE
libgrpc++_error_details.so.1:_ZNK6google8protobuf15FieldDescriptor15GetLocationPathEPSt6vectorIiSaIiEE
libgrpc++_error_details.so.1:_ZNK6google8protobuf15FieldDescriptor17GetSourceLocationEPNS0_14SourceLocationE
libgrpc++_error_details.so.1:_ZNK6google8protobuf15FieldDescriptor18default_value_enumEv
libgrpc++_error_details.so.1:_ZNK6google8protobuf15FieldDescriptor19is_map_message_typeEv
libgrpc++_error_details.so.1:_ZNK6google8protobuf15FieldDescriptor20DefaultValueAsStringB5cxx11Eb
libgrpc++_error_details.so.1:_ZNK6google8protobuf15FieldDescriptor20InternalTypeOnceInitEv
libgrpc++_error_details.so.1:_ZNK6google8protobuf15FieldDescriptor22DebugStringWithOptionsB5cxx11ERKNS0_18DebugStringOptionsE
libgrpc++_error_details.so.1:_ZNK6google8protobuf15FieldDescriptor24FieldTypeNameDebugStringB5cxx11Ev
libgrpc++_error_details.so.1:_ZNK6google8protobuf15FieldDescriptor6CopyToEPNS0_20FieldDescriptorProtoE
libgrpc++_error_details.so.1:_ZNK6google8protobuf15FieldDescriptor9enum_typeEv
libgrpc++_error_details.so.1:_ZNK6google8protobuf15FieldDescriptor9is_packedEv
libgrpc++_error_details.so.1:_ZNK6google8protobuf15OneofDescriptor11DebugStringB5cxx11Ev
libgrpc++_error_details.so.1:_ZNK6google8protobuf15OneofDescriptor11DebugStringEiPNSt7__cxx1112basic_stringIcSt11char_traitsIcESaIcEEERKNS0_18DebugStringOptionsE
libgrpc++_error_details.so.1:_ZNK6google8protobuf15OneofDescriptor15GetLocationPathEPSt6vectorIiSaIiEE
libgrpc++_error_details.so.1:_ZNK6google8protobuf15OneofDescriptor17GetSourceLocationEPNS0_14SourceLocationE
libgrpc++_error_details.so.1:_ZNK6google8protobuf15OneofDescriptor22DebugStringWithOptionsB5cxx11ERKNS0_18DebugStringOptionsE
libgrpc++_error_details.so.1:_ZNK6google8protobuf15OneofDescriptor6CopyToEPNS0_20OneofDescriptorProtoE
libgrpc++_error_details.so.1:_ZNK6google8protobuf15UnknownFieldSet13SpaceUsedLongEv
libgrpc++_error_details.so.1:_ZNK6google8protobuf15UnknownFieldSet26SpaceUsedExcludingSelfLongEv
libgrpc++_error_details.so.1:_ZNK6google8protobuf16EnumValueOptions11GetMetadataEv
libgrpc++_error_details.so.1:_ZNK6google8protobuf16EnumValueOptions12ByteSizeLongEv
libgrpc++_error_details.so.1:_ZNK6google8protobuf16EnumValueOptions13IsInitializedEv
libgrpc++_error_details.so.1:_ZNK6google8protobuf16EnumValueOptions13SetCachedSizeEi
libgrpc++_error_details.so.1:_ZNK6google8protobuf16EnumValueOptions24SerializeWithCachedSizesEPNS0_2io17CodedOutputStreamE
libgrpc++_error_details.so.1:_ZNK6google8protobuf16EnumValueOptions39InternalSerializeWithCachedSizesToArrayEPh
libgrpc++_error_details.so.1:_ZNK6google8protobuf16MethodDescriptor10input_typeEv
libgrpc++_error_details.so.1:_ZNK6google8protobuf16MethodDescriptor11DebugStringB5cxx11Ev
libgrpc++_error_details.so.1:_ZNK6google8protobuf16MethodDescriptor11DebugStringEiPNSt7__cxx1112basic_stringIcSt11char_traitsIcESaIcEEERKNS0_18DebugStringOptionsE
libgrpc++_error_details.so.1:_ZNK6google8protobuf16MethodDescriptor11output_typeEv
libgrpc++_error_details.so.1:_ZNK6google8protobuf16MethodDescriptor15GetLocationPathEPSt6vectorIiSaIiEE
libgrpc++_error_details.so.1:_ZNK6google8protobuf16MethodDescriptor17GetSourceLocationEPNS0_14SourceLocationE
libgrpc++_error_details.so.1:_ZNK6google8protobuf16MethodDescriptor22DebugStringWithOptionsB5cxx11ERKNS0_18DebugStringOptionsE
libgrpc++_error_details.so.1:_ZNK6google8protobuf16MethodDescriptor6CopyToEPNS0_21MethodDescriptorProtoE
libgrpc++_error_details.so.1:_ZNK6google8protobuf17FileDescriptorSet11GetMetadataEv
libgrpc++_error_details.so.1:_ZNK6google8protobuf17FileDescriptorSet12ByteSizeLongEv
libgrpc++_error_details.so.1:_ZNK6google8protobuf17FileDescriptorSet13IsInitializedEv
libgrpc++_error_details.so.1:_ZNK6google8protobuf17FileDescriptorSet13SetCachedSizeEi
libgrpc++_error_details.so.1:_ZNK6google8protobuf17FileDescriptorSet24SerializeWithCachedSizesEPNS0_2io17CodedOutputStreamE
libgrpc++_error_details.so.1:_ZNK6google8protobuf17FileDescriptorSet39InternalSerializeWithCachedSizesToArrayEPh
libgrpc++_error_details.so.1:_ZNK6google8protobuf17GeneratedCodeInfo11GetMetadataEv
libgrpc++_error_details.so.1:_ZNK6google8protobuf17GeneratedCodeInfo12ByteSizeLongEv
libgrpc++_error_details.so.1:_ZNK6google8protobuf17GeneratedCodeInfo13IsInitializedEv
libgrpc++_error_details.so.1:_ZNK6google8protobuf17GeneratedCodeInfo13SetCachedSizeEi
libgrpc++_error_details.so.1:_ZNK6google8protobuf17GeneratedCodeInfo24SerializeWithCachedSizesEPNS0_2io17CodedOutputStreamE
libgrpc++_error_details.so.1:_ZNK6google8protobuf17GeneratedCodeInfo39InternalSerializeWithCachedSizesToArrayEPh
libgrpc++_error_details.so.1:_ZNK6google8protobuf17ServiceDescriptor11DebugStringB5cxx11Ev
libgrpc++_error_details.so.1:_ZNK6google8protobuf17ServiceDescriptor11DebugStringEPNSt7__cxx1112basic_stringIcSt11char_traitsIcESaIcEEERKNS0_18DebugStringOptionsE
libgrpc++_error_details.so.1:_ZNK6google8protobuf17ServiceDescriptor15GetLocationPathEPSt6vectorIiSaIiEE
libgrpc++_error_details.so.1:_ZNK6google8protobuf17ServiceDescriptor16FindMethodByNameERKNSt7__cxx1112basic_stringIcSt11char_traitsIcESaIcEEE
libgrpc++_error_details.so.1:_ZNK6google8protobuf17ServiceDescriptor17GetSourceLocationEPNS0_14SourceLocationE
libgrpc++_error_details.so.1:_ZNK6google8protobuf17ServiceDescriptor22DebugStringWithOptionsB5cxx11ERKNS0_18DebugStringOptionsE
libgrpc++_error_details.so.1:_ZNK6google8protobuf17ServiceDescriptor6CopyToEPNS0_22ServiceDescriptorProtoE
libgrpc++_error_details.so.1:_ZNK6google8protobuf19EnumDescriptorProto11GetMetadataEv
libgrpc++_error_details.so.1:_ZNK6google8protobuf19EnumDescriptorProto12ByteSizeLongEv
libgrpc++_error_details.so.1:_ZNK6google8protobuf19EnumDescriptorProto13IsInitializedEv
libgrpc++_error_details.so.1:_ZNK6google8protobuf19EnumDescriptorProto13SetCachedSizeEi
libgrpc++_error_details.so.1:_ZNK6google8protobuf19EnumDescriptorProto24SerializeWithCachedSizesEPNS0_2io17CodedOutputStreamE
libgrpc++_error_details.so.1:_ZNK6google8protobuf19EnumDescriptorProto39InternalSerializeWithCachedSizesToArrayEPh
libgrpc++_error_details.so.1:_ZNK6google8protobuf19EnumValueDescriptor11DebugStringB5cxx11Ev
libgrpc++_error_details.so.1:_ZNK6google8protobuf19EnumValueDescriptor11DebugStringEiPNSt7__cxx1112basic_stringIcSt11char_traitsIcESaIcEEERKNS0_18DebugStringOptionsE
libgrpc++_error_details.so.1:_ZNK6google8protobuf19EnumValueDescriptor15GetLocationPathEPSt6vectorIiSaIiEE
libgrpc++_error_details.so.1:_ZNK6google8protobuf19EnumValueDescriptor17GetSourceLocationEPNS0_14SourceLocationE
libgrpc++_error_details.so.1:_ZNK6google8protobuf19EnumValueDescriptor22DebugStringWithOptionsB5cxx11ERKNS0_18DebugStringOptionsE
libgrpc++_error_details.so.1:_ZNK6google8protobuf19EnumValueDescriptor6CopyToEPNS0_24EnumValueDescriptorProtoE
libgrpc++_error_details.so.1:_ZNK6google8protobuf19FileDescriptorProto11GetMetadataEv
libgrpc++_error_details.so.1:_ZNK6google8protobuf19FileDescriptorProto12ByteSizeLongEv
libgrpc++_error_details.so.1:_ZNK6google8protobuf19FileDescriptorProto13IsInitializedEv
libgrpc++_error_details.so.1:_ZNK6google8protobuf19FileDescriptorProto13SetCachedSizeEi
libgrpc++_error_details.so.1:_ZNK6google8protobuf19FileDescriptorProto24SerializeWithCachedSizesEPNS0_2io17CodedOutputStreamE
libgrpc++_error_details.so.1:_ZNK6google8protobuf19FileDescriptorProto39InternalSerializeWithCachedSizesToArrayEPh
libgrpc++_error_details.so.1:_ZNK6google8protobuf19UninterpretedOption11GetMetadataEv
libgrpc++_error_details.so.1:_ZNK6google8protobuf19UninterpretedOption12ByteSizeLongEv
libgrpc++_error_details.so.1:_ZNK6google8protobuf19UninterpretedOption13IsInitializedEv
libgrpc++_error_details.so.1:_ZNK6google8protobuf19UninterpretedOption13SetCachedSizeEi
libgrpc++_error_details.so.1:_ZNK6google8protobuf19UninterpretedOption24SerializeWithCachedSizesEPNS0_2io17CodedOutputStreamE
libgrpc++_error_details.so.1:_ZNK6google8protobuf19UninterpretedOption39InternalSerializeWithCachedSizesToArrayEPh
libgrpc++_error_details.so.1:_ZNK6google8protobuf20FieldDescriptorProto11GetMetadataEv
libgrpc++_error_details.so.1:_ZNK6google8protobuf20FieldDescriptorProto12ByteSizeLongEv
libgrpc++_error_details.so.1:_ZNK6google8protobuf20FieldDescriptorProto13IsInitializedEv
libgrpc++_error_details.so.1:_ZNK6google8protobuf20FieldDescriptorProto13SetCachedSizeEi
libgrpc++_error_details.so.1:_ZNK6google8protobuf20FieldDescriptorProto24SerializeWithCachedSizesEPNS0_2io17CodedOutputStreamE
libgrpc++_error_details.so.1:_ZNK6google8protobuf20FieldDescriptorProto39InternalSerializeWithCachedSizesToArrayEPh
libgrpc++_error_details.so.1:_ZNK6google8protobuf20FileDescriptorTables17GetSourceLocationERKSt6vectorIiSaIiEEPKNS0_14SourceCodeInfoE
libgrpc++_error_details.so.1:_ZNK6google8protobuf20FileDescriptorTables24FindParentForFieldsByMapEPKNS0_15FieldDescriptorE
libgrpc++_error_details.so.1:_ZNK6google8protobuf20FileDescriptorTables38FieldsByCamelcaseNamesLazyInitInternalEv
libgrpc++_error_details.so.1:_ZNK6google8protobuf20FileDescriptorTables38FieldsByLowercaseNamesLazyInitInternalEv
libgrpc++_error_details.so.1:_ZNK6google8protobuf20OneofDescriptorProto11GetMetadataEv
libgrpc++_error_details.so.1:_ZNK6google8protobuf20OneofDescriptorProto12ByteSizeLongEv
libgrpc++_error_details.so.1:_ZNK6google8protobuf20OneofDescriptorProto13IsInitializedEv
libgrpc++_error_details.so.1:_ZNK6google8protobuf20OneofDescriptorProto13SetCachedSizeEi
libgrpc++_error_details.so.1:_ZNK6google8protobuf20OneofDescriptorProto24SerializeWithCachedSizesEPNS0_2io17CodedOutputStreamE
libgrpc++_error_details.so.1:_ZNK6google8protobuf20OneofDescriptorProto39InternalSerializeWithCachedSizesToArrayEPh
libgrpc++_error_details.so.1:_ZNK6google8protobuf21ExtensionRangeOptions11GetMetadataEv
libgrpc++_error_details.so.1:_ZNK6google8protobuf21ExtensionRangeOptions12ByteSizeLongEv
libgrpc++_error_details.so.1:_ZNK6google8protobuf21ExtensionRangeOptions13IsInitializedEv
libgrpc++_error_details.so.1:_ZNK6google8protobuf21ExtensionRangeOptions13SetCachedSizeEi
libgrpc++_error_details.so.1:_ZNK6google8protobuf21ExtensionRangeOptions24SerializeWithCachedSizesEPNS0_2io17CodedOutputStreamE
libgrpc++_error_details.so.1:_ZNK6google8protobuf21ExtensionRangeOptions39InternalSerializeWithCachedSizesToArrayEPh
libgrpc++_error_details.so.1:_ZNK6google8protobuf21MethodDescriptorProto11GetMetadataEv
libgrpc++_error_details.so.1:_ZNK6google8protobuf21MethodDescriptorProto12ByteSizeLongEv
libgrpc++_error_details.so.1:_ZNK6google8protobuf21MethodDescriptorProto13IsInitializedEv
libgrpc++_error_details.so.1:_ZNK6google8protobuf21MethodDescriptorProto13SetCachedSizeEi
libgrpc++_error_details.so.1:_ZNK6google8protobuf21MethodDescriptorProto24SerializeWithCachedSizesEPNS0_2io17CodedOutputStreamE
libgrpc++_error_details.so.1:_ZNK6google8protobuf21MethodDescriptorProto39InternalSerializeWithCachedSizesToArrayEPh
libgrpc++_error_details.so.1:_ZNK6google8protobuf22ServiceDescriptorProto11GetMetadataEv
libgrpc++_error_details.so.1:_ZNK6google8protobuf22ServiceDescriptorProto12ByteSizeLongEv
libgrpc++_error_details.so.1:_ZNK6google8protobuf22ServiceDescriptorProto13IsInitializedEv
libgrpc++_error_details.so.1:_ZNK6google8protobuf22ServiceDescriptorProto13SetCachedSizeEi
libgrpc++_error_details.so.1:_ZNK6google8protobuf22ServiceDescriptorProto24SerializeWithCachedSizesEPNS0_2io17CodedOutputStreamE
libgrpc++_error_details.so.1:_ZNK6google8protobuf22ServiceDescriptorProto39InternalSerializeWithCachedSizesToArrayEPh
libgrpc++_error_details.so.1:_ZNK6google8protobuf23SourceCodeInfo_Location11GetMetadataEv
libgrpc++_error_details.so.1:_ZNK6google8protobuf23SourceCodeInfo_Location12ByteSizeLongEv
libgrpc++_error_details.so.1:_ZNK6google8protobuf23SourceCodeInfo_Location13IsInitializedEv
libgrpc++_error_details.so.1:_ZNK6google8protobuf23SourceCodeInfo_Location13SetCachedSizeEi
libgrpc++_error_details.so.1:_ZNK6google8protobuf23SourceCodeInfo_Location24SerializeWithCachedSizesEPNS0_2io17CodedOutputStreamE
libgrpc++_error_details.so.1:_ZNK6google8protobuf23SourceCodeInfo_Location39InternalSerializeWithCachedSizesToArrayEPh
libgrpc++_error_details.so.1:_ZNK6google8protobuf24EnumValueDescriptorProto11GetMetadataEv
libgrpc++_error_details.so.1:_ZNK6google8protobuf24EnumValueDescriptorProto12ByteSizeLongEv
libgrpc++_error_details.so.1:_ZNK6google8protobuf24EnumValueDescriptorProto13IsInitializedEv
libgrpc++_error_details.so.1:_ZNK6google8protobuf24EnumValueDescriptorProto13SetCachedSizeEi
libgrpc++_error_details.so.1:_ZNK6google8protobuf24EnumValueDescriptorProto24SerializeWithCachedSizesEPNS0_2io17CodedOutputStreamE
libgrpc++_error_details.so.1:_ZNK6google8protobuf24EnumValueDescriptorProto39InternalSerializeWithCachedSizesToArrayEPh
libgrpc++_error_details.so.1:_ZNK6google8protobuf28GeneratedCodeInfo_Annotation11GetMetadataEv
libgrpc++_error_details.so.1:_ZNK6google8protobuf28GeneratedCodeInfo_Annotation12ByteSizeLongEv
libgrpc++_error_details.so.1:_ZNK6google8protobuf28GeneratedCodeInfo_Annotation13IsInitializedEv
libgrpc++_error_details.so.1:_ZNK6google8protobuf28GeneratedCodeInfo_Annotation13SetCachedSizeEi
libgrpc++_error_details.so.1:_ZNK6google8protobuf28GeneratedCodeInfo_Annotation24SerializeWithCachedSizesEPNS0_2io17CodedOutputStreamE
libgrpc++_error_details.so.1:_ZNK6google8protobuf28GeneratedCodeInfo_Annotation39InternalSerializeWithCachedSizesToArrayEPh
libgrpc++_error_details.so.1:_ZNK6google8protobuf28UninterpretedOption_NamePart11GetMetadataEv
libgrpc++_error_details.so.1:_ZNK6google8protobuf28UninterpretedOption_NamePart12ByteSizeLongEv
libgrpc++_error_details.so.1:_ZNK6google8protobuf28UninterpretedOption_NamePart13IsInitializedEv
libgrpc++_error_details.so.1:_ZNK6google8protobuf28UninterpretedOption_NamePart13SetCachedSizeEi
libgrpc++_error_details.so.1:_ZNK6google8protobuf28UninterpretedOption_NamePart24SerializeWithCachedSizesEPNS0_2io17CodedOutputStreamE
libgrpc++_error_details.so.1:_ZNK6google8protobuf28UninterpretedOption_NamePart30RequiredFieldsByteSizeFallbackEv
libgrpc++_error_details.so.1:_ZNK6google8protobuf28UninterpretedOption_NamePart39InternalSerializeWithCachedSizesToArrayEPh
libgrpc++_error_details.so.1:_ZNK6google8protobuf29DescriptorProto_ReservedRange11GetMetadataEv
libgrpc++_error_details.so.1:_ZNK6google8protobuf29DescriptorProto_ReservedRange12ByteSizeLongEv
libgrpc++_error_details.so.1:_ZNK6google8protobuf29DescriptorProto_ReservedRange13IsInitializedEv
libgrpc++_error_details.so.1:_ZNK6google8protobuf29DescriptorProto_ReservedRange13SetCachedSizeEi
libgrpc++_error_details.so.1:_ZNK6google8protobuf29DescriptorProto_ReservedRange24SerializeWithCachedSizesEPNS0_2io17CodedOutputStreamE
libgrpc++_error_details.so.1:_ZNK6google8protobuf29DescriptorProto_ReservedRange39InternalSerializeWithCachedSizesToArrayEPh
libgrpc++_error_details.so.1:_ZNK6google8protobuf2io15FileInputStream9ByteCountEv
libgrpc++_error_details.so.1:_ZNK6google8protobuf2io16ArrayInputStream9ByteCountEv
libgrpc++_error_details.so.1:_ZNK6google8protobuf2io16CodedInputStream15BytesUntilLimitEv
libgrpc++_error_details.so.1:_ZNK6google8protobuf2io16CodedInputStream25BytesUntilTotalBytesLimitEv
libgrpc++_error_details.so.1:_ZNK6google8protobuf2io16FileOutputStream9ByteCountEv
libgrpc++_error_details.so.1:_ZNK6google8protobuf2io17ArrayOutputStream9ByteCountEv
libgrpc++_error_details.so.1:_ZNK6google8protobuf2io18IstreamInputStream9ByteCountEv
libgrpc++_error_details.so.1:_ZNK6google8protobuf2io18StringOutputStream9ByteCountEv
libgrpc++_error_details.so.1:_ZNK6google8protobuf2io19LimitingInputStream9ByteCountEv
libgrpc++_error_details.so.1:_ZNK6google8protobuf2io19OstreamOutputStream9ByteCountEv
libgrpc++_error_details.so.1:_ZNK6google8protobuf2io24ConcatenatingInputStream9ByteCountEv
libgrpc++_error_details.so.1:_ZNK6google8protobuf2io25CopyingInputStreamAdaptor9ByteCountEv
libgrpc++_error_details.so.1:_ZNK6google8protobuf2io26CopyingOutputStreamAdaptor9ByteCountEv
libgrpc++_error_details.so.1:_ZNK6google8protobuf30DescriptorProto_ExtensionRange11GetMetadataEv
libgrpc++_error_details.so.1:_ZNK6google8protobuf30DescriptorProto_ExtensionRange12ByteSizeLongEv
libgrpc++_error_details.so.1:_ZNK6google8protobuf30DescriptorProto_ExtensionRange13IsInitializedEv
libgrpc++_error_details.so.1:_ZNK6google8protobuf30DescriptorProto_ExtensionRange13SetCachedSizeEi
libgrpc++_error_details.so.1:_ZNK6google8protobuf30DescriptorProto_ExtensionRange24SerializeWithCachedSizesEPNS0_2io17CodedOutputStreamE
libgrpc++_error_details.so.1:_ZNK6google8protobuf30DescriptorProto_ExtensionRange39InternalSerializeWithCachedSizesToArrayEPh
libgrpc++_error_details.so.1:_ZNK6google8protobuf37EnumDescriptorProto_EnumReservedRange11GetMetadataEv
libgrpc++_error_details.so.1:_ZNK6google8protobuf37EnumDescriptorProto_EnumReservedRange12ByteSizeLongEv
libgrpc++_error_details.so.1:_ZNK6google8protobuf37EnumDescriptorProto_EnumReservedRange13IsInitializedEv
libgrpc++_error_details.so.1:_ZNK6google8protobuf37EnumDescriptorProto_EnumReservedRange13SetCachedSizeEi
libgrpc++_error_details.so.1:_ZNK6google8protobuf37EnumDescriptorProto_EnumReservedRange24SerializeWithCachedSizesEPNS0_2io17CodedOutputStreamE
libgrpc++_error_details.so.1:_ZNK6google8protobuf37EnumDescriptorProto_EnumReservedRange39InternalSerializeWithCachedSizesToArrayEPh
libgrpc++_error_details.so.1:_ZNK6google8protobuf3Any11GetMetadataEv
libgrpc++_error_details.so.1:_ZNK6google8protobuf3Any12ByteSizeLongEv
libgrpc++_error_details.so.1:_ZNK6google8protobuf3Any13IsInitializedEv
libgrpc++_error_details.so.1:_ZNK6google8protobuf3Any13SetCachedSizeEi
libgrpc++_error_details.so.1:_ZNK6google8protobuf3Any24SerializeWithCachedSizesEPNS0_2io17CodedOutputStreamE
libgrpc++_error_details.so.1:_ZNK6google8protobuf3Any39InternalSerializeWithCachedSizesToArrayEPh
libgrpc++_error_details.so.1:_ZNK6google8protobuf3Any8UnpackToEPNS0_7MessageE
libgrpc++_error_details.so.1:_ZNK6google8protobuf4util6Status8ToStringB5cxx11Ev
libgrpc++_error_details.so.1:_ZNK6google8protobuf4util6StatuseqERKS2_
libgrpc++_error_details.so.1:_ZNK6google8protobuf5Arena17OnArenaAllocationEPKSt9type_infom
libgrpc++_error_details.so.1:_ZNK6google8protobuf7Message11DebugStringB5cxx11Ev
libgrpc++_error_details.so.1:_ZNK6google8protobuf7Message11GetTypeNameB5cxx11Ev
libgrpc++_error_details.so.1:_ZNK6google8protobuf7Message12ByteSizeLongEv
libgrpc++_error_details.so.1:_ZNK6google8protobuf7Message13IsInitializedEv
libgrpc++_error_details.so.1:_ZNK6google8protobuf7Message13SetCachedSizeEi
libgrpc++_error_details.so.1:_ZNK6google8protobuf7Message13SpaceUsedLongEv
libgrpc++_error_details.so.1:_ZNK6google8protobuf7Message15Utf8DebugStringB5cxx11Ev
libgrpc++_error_details.so.1:_ZNK6google8protobuf7Message16CheckInitializedEv
libgrpc++_error_details.so.1:_ZNK6google8protobuf7Message16PrintDebugStringEv
libgrpc++_error_details.so.1:_ZNK6google8protobuf7Message16ShortDebugStringB5cxx11Ev
libgrpc++_error_details.so.1:_ZNK6google8protobuf7Message18SerializeToOstreamEPSo
libgrpc++_error_details.so.1:_ZNK6google8protobuf7Message24FindInitializationErrorsEPSt6vectorINSt7__cxx1112basic_stringIcSt11char_traitsIcESaIcEEESaIS8_EE
libgrpc++_error_details.so.1:_ZNK6google8protobuf7Message24SerializeWithCachedSizesEPNS0_2io17CodedOutputStreamE
libgrpc++_error_details.so.1:_ZNK6google8protobuf7Message25InitializationErrorStringB5cxx11Ev
libgrpc++_error_details.so.1:_ZNK6google8protobuf7Message25SerializePartialToOstreamEPSo
libgrpc++_error_details.so.1:_ZNK6google8protobuf7Message25SerializeToFileDescriptorEi
libgrpc++_error_details.so.1:_ZNK6google8protobuf7Message32SerializePartialToFileDescriptorEi
libgrpc++_error_details.so.1:_ZNK6google8protobuf8internal11AnyMetadata10InternalIsENS0_11StringPieceE
libgrpc++_error_details.so.1:_ZNK6google8protobuf8internal11AnyMetadata16InternalUnpackToENS0_11StringPieceEPNS0_11MessageLiteE
libgrpc++_error_details.so.1:_ZNK6google8protobuf8internal11AnyMetadata8UnpackToEPNS0_7MessageE
libgrpc++_error_details.so.1:_ZNK6google8protobuf8internal12ExtensionSet10FindOrNullEi
libgrpc++_error_details.so.1:_ZNK6google8protobuf8internal12ExtensionSet10GetMessageEiPKNS0_10DescriptorEPNS0_14MessageFactoryE
libgrpc++_error_details.so.1:_ZNK6google8protobuf8internal12ExtensionSet10GetMessageEiRKNS0_11MessageLiteE
libgrpc++_error_details.so.1:_ZNK6google8protobuf8internal12ExtensionSet12AppendToListEPKNS0_10DescriptorEPKNS0_14DescriptorPoolEPSt6vectorIPKNS0_15FieldDescriptorESaISC_EE
libgrpc++_error_details.so.1:_ZNK6google8protobuf8internal12ExtensionSet13ExtensionSizeEi
libgrpc++_error_details.so.1:_ZNK6google8protobuf8internal12ExtensionSet13ExtensionTypeEi
libgrpc++_error_details.so.1:_ZNK6google8protobuf8internal12ExtensionSet13IsInitializedEv
libgrpc++_error_details.so.1:_ZNK6google8protobuf8internal12ExtensionSet13NumExtensionsEv
libgrpc++_error_details.so.1:_ZNK6google8protobuf8internal12ExtensionSet15GetRepeatedBoolEii
libgrpc++_error_details.so.1:_ZNK6google8protobuf8internal12ExtensionSet15GetRepeatedEnumEii
libgrpc++_error_details.so.1:_ZNK6google8protobuf8internal12ExtensionSet16GetRepeatedFloatEii
libgrpc++_error_details.so.1:_ZNK6google8protobuf8internal12ExtensionSet16GetRepeatedInt32Eii
libgrpc++_error_details.so.1:_ZNK6google8protobuf8internal12ExtensionSet16GetRepeatedInt64Eii
libgrpc++_error_details.so.1:_ZNK6google8protobuf8internal12ExtensionSet17GetRepeatedDoubleEii
libgrpc++_error_details.so.1:_ZNK6google8protobuf8internal12ExtensionSet17GetRepeatedStringB5cxx11Eii
libgrpc++_error_details.so.1:_ZNK6google8protobuf8internal12ExtensionSet17GetRepeatedUInt32Eii
libgrpc++_error_details.so.1:_ZNK6google8protobuf8internal12ExtensionSet17GetRepeatedUInt64Eii
libgrpc++_error_details.so.1:_ZNK6google8protobuf8internal12ExtensionSet18GetRepeatedMessageEii
libgrpc++_error_details.so.1:_ZNK6google8protobuf8internal12ExtensionSet18MessageSetByteSizeEv
libgrpc++_error_details.so.1:_ZNK6google8protobuf8internal12ExtensionSet19GetRawRepeatedFieldEiPKv
libgrpc++_error_details.so.1:_ZNK6google8protobuf8internal12ExtensionSet20FindOrNullInLargeMapEi
libgrpc++_error_details.so.1:_ZNK6google8protobuf8internal12ExtensionSet22SpaceUsedExcludingSelfEv
libgrpc++_error_details.so.1:_ZNK6google8protobuf8internal12ExtensionSet24SerializeWithCachedSizesEiiPNS0_2io17CodedOutputStreamE
libgrpc++_error_details.so.1:_ZNK6google8protobuf8internal12ExtensionSet26SpaceUsedExcludingSelfLongEv
libgrpc++_error_details.so.1:_ZNK6google8protobuf8internal12ExtensionSet31SerializeWithCachedSizesToArrayEiiPh
libgrpc++_error_details.so.1:_ZNK6google8protobuf8internal12ExtensionSet34SerializeMessageSetWithCachedSizesEPNS0_2io17CodedOutputStreamE
libgrpc++_error_details.so.1:_ZNK6google8protobuf8internal12ExtensionSet39InternalSerializeWithCachedSizesToArrayEiiPh
libgrpc++_error_details.so.1:_ZNK6google8protobuf8internal12ExtensionSet3HasEi
libgrpc++_error_details.so.1:_ZNK6google8protobuf8internal12ExtensionSet41SerializeMessageSetWithCachedSizesToArrayEPh
libgrpc++_error_details.so.1:_ZNK6google8protobuf8internal12ExtensionSet49InternalSerializeMessageSetWithCachedSizesToArrayEPh
libgrpc++_error_details.so.1:_ZNK6google8protobuf8internal12ExtensionSet7GetBoolEib
libgrpc++_error_details.so.1:_ZNK6google8protobuf8internal12ExtensionSet7GetEnumEii
libgrpc++_error_details.so.1:_ZNK6google8protobuf8internal12ExtensionSet8ByteSizeEv
libgrpc++_error_details.so.1:_ZNK6google8protobuf8internal12ExtensionSet8GetFloatEif
libgrpc++_error_details.so.1:_ZNK6google8protobuf8internal12ExtensionSet8GetInt32Eii
libgrpc++_error_details.so.1:_ZNK6google8protobuf8internal12ExtensionSet8GetInt64Eil
libgrpc++_error_details.so.1:_ZNK6google8protobuf8internal12ExtensionSet9Extension13IsInitializedEv
libgrpc++_error_details.so.1:_ZNK6google8protobuf8internal12ExtensionSet9Extension22MessageSetItemByteSizeEi
libgrpc++_error_details.so.1:_ZNK6google8protobuf8internal12ExtensionSet9Extension26SpaceUsedExcludingSelfLongEv
libgrpc++_error_details.so.1:_ZNK6google8protobuf8internal12ExtensionSet9Extension29SerializeFieldWithCachedSizesEiPNS0_2io17CodedOutputStreamE
libgrpc++_error_details.so.1:_ZNK6google8protobuf8internal12ExtensionSet9Extension38SerializeMessageSetItemWithCachedSizesEiPNS0_2io17CodedOutputStreamE
libgrpc++_error_details.so.1:_ZNK6google8protobuf8internal12ExtensionSet9Extension44InternalSerializeFieldWithCachedSizesToArrayEiPh
libgrpc++_error_details.so.1:_ZNK6google8protobuf8internal12ExtensionSet9Extension53InternalSerializeMessageSetItemWithCachedSizesToArrayEiPh
libgrpc++_error_details.so.1:_ZNK6google8protobuf8internal12ExtensionSet9Extension7GetSizeEv
libgrpc++_error_details.so.1:_ZNK6google8protobuf8internal12ExtensionSet9Extension8ByteSizeEi
libgrpc++_error_details.so.1:_ZNK6google8protobuf8internal12ExtensionSet9GetDoubleEid
libgrpc++_error_details.so.1:_ZNK6google8protobuf8internal12ExtensionSet9GetStringEiRKNSt7__cxx1112basic_stringIcSt11char_traitsIcESaIcEEE
libgrpc++_error_details.so.1:_ZNK6google8protobuf8internal12ExtensionSet9GetUInt32Eij
libgrpc++_error_details.so.1:_ZNK6google8protobuf8internal12ExtensionSet9GetUInt64Eim
libgrpc++_error_details.so.1:_ZNK6google8protobuf8internal12MapFieldBase10IsMapValidEv
libgrpc++_error_details.so.1:_ZNK6google8protobuf8internal12MapFieldBase16GetRepeatedFieldEv
libgrpc++_error_details.so.1:_ZNK6google8protobuf8internal12MapFieldBase20IsRepeatedFieldValidEv
libgrpc++_error_details.so.1:_ZNK6google8protobuf8internal12MapFieldBase23MutableRepeatedPtrFieldEv
libgrpc++_error_details.so.1:_ZNK6google8protobuf8internal12MapFieldBase24SyncMapWithRepeatedFieldEv
libgrpc++_error_details.so.1:_ZNK6google8protobuf8internal12MapFieldBase24SyncRepeatedFieldWithMapEv
libgrpc++_error_details.so.1:_ZNK6google8protobuf8internal12MapFieldBase26SpaceUsedExcludingSelfLongEv
libgrpc++_error_details.so.1:_ZNK6google8protobuf8internal12MapFieldBase28SpaceUsedExcludingSelfNoLockEv
libgrpc++_error_details.so.1:_ZNK6google8protobuf8internal12MapFieldBase30SyncRepeatedFieldWithMapNoLockEv
libgrpc++_error_details.so.1:_ZNK6google8protobuf8internal15DynamicMapField14ContainsMapKeyERKNS0_6MapKeyE
libgrpc++_error_details.so.1:_ZNK6google8protobuf8internal15DynamicMapField19SetMapIteratorValueEPNS0_11MapIteratorE
libgrpc++_error_details.so.1:_ZNK6google8protobuf8internal15DynamicMapField28SpaceUsedExcludingSelfNoLockEv
libgrpc++_error_details.so.1:_ZNK6google8protobuf8internal15DynamicMapField30SyncMapWithRepeatedFieldNoLockEv
libgrpc++_error_details.so.1:_ZNK6google8protobuf8internal15DynamicMapField30SyncRepeatedFieldWithMapNoLockEv
libgrpc++_error_details.so.1:_ZNK6google8protobuf8internal15DynamicMapField4sizeEv
libgrpc++_error_details.so.1:_ZNK6google8protobuf8internal15DynamicMapField6GetMapEv
libgrpc++_error_details.so.1:_ZNK6google8protobuf8internal26GeneratedMessageReflection10AddMessageEPNS0_7MessageEPKNS0_15FieldDescriptorEPNS0_14MessageFactoryE
libgrpc++_error_details.so.1:_ZNK6google8protobuf8internal26GeneratedMessageReflection10ClearFieldEPNS0_7MessageEPKNS0_15FieldDescriptorE
libgrpc++_error_details.so.1:_ZNK6google8protobuf8internal26GeneratedMessageReflection10GetMapDataERKNS0_7MessageEPKNS0_15FieldDescriptorE
libgrpc++_error_details.so.1:_ZNK6google8protobuf8internal26GeneratedMessageReflection10GetMessageERKNS0_7MessageEPKNS0_15FieldDescriptorEPNS0_14MessageFactoryE
libgrpc++_error_details.so.1:_ZNK6google8protobuf8internal26GeneratedMessageReflection10ListFieldsERKNS0_7MessageEPSt6vectorIPKNS0_15FieldDescriptorESaIS9_EE
libgrpc++_error_details.so.1:_ZNK6google8protobuf8internal26GeneratedMessageReflection10RemoveLastEPNS0_7MessageEPKNS0_15FieldDescriptorE
libgrpc++_error_details.so.1:_ZNK6google8protobuf8internal26GeneratedMessageReflection10SwapFieldsEPNS0_7MessageES4_RKSt6vectorIPKNS0_15FieldDescriptorESaIS8_EE
libgrpc++_error_details.so.1:_ZNK6google8protobuf8internal26GeneratedMessageReflection11ReleaseLastEPNS0_7MessageEPKNS0_15FieldDescriptorE
libgrpc++_error_details.so.1:_ZNK6google8protobuf8internal26GeneratedMessageReflection12AddEnumValueEPNS0_7MessageEPKNS0_15FieldDescriptorEi
libgrpc++_error_details.so.1:_ZNK6google8protobuf8internal26GeneratedMessageReflection12GetEnumValueERKNS0_7MessageEPKNS0_15FieldDescriptorE
libgrpc++_error_details.so.1:_ZNK6google8protobuf8internal26GeneratedMessageReflection12SetEnumValueEPNS0_7MessageEPKNS0_15FieldDescriptorEi
libgrpc++_error_details.so.1:_ZNK6google8protobuf8internal26GeneratedMessageReflection12SwapElementsEPNS0_7MessageEPKNS0_15FieldDescriptorEii
libgrpc++_error_details.so.1:_ZNK6google8protobuf8internal26GeneratedMessageReflection13SpaceUsedLongERKNS0_7MessageE
libgrpc++_error_details.so.1:_ZNK6google8protobuf8internal26GeneratedMessageReflection14ContainsMapKeyERKNS0_7MessageEPKNS0_15FieldDescriptorERKNS0_6MapKeyE
libgrpc++_error_details.so.1:_ZNK6google8protobuf8internal26GeneratedMessageReflection14DeleteMapValueEPNS0_7MessageEPKNS0_15FieldDescriptorERKNS0_6MapKeyE
libgrpc++_error_details.so.1:_ZNK6google8protobuf8internal26GeneratedMessageReflection14MutableMapDataEPNS0_7MessageEPKNS0_15FieldDescriptorE
libgrpc++_error_details.so.1:_ZNK6google8protobuf8internal26GeneratedMessageReflection14MutableMessageEPNS0_7MessageEPKNS0_15FieldDescriptorEPNS0_14MessageFactoryE
libgrpc++_error_details.so.1:_ZNK6google8protobuf8internal26GeneratedMessageReflection14ReleaseMessageEPNS0_7MessageEPKNS0_15FieldDescriptorEPNS0_14MessageFactoryE
libgrpc++_error_details.so.1:_ZNK6google8protobuf8internal26GeneratedMessageReflection14SwapOneofFieldEPNS0_7MessageES4_PKNS0_15OneofDescriptorE
libgrpc++_error_details.so.1:_ZNK6google8protobuf8internal26GeneratedMessageReflection15GetRepeatedBoolERKNS0_7MessageEPKNS0_15FieldDescriptorEi
libgrpc++_error_details.so.1:_ZNK6google8protobuf8internal26GeneratedMessageReflection15GetRepeatedEnumERKNS0_7MessageEPKNS0_15FieldDescriptorEi
libgrpc++_error_details.so.1:_ZNK6google8protobuf8internal26GeneratedMessageReflection15SetRepeatedBoolEPNS0_7MessageEPKNS0_15FieldDescriptorEib
libgrpc++_error_details.so.1:_ZNK6google8protobuf8internal26GeneratedMessageReflection15SetRepeatedEnumEPNS0_7MessageEPKNS0_15FieldDescriptorEiPKNS0_19EnumValueDescriptorE
libgrpc++_error_details.so.1:_ZNK6google8protobuf8internal26GeneratedMessageReflection16GetRepeatedFloatERKNS0_7MessageEPKNS0_15FieldDescriptorEi
libgrpc++_error_details.so.1:_ZNK6google8protobuf8internal26GeneratedMessageReflection16GetRepeatedInt32ERKNS0_7MessageEPKNS0_15FieldDescriptorEi
libgrpc++_error_details.so.1:_ZNK6google8protobuf8internal26GeneratedMessageReflection16GetRepeatedInt64ERKNS0_7MessageEPKNS0_15FieldDescriptorEi
libgrpc++_error_details.so.1:_ZNK6google8protobuf8internal26GeneratedMessageReflection16GetUnknownFieldsERKNS0_7MessageE
libgrpc++_error_details.so.1:_ZNK6google8protobuf8internal26GeneratedMessageReflection16SetRepeatedFloatEPNS0_7MessageEPKNS0_15FieldDescriptorEif
libgrpc++_error_details.so.1:_ZNK6google8protobuf8internal26GeneratedMessageReflection16SetRepeatedInt32EPNS0_7MessageEPKNS0_15FieldDescriptorEii
libgrpc++_error_details.so.1:_ZNK6google8protobuf8internal26GeneratedMessageReflection16SetRepeatedInt64EPNS0_7MessageEPKNS0_15FieldDescriptorEil
libgrpc++_error_details.so.1:_ZNK6google8protobuf8internal26GeneratedMessageReflection17GetMessageFactoryEv
libgrpc++_error_details.so.1:_ZNK6google8protobuf8internal26GeneratedMessageReflection17GetRepeatedDoubleERKNS0_7MessageEPKNS0_15FieldDescriptorEi
libgrpc++_error_details.so.1:_ZNK6google8protobuf8internal26GeneratedMessageReflection17GetRepeatedStringB5cxx11ERKNS0_7MessageEPKNS0_15FieldDescriptorEi
libgrpc++_error_details.so.1:_ZNK6google8protobuf8internal26GeneratedMessageReflection17GetRepeatedUInt32ERKNS0_7MessageEPKNS0_15FieldDescriptorEi
libgrpc++_error_details.so.1:_ZNK6google8protobuf8internal26GeneratedMessageReflection17GetRepeatedUInt64ERKNS0_7MessageEPKNS0_15FieldDescriptorEi
libgrpc++_error_details.so.1:_ZNK6google8protobuf8internal26GeneratedMessageReflection17RepeatedFieldDataEPNS0_7MessageEPKNS0_15FieldDescriptorENS5_7CppTypeEPKNS0_10DescriptorE
libgrpc++_error_details.so.1:_ZNK6google8protobuf8internal26GeneratedMessageReflection17SetRepeatedDoubleEPNS0_7MessageEPKNS0_15FieldDescriptorEid
libgrpc++_error_details.so.1:_ZNK6google8protobuf8internal26GeneratedMessageReflection17SetRepeatedStringEPNS0_7MessageEPKNS0_15FieldDescriptorEiRKNSt7__cxx1112basic_stringIcSt11char_traitsIcESaIcEEE
libgrpc++_error_details.so.1:_ZNK6google8protobuf8internal26GeneratedMessageReflection17SetRepeatedUInt32EPNS0_7MessageEPKNS0_15FieldDescriptorEij
libgrpc++_error_details.so.1:_ZNK6google8protobuf8internal26GeneratedMessageReflection17SetRepeatedUInt64EPNS0_7MessageEPKNS0_15FieldDescriptorEim
libgrpc++_error_details.so.1:_ZNK6google8protobuf8internal26GeneratedMessageReflection18GetRepeatedMessageERKNS0_7MessageEPKNS0_15FieldDescriptorEi
libgrpc++_error_details.so.1:_ZNK6google8protobuf8internal26GeneratedMessageReflection18GetStringReferenceERKNS0_7MessageEPKNS0_15FieldDescriptorEPNSt7__cxx1112basic_stringIcSt11char_traitsIcESaIcEEE
libgrpc++_error_details.so.1:_ZNK6google8protobuf8internal26GeneratedMessageReflection19AddAllocatedMessageEPNS0_7MessageEPKNS0_15FieldDescriptorES4_
libgrpc++_error_details.so.1:_ZNK6google8protobuf8internal26GeneratedMessageReflection19GetRawRepeatedFieldERKNS0_7MessageEPKNS0_15FieldDescriptorENS6_7CppTypeEiPKNS0_10DescriptorE
libgrpc++_error_details.so.1:_ZNK6google8protobuf8internal26GeneratedMessageReflection19SetAllocatedMessageEPNS0_7MessageES4_PKNS0_15FieldDescriptorE
libgrpc++_error_details.so.1:_ZNK6google8protobuf8internal26GeneratedMessageReflection20AddEnumValueInternalEPNS0_7MessageEPKNS0_15FieldDescriptorEi
libgrpc++_error_details.so.1:_ZNK6google8protobuf8internal26GeneratedMessageReflection20GetRepeatedEnumValueERKNS0_7MessageEPKNS0_15FieldDescriptorEi
libgrpc++_error_details.so.1:_ZNK6google8protobuf8internal26GeneratedMessageReflection20MutableUnknownFieldsEPNS0_7MessageE
libgrpc++_error_details.so.1:_ZNK6google8protobuf8internal26GeneratedMessageReflection20SetEnumValueInternalEPNS0_7MessageEPKNS0_15FieldDescriptorEi
libgrpc++_error_details.so.1:_ZNK6google8protobuf8internal26GeneratedMessageReflection20SetRepeatedEnumValueEPNS0_7MessageEPKNS0_15FieldDescriptorEii
libgrpc++_error_details.so.1:_ZNK6google8protobuf8internal26GeneratedMessageReflection22InsertOrLookupMapValueEPNS0_7MessageEPKNS0_15FieldDescriptorERKNS0_6MapKeyEPNS0_11MapValueRefE
libgrpc++_error_details.so.1:_ZNK6google8protobuf8internal26GeneratedMessageReflection22MutableRepeatedMessageEPNS0_7MessageEPKNS0_15FieldDescriptorEi
libgrpc++_error_details.so.1:_ZNK6google8protobuf8internal26GeneratedMessageReflection23GetOneofFieldDescriptorERKNS0_7MessageEPKNS0_15OneofDescriptorE
libgrpc++_error_details.so.1:_ZNK6google8protobuf8internal26GeneratedMessageReflection23MutableRawRepeatedFieldEPNS0_7MessageEPKNS0_15FieldDescriptorENS5_7CppTypeEiPKNS0_10DescriptorE
libgrpc++_error_details.so.1:_ZNK6google8protobuf8internal26GeneratedMessageReflection24FindKnownExtensionByNameERKNSt7__cxx1112basic_stringIcSt11char_traitsIcESaIcEEE
libgrpc++_error_details.so.1:_ZNK6google8protobuf8internal26GeneratedMessageReflection25SupportsUnknownEnumValuesEv
libgrpc++_error_details.so.1:_ZNK6google8protobuf8internal26GeneratedMessageReflection25UnsafeArenaReleaseMessageEPNS0_7MessageEPKNS0_15FieldDescriptorEPNS0_14MessageFactoryE
libgrpc++_error_details.so.1:_ZNK6google8protobuf8internal26GeneratedMessageReflection26FindKnownExtensionByNumberEi
libgrpc++_error_details.so.1:_ZNK6google8protobuf8internal26GeneratedMessageReflection26GetRepeatedStringReferenceERKNS0_7MessageEPKNS0_15FieldDescriptorEiPNSt7__cxx1112basic_stringIcSt11char_traitsIcESaIcEEE
libgrpc++_error_details.so.1:_ZNK6google8protobuf8internal26GeneratedMessageReflection28SetRepeatedEnumValueInternalEPNS0_7MessageEPKNS0_15FieldDescriptorEii
libgrpc++_error_details.so.1:_ZNK6google8protobuf8internal26GeneratedMessageReflection30UnsafeArenaSetAllocatedMessageEPNS0_7MessageES4_PKNS0_15FieldDescriptorE
libgrpc++_error_details.so.1:_ZNK6google8protobuf8internal26GeneratedMessageReflection4SwapEPNS0_7MessageES4_
libgrpc++_error_details.so.1:_ZNK6google8protobuf8internal26GeneratedMessageReflection6MapEndEPNS0_7MessageEPKNS0_15FieldDescriptorE
libgrpc++_error_details.so.1:_ZNK6google8protobuf8internal26GeneratedMessageReflection7AddBoolEPNS0_7MessageEPKNS0_15FieldDescriptorEb
libgrpc++_error_details.so.1:_ZNK6google8protobuf8internal26GeneratedMessageReflection7AddEnumEPNS0_7MessageEPKNS0_15FieldDescriptorEPKNS0_19EnumValueDescriptorE
libgrpc++_error_details.so.1:_ZNK6google8protobuf8internal26GeneratedMessageReflection7GetBoolERKNS0_7MessageEPKNS0_15FieldDescriptorE
libgrpc++_error_details.so.1:_ZNK6google8protobuf8internal26GeneratedMessageReflection7GetEnumERKNS0_7MessageEPKNS0_15FieldDescriptorE
libgrpc++_error_details.so.1:_ZNK6google8protobuf8internal26GeneratedMessageReflection7MapSizeERKNS0_7MessageEPKNS0_15FieldDescriptorE
libgrpc++_error_details.so.1:_ZNK6google8protobuf8internal26GeneratedMessageReflection7SetBoolEPNS0_7MessageEPKNS0_15FieldDescriptorEb
libgrpc++_error_details.so.1:_ZNK6google8protobuf8internal26GeneratedMessageReflection7SetEnumEPNS0_7MessageEPKNS0_15FieldDescriptorEPKNS0_19EnumValueDescriptorE
libgrpc++_error_details.so.1:_ZNK6google8protobuf8internal26GeneratedMessageReflection8AddFloatEPNS0_7MessageEPKNS0_15FieldDescriptorEf
libgrpc++_error_details.so.1:_ZNK6google8protobuf8internal26GeneratedMessageReflection8AddInt32EPNS0_7MessageEPKNS0_15FieldDescriptorEi
libgrpc++_error_details.so.1:_ZNK6google8protobuf8internal26GeneratedMessageReflection8AddInt64EPNS0_7MessageEPKNS0_15FieldDescriptorEl
libgrpc++_error_details.so.1:_ZNK6google8protobuf8internal26GeneratedMessageReflection8GetFloatERKNS0_7MessageEPKNS0_15FieldDescriptorE
libgrpc++_error_details.so.1:_ZNK6google8protobuf8internal26GeneratedMessageReflection8GetInt32ERKNS0_7MessageEPKNS0_15FieldDescriptorE
libgrpc++_error_details.so.1:_ZNK6google8protobuf8internal26GeneratedMessageReflection8GetInt64ERKNS0_7MessageEPKNS0_15FieldDescriptorE
libgrpc++_error_details.so.1:_ZNK6google8protobuf8internal26GeneratedMessageReflection8HasFieldERKNS0_7MessageEPKNS0_15FieldDescriptorE
libgrpc++_error_details.so.1:_ZNK6google8protobuf8internal26GeneratedMessageReflection8MapBeginEPNS0_7MessageEPKNS0_15FieldDescriptorE
libgrpc++_error_details.so.1:_ZNK6google8protobuf8internal26GeneratedMessageReflection8SetFloatEPNS0_7MessageEPKNS0_15FieldDescriptorEf
libgrpc++_error_details.so.1:_ZNK6google8protobuf8internal26GeneratedMessageReflection8SetInt32EPNS0_7MessageEPKNS0_15FieldDescriptorEi
libgrpc++_error_details.so.1:_ZNK6google8protobuf8internal26GeneratedMessageReflection8SetInt64EPNS0_7MessageEPKNS0_15FieldDescriptorEl
libgrpc++_error_details.so.1:_ZNK6google8protobuf8internal26GeneratedMessageReflection9AddDoubleEPNS0_7MessageEPKNS0_15FieldDescriptorEd
libgrpc++_error_details.so.1:_ZNK6google8protobuf8internal26GeneratedMessageReflection9AddStringEPNS0_7MessageEPKNS0_15FieldDescriptorERKNSt7__cxx1112basic_stringIcSt11char_traitsIcESaIcEEE
libgrpc++_error_details.so.1:_ZNK6google8protobuf8internal26GeneratedMessageReflection9AddUInt32EPNS0_7MessageEPKNS0_15FieldDescriptorEj
libgrpc++_error_details.so.1:_ZNK6google8protobuf8internal26GeneratedMessageReflection9AddUInt64EPNS0_7MessageEPKNS0_15FieldDescriptorEm
libgrpc++_error_details.so.1:_ZNK6google8protobuf8internal26GeneratedMessageReflection9FieldSizeERKNS0_7MessageEPKNS0_15FieldDescriptorE
libgrpc++_error_details.so.1:_ZNK6google8protobuf8internal26GeneratedMessageReflection9GetDoubleERKNS0_7MessageEPKNS0_15FieldDescriptorE
libgrpc++_error_details.so.1:_ZNK6google8protobuf8internal26GeneratedMessageReflection9GetStringB5cxx11ERKNS0_7MessageEPKNS0_15FieldDescriptorE
libgrpc++_error_details.so.1:_ZNK6google8protobuf8internal26GeneratedMessageReflection9GetUInt32ERKNS0_7MessageEPKNS0_15FieldDescriptorE
libgrpc++_error_details.so.1:_ZNK6google8protobuf8internal26GeneratedMessageReflection9GetUInt64ERKNS0_7MessageEPKNS0_15FieldDescriptorE
libgrpc++_error_details.so.1:_ZNK6google8protobuf8internal26GeneratedMessageReflection9SetDoubleEPNS0_7MessageEPKNS0_15FieldDescriptorEd
libgrpc++_error_details.so.1:_ZNK6google8protobuf8internal26GeneratedMessageReflection9SetStringEPNS0_7MessageEPKNS0_15FieldDescriptorERKNSt7__cxx1112basic_stringIcSt11char_traitsIcESaIcEEE
libgrpc++_error_details.so.1:_ZNK6google8protobuf8internal26GeneratedMessageReflection9SetUInt32EPNS0_7MessageEPKNS0_15FieldDescriptorEj
libgrpc++_error_details.so.1:_ZNK6google8protobuf8internal26GeneratedMessageReflection9SetUInt64EPNS0_7MessageEPKNS0_15FieldDescriptorEm
libgrpc++_error_details.so.1:_ZNK6google8protobuf8internal26GeneratedMessageReflection9SwapFieldEPNS0_7MessageES4_PKNS0_15FieldDescriptorE
libgrpc++_error_details.so.1:_ZNK6google8protobuf8internal9ArenaImpl11SerialArena9SpaceUsedEv
libgrpc++_error_details.so.1:_ZNK6google8protobuf8internal9ArenaImpl14SpaceAllocatedEv
libgrpc++_error_details.so.1:_ZNK6google8protobuf8internal9ArenaImpl9SpaceUsedEv
libgrpc++_reflection.so.1:_ZN4grpc10reflection7v1alpha13ErrorResponse12InternalSwapEPS2_
libgrpc++_reflection.so.1:_ZN4grpc10reflection7v1alpha13ErrorResponse16default_instanceEv
libgrpc++_reflection.so.1:_ZN4grpc10reflection7v1alpha13ErrorResponse21InitAsDefaultInstanceEv
libgrpc++_reflection.so.1:_ZN4grpc10reflection7v1alpha13ErrorResponse27MergePartialFromCodedStreamEPN6google8protobuf2io16CodedInputStreamE
libgrpc++_reflection.so.1:_ZN4grpc10reflection7v1alpha13ErrorResponse4SwapEPS2_
libgrpc++_reflection.so.1:_ZN4grpc10reflection7v1alpha13ErrorResponse5ClearEv
libgrpc++_reflection.so.1:_ZN4grpc10reflection7v1alpha13ErrorResponse8CopyFromERKN6google8protobuf7MessageE
libgrpc++_reflection.so.1:_ZN4grpc10reflection7v1alpha13ErrorResponse8CopyFromERKS2_
libgrpc++_reflection.so.1:_ZN4grpc10reflection7v1alpha13ErrorResponse9MergeFromERKN6google8protobuf7MessageE
libgrpc++_reflection.so.1:_ZN4grpc10reflection7v1alpha13ErrorResponse9MergeFromERKS2_
libgrpc++_reflection.so.1:_ZN4grpc10reflection7v1alpha13ErrorResponseC1ERKS2_
libgrpc++_reflection.so.1:_ZN4grpc10reflection7v1alpha13ErrorResponseC1Ev
libgrpc++_reflection.so.1:_ZN4grpc10reflection7v1alpha13ErrorResponseC2ERKS2_
libgrpc++_reflection.so.1:_ZN4grpc10reflection7v1alpha13ErrorResponseC2Ev
libgrpc++_reflection.so.1:_ZN4grpc10reflection7v1alpha13ErrorResponseD0Ev
libgrpc++_reflection.so.1:_ZN4grpc10reflection7v1alpha13ErrorResponseD1Ev
libgrpc++_reflection.so.1:_ZN4grpc10reflection7v1alpha13ErrorResponseD2Ev
libgrpc++_reflection.so.1:_ZN4grpc10reflection7v1alpha15ServiceResponse12InternalSwapEPS2_
libgrpc++_reflection.so.1:_ZN4grpc10reflection7v1alpha15ServiceResponse16default_instanceEv
libgrpc++_reflection.so.1:_ZN4grpc10reflection7v1alpha15ServiceResponse21InitAsDefaultInstanceEv
libgrpc++_reflection.so.1:_ZN4grpc10reflection7v1alpha15ServiceResponse27MergePartialFromCodedStreamEPN6google8protobuf2io16CodedInputStreamE
libgrpc++_reflection.so.1:_ZN4grpc10reflection7v1alpha15ServiceResponse4SwapEPS2_
libgrpc++_reflection.so.1:_ZN4grpc10reflection7v1alpha15ServiceResponse5ClearEv
libgrpc++_reflection.so.1:_ZN4grpc10reflection7v1alpha15ServiceResponse8CopyFromERKN6google8protobuf7MessageE
libgrpc++_reflection.so.1:_ZN4grpc10reflection7v1alpha15ServiceResponse8CopyFromERKS2_
libgrpc++_reflection.so.1:_ZN4grpc10reflection7v1alpha15ServiceResponse9MergeFromERKN6google8protobuf7MessageE
libgrpc++_reflection.so.1:_ZN4grpc10reflection7v1alpha15ServiceResponse9MergeFromERKS2_
libgrpc++_reflection.so.1:_ZN4grpc10reflection7v1alpha15ServiceResponseC1ERKS2_
libgrpc++_reflection.so.1:_ZN4grpc10reflection7v1alpha15ServiceResponseC1Ev
libgrpc++_reflection.so.1:_ZN4grpc10reflection7v1alpha15ServiceResponseC2ERKS2_
libgrpc++_reflection.so.1:_ZN4grpc10reflection7v1alpha15ServiceResponseC2Ev
libgrpc++_reflection.so.1:_ZN4grpc10reflection7v1alpha15ServiceResponseD0Ev
libgrpc++_reflection.so.1:_ZN4grpc10reflection7v1alpha15ServiceResponseD1Ev
libgrpc++_reflection.so.1:_ZN4grpc10reflection7v1alpha15ServiceResponseD2Ev
libgrpc++_reflection.so.1:_ZN4grpc10reflection7v1alpha16ExtensionRequest12InternalSwapEPS2_
libgrpc++_reflection.so.1:_ZN4grpc10reflection7v1alpha16ExtensionRequest16default_instanceEv
libgrpc++_reflection.so.1:_ZN4grpc10reflection7v1alpha16ExtensionRequest21InitAsDefaultInstanceEv
libgrpc++_reflection.so.1:_ZN4grpc10reflection7v1alpha16ExtensionRequest27MergePartialFromCodedStreamEPN6google8protobuf2io16CodedInputStreamE
libgrpc++_reflection.so.1:_ZN4grpc10reflection7v1alpha16ExtensionRequest4SwapEPS2_
libgrpc++_reflection.so.1:_ZN4grpc10reflection7v1alpha16ExtensionRequest5ClearEv
libgrpc++_reflection.so.1:_ZN4grpc10reflection7v1alpha16ExtensionRequest8CopyFromERKN6google8protobuf7MessageE
libgrpc++_reflection.so.1:_ZN4grpc10reflection7v1alpha16ExtensionRequest8CopyFromERKS2_
libgrpc++_reflection.so.1:_ZN4grpc10reflection7v1alpha16ExtensionRequest9MergeFromERKN6google8protobuf7MessageE
libgrpc++_reflection.so.1:_ZN4grpc10reflection7v1alpha16ExtensionRequest9MergeFromERKS2_
libgrpc++_reflection.so.1:_ZN4grpc10reflection7v1alpha16ExtensionRequestC1ERKS2_
libgrpc++_reflection.so.1:_ZN4grpc10reflection7v1alpha16ExtensionRequestC1Ev
libgrpc++_reflection.so.1:_ZN4grpc10reflection7v1alpha16ExtensionRequestC2ERKS2_
libgrpc++_reflection.so.1:_ZN4grpc10reflection7v1alpha16ExtensionRequestC2Ev
libgrpc++_reflection.so.1:_ZN4grpc10reflection7v1alpha16ExtensionRequestD0Ev
libgrpc++_reflection.so.1:_ZN4grpc10reflection7v1alpha16ExtensionRequestD1Ev
libgrpc++_reflection.so.1:_ZN4grpc10reflection7v1alpha16ExtensionRequestD2Ev
libgrpc++_reflection.so.1:_ZN4grpc10reflection7v1alpha16ServerReflection4Stub18experimental_async20ServerReflectionInfoEPN9grpc_impl13ClientContextEPNS5_12experimental17ClientBidiReactorINS1_23ServerReflectionRequestENS1_24ServerReflectionResponseEEE
libgrpc++_reflection.so.1:_ZN4grpc10reflection7v1alpha16ServerReflection4Stub23ServerReflectionInfoRawEPN9grpc_impl13ClientContextE
libgrpc++_reflection.so.1:_ZN4grpc10reflection7v1alpha16ServerReflection4Stub28AsyncServerReflectionInfoRawEPN9grpc_impl13ClientContextEPNS4_15CompletionQueueEPv
libgrpc++_reflection.so.1:_ZN4grpc10reflection7v1alpha16ServerReflection4Stub35PrepareAsyncServerReflectionInfoRawEPN9grpc_impl13ClientContextEPNS4_15CompletionQueueE
libgrpc++_reflection.so.1:_ZN4grpc10reflection7v1alpha16ServerReflection4StubC1ERKSt10shared_ptrINS_16ChannelInterfaceEE
libgrpc++_reflection.so.1:_ZN4grpc10reflection7v1alpha16ServerReflection4StubC2ERKSt10shared_ptrINS_16ChannelInterfaceEE
libgrpc++_reflection.so.1:_ZN4grpc10reflection7v1alpha16ServerReflection7NewStubERKSt10shared_ptrINS_16ChannelInterfaceEERKNS_11StubOptionsE
libgrpc++_reflection.so.1:_ZN4grpc10reflection7v1alpha16ServerReflection7Service20ServerReflectionInfoEPN9grpc_impl13ServerContextEPNS4_18ServerReaderWriterINS1_24ServerReflectionResponseENS1_23ServerReflectionRequestEEE
libgrpc++_reflection.so.1:_ZN4grpc10reflection7v1alpha16ServerReflection7ServiceC1Ev
libgrpc++_reflection.so.1:_ZN4grpc10reflection7v1alpha16ServerReflection7ServiceC2Ev
libgrpc++_reflection.so.1:_ZN4grpc10reflection7v1alpha16ServerReflection7ServiceD0Ev
libgrpc++_reflection.so.1:_ZN4grpc10reflection7v1alpha16ServerReflection7ServiceD1Ev
libgrpc++_reflection.so.1:_ZN4grpc10reflection7v1alpha16ServerReflection7ServiceD2Ev
libgrpc++_reflection.so.1:_ZN4grpc10reflection7v1alpha19ListServiceResponse12InternalSwapEPS2_
libgrpc++_reflection.so.1:_ZN4grpc10reflection7v1alpha19ListServiceResponse16default_instanceEv
libgrpc++_reflection.so.1:_ZN4grpc10reflection7v1alpha19ListServiceResponse21InitAsDefaultInstanceEv
libgrpc++_reflection.so.1:_ZN4grpc10reflection7v1alpha19ListServiceResponse27MergePartialFromCodedStreamEPN6google8protobuf2io16CodedInputStreamE
libgrpc++_reflection.so.1:_ZN4grpc10reflection7v1alpha19ListServiceResponse4SwapEPS2_
libgrpc++_reflection.so.1:_ZN4grpc10reflection7v1alpha19ListServiceResponse5ClearEv
libgrpc++_reflection.so.1:_ZN4grpc10reflection7v1alpha19ListServiceResponse8CopyFromERKN6google8protobuf7MessageE
libgrpc++_reflection.so.1:_ZN4grpc10reflection7v1alpha19ListServiceResponse8CopyFromERKS2_
libgrpc++_reflection.so.1:_ZN4grpc10reflection7v1alpha19ListServiceResponse9MergeFromERKN6google8protobuf7MessageE
libgrpc++_reflection.so.1:_ZN4grpc10reflection7v1alpha19ListServiceResponse9MergeFromERKS2_
libgrpc++_reflection.so.1:_ZN4grpc10reflection7v1alpha19ListServiceResponseC1ERKS2_
libgrpc++_reflection.so.1:_ZN4grpc10reflection7v1alpha19ListServiceResponseC1Ev
libgrpc++_reflection.so.1:_ZN4grpc10reflection7v1alpha19ListServiceResponseC2ERKS2_
libgrpc++_reflection.so.1:_ZN4grpc10reflection7v1alpha19ListServiceResponseC2Ev
libgrpc++_reflection.so.1:_ZN4grpc10reflection7v1alpha19ListServiceResponseD0Ev
libgrpc++_reflection.so.1:_ZN4grpc10reflection7v1alpha19ListServiceResponseD1Ev
libgrpc++_reflection.so.1:_ZN4grpc10reflection7v1alpha19ListServiceResponseD2Ev
libgrpc++_reflection.so.1:_ZN4grpc10reflection7v1alpha22FileDescriptorResponse12InternalSwapEPS2_
libgrpc++_reflection.so.1:_ZN4grpc10reflection7v1alpha22FileDescriptorResponse16default_instanceEv
libgrpc++_reflection.so.1:_ZN4grpc10reflection7v1alpha22FileDescriptorResponse21InitAsDefaultInstanceEv
libgrpc++_reflection.so.1:_ZN4grpc10reflection7v1alpha22FileDescriptorResponse27MergePartialFromCodedStreamEPN6google8protobuf2io16CodedInputStreamE
libgrpc++_reflection.so.1:_ZN4grpc10reflection7v1alpha22FileDescriptorResponse4SwapEPS2_
libgrpc++_reflection.so.1:_ZN4grpc10reflection7v1alpha22FileDescriptorResponse5ClearEv
libgrpc++_reflection.so.1:_ZN4grpc10reflection7v1alpha22FileDescriptorResponse8CopyFromERKN6google8protobuf7MessageE
libgrpc++_reflection.so.1:_ZN4grpc10reflection7v1alpha22FileDescriptorResponse8CopyFromERKS2_
libgrpc++_reflection.so.1:_ZN4grpc10reflection7v1alpha22FileDescriptorResponse9MergeFromERKN6google8protobuf7MessageE
libgrpc++_reflection.so.1:_ZN4grpc10reflection7v1alpha22FileDescriptorResponse9MergeFromERKS2_
libgrpc++_reflection.so.1:_ZN4grpc10reflection7v1alpha22FileDescriptorResponseC1ERKS2_
libgrpc++_reflection.so.1:_ZN4grpc10reflection7v1alpha22FileDescriptorResponseC1Ev
libgrpc++_reflection.so.1:_ZN4grpc10reflection7v1alpha22FileDescriptorResponseC2ERKS2_
libgrpc++_reflection.so.1:_ZN4grpc10reflection7v1alpha22FileDescriptorResponseC2Ev
libgrpc++_reflection.so.1:_ZN4grpc10reflection7v1alpha22FileDescriptorResponseD0Ev
libgrpc++_reflection.so.1:_ZN4grpc10reflection7v1alpha22FileDescriptorResponseD1Ev
libgrpc++_reflection.so.1:_ZN4grpc10reflection7v1alpha22FileDescriptorResponseD2Ev
libgrpc++_reflection.so.1:_ZN4grpc10reflection7v1alpha23ExtensionNumberResponse12InternalSwapEPS2_
libgrpc++_reflection.so.1:_ZN4grpc10reflection7v1alpha23ExtensionNumberResponse16default_instanceEv
libgrpc++_reflection.so.1:_ZN4grpc10reflection7v1alpha23ExtensionNumberResponse21InitAsDefaultInstanceEv
libgrpc++_reflection.so.1:_ZN4grpc10reflection7v1alpha23ExtensionNumberResponse27MergePartialFromCodedStreamEPN6google8protobuf2io16CodedInputStreamE
libgrpc++_reflection.so.1:_ZN4grpc10reflection7v1alpha23ExtensionNumberResponse4SwapEPS2_
libgrpc++_reflection.so.1:_ZN4grpc10reflection7v1alpha23ExtensionNumberResponse5ClearEv
libgrpc++_reflection.so.1:_ZN4grpc10reflection7v1alpha23ExtensionNumberResponse8CopyFromERKN6google8protobuf7MessageE
libgrpc++_reflection.so.1:_ZN4grpc10reflection7v1alpha23ExtensionNumberResponse8CopyFromERKS2_
libgrpc++_reflection.so.1:_ZN4grpc10reflection7v1alpha23ExtensionNumberResponse9MergeFromERKN6google8protobuf7MessageE
libgrpc++_reflection.so.1:_ZN4grpc10reflection7v1alpha23ExtensionNumberResponse9MergeFromERKS2_
libgrpc++_reflection.so.1:_ZN4grpc10reflection7v1alpha23ExtensionNumberResponseC1ERKS2_
libgrpc++_reflection.so.1:_ZN4grpc10reflection7v1alpha23ExtensionNumberResponseC1Ev
libgrpc++_reflection.so.1:_ZN4grpc10reflection7v1alpha23ExtensionNumberResponseC2ERKS2_
libgrpc++_reflection.so.1:_ZN4grpc10reflection7v1alpha23ExtensionNumberResponseC2Ev
libgrpc++_reflection.so.1:_ZN4grpc10reflection7v1alpha23ExtensionNumberResponseD0Ev
libgrpc++_reflection.so.1:_ZN4grpc10reflection7v1alpha23ExtensionNumberResponseD1Ev
libgrpc++_reflection.so.1:_ZN4grpc10reflection7v1alpha23ExtensionNumberResponseD2Ev
libgrpc++_reflection.so.1:_ZN4grpc10reflection7v1alpha23ServerReflectionRequest12InternalSwapEPS2_
libgrpc++_reflection.so.1:_ZN4grpc10reflection7v1alpha23ServerReflectionRequest13HasBitSetters25file_containing_extensionEPKS2_
libgrpc++_reflection.so.1:_ZN4grpc10reflection7v1alpha23ServerReflectionRequest16default_instanceEv
libgrpc++_reflection.so.1:_ZN4grpc10reflection7v1alpha23ServerReflectionRequest21InitAsDefaultInstanceEv
libgrpc++_reflection.so.1:_ZN4grpc10reflection7v1alpha23ServerReflectionRequest21clear_message_requestEv
libgrpc++_reflection.so.1:_ZN4grpc10reflection7v1alpha23ServerReflectionRequest27MergePartialFromCodedStreamEPN6google8protobuf2io16CodedInputStreamE
libgrpc++_reflection.so.1:_ZN4grpc10reflection7v1alpha23ServerReflectionRequest39set_allocated_file_containing_extensionEPNS1_16ExtensionRequestE
libgrpc++_reflection.so.1:_ZN4grpc10reflection7v1alpha23ServerReflectionRequest4SwapEPS2_
libgrpc++_reflection.so.1:_ZN4grpc10reflection7v1alpha23ServerReflectionRequest5ClearEv
libgrpc++_reflection.so.1:_ZN4grpc10reflection7v1alpha23ServerReflectionRequest8CopyFromERKN6google8protobuf7MessageE
libgrpc++_reflection.so.1:_ZN4grpc10reflection7v1alpha23ServerReflectionRequest8CopyFromERKS2_
libgrpc++_reflection.so.1:_ZN4grpc10reflection7v1alpha23ServerReflectionRequest9MergeFromERKN6google8protobuf7MessageE
libgrpc++_reflection.so.1:_ZN4grpc10reflection7v1alpha23ServerReflectionRequest9MergeFromERKS2_
libgrpc++_reflection.so.1:_ZN4grpc10reflection7v1alpha23ServerReflectionRequestC1ERKS2_
libgrpc++_reflection.so.1:_ZN4grpc10reflection7v1alpha23ServerReflectionRequestC1Ev
libgrpc++_reflection.so.1:_ZN4grpc10reflection7v1alpha23ServerReflectionRequestC2ERKS2_
libgrpc++_reflection.so.1:_ZN4grpc10reflection7v1alpha23ServerReflectionRequestC2Ev
libgrpc++_reflection.so.1:_ZN4grpc10reflection7v1alpha23ServerReflectionRequestD0Ev
libgrpc++_reflection.so.1:_ZN4grpc10reflection7v1alpha23ServerReflectionRequestD1Ev
libgrpc++_reflection.so.1:_ZN4grpc10reflection7v1alpha23ServerReflectionRequestD2Ev
libgrpc++_reflection.so.1:_ZN4grpc10reflection7v1alpha24ServerReflectionResponse12InternalSwapEPS2_
libgrpc++_reflection.so.1:_ZN4grpc10reflection7v1alpha24ServerReflectionResponse13HasBitSetters14error_responseEPKS2_
libgrpc++_reflection.so.1:_ZN4grpc10reflection7v1alpha24ServerReflectionResponse13HasBitSetters16original_requestEPKS2_
libgrpc++_reflection.so.1:_ZN4grpc10reflection7v1alpha24ServerReflectionResponse13HasBitSetters22list_services_responseEPKS2_
libgrpc++_reflection.so.1:_ZN4grpc10reflection7v1alpha24ServerReflectionResponse13HasBitSetters24file_descriptor_responseEPKS2_
libgrpc++_reflection.so.1:_ZN4grpc10reflection7v1alpha24ServerReflectionResponse13HasBitSetters30all_extension_numbers_responseEPKS2_
libgrpc++_reflection.so.1:_ZN4grpc10reflection7v1alpha24ServerReflectionResponse16default_instanceEv
libgrpc++_reflection.so.1:_ZN4grpc10reflection7v1alpha24ServerReflectionResponse21InitAsDefaultInstanceEv
libgrpc++_reflection.so.1:_ZN4grpc10reflection7v1alpha24ServerReflectionResponse22clear_message_responseEv
libgrpc++_reflection.so.1:_ZN4grpc10reflection7v1alpha24ServerReflectionResponse27MergePartialFromCodedStreamEPN6google8protobuf2io16CodedInputStreamE
libgrpc++_reflection.so.1:_ZN4grpc10reflection7v1alpha24ServerReflectionResponse28set_allocated_error_responseEPNS1_13ErrorResponseE
libgrpc++_reflection.so.1:_ZN4grpc10reflection7v1alpha24ServerReflectionResponse36set_allocated_list_services_responseEPNS1_19ListServiceResponseE
libgrpc++_reflection.so.1:_ZN4grpc10reflection7v1alpha24ServerReflectionResponse38set_allocated_file_descriptor_responseEPNS1_22FileDescriptorResponseE
libgrpc++_reflection.so.1:_ZN4grpc10reflection7v1alpha24ServerReflectionResponse44set_allocated_all_extension_numbers_responseEPNS1_23ExtensionNumberResponseE
libgrpc++_reflection.so.1:_ZN4grpc10reflection7v1alpha24ServerReflectionResponse4SwapEPS2_
libgrpc++_reflection.so.1:_ZN4grpc10reflection7v1alpha24ServerReflectionResponse5ClearEv
libgrpc++_reflection.so.1:_ZN4grpc10reflection7v1alpha24ServerReflectionResponse8CopyFromERKN6google8protobuf7MessageE
libgrpc++_reflection.so.1:_ZN4grpc10reflection7v1alpha24ServerReflectionResponse8CopyFromERKS2_
libgrpc++_reflection.so.1:_ZN4grpc10reflection7v1alpha24ServerReflectionResponse9MergeFromERKN6google8protobuf7MessageE
libgrpc++_reflection.so.1:_ZN4grpc10reflection7v1alpha24ServerReflectionResponse9MergeFromERKS2_
libgrpc++_reflection.so.1:_ZN4grpc10reflection7v1alpha24ServerReflectionResponseC1ERKS2_
libgrpc++_reflection.so.1:_ZN4grpc10reflection7v1alpha24ServerReflectionResponseC1Ev
libgrpc++_reflection.so.1:_ZN4grpc10reflection7v1alpha24ServerReflectionResponseC2ERKS2_
libgrpc++_reflection.so.1:_ZN4grpc10reflection7v1alpha24ServerReflectionResponseC2Ev
libgrpc++_reflection.so.1:_ZN4grpc10reflection7v1alpha24ServerReflectionResponseD0Ev
libgrpc++_reflection.so.1:_ZN4grpc10reflection7v1alpha24ServerReflectionResponseD1Ev
libgrpc++_reflection.so.1:_ZN4grpc10reflection7v1alpha24ServerReflectionResponseD2Ev
libgrpc++_reflection.so.1:_ZN4grpc21ProtoServerReflection11ListServiceEPN9grpc_impl13ServerContextEPNS_10reflection7v1alpha19ListServiceResponseE
libgrpc++_reflection.so.1:_ZN4grpc21ProtoServerReflection13GetFileByNameEPN9grpc_impl13ServerContextERKNSt7__cxx1112basic_stringIcSt11char_traitsIcESaIcEEEPNS_10reflection7v1alpha24ServerReflectionResponseE
libgrpc++_reflection.so.1:_ZN4grpc21ProtoServerReflection14SetServiceListEPKSt6vectorINSt7__cxx1112basic_stringIcSt11char_traitsIcESaIcEEESaIS7_EE
libgrpc++_reflection.so.1:_ZN4grpc21ProtoServerReflection17FillErrorResponseERKNS_6StatusEPNS_10reflection7v1alpha13ErrorResponseE
libgrpc++_reflection.so.1:_ZN4grpc21ProtoServerReflection20ServerReflectionInfoEPN9grpc_impl13ServerContextEPNS1_18ServerReaderWriterINS_10reflection7v1alpha24ServerReflectionResponseENS6_23ServerReflectionRequestEEE
libgrpc++_reflection.so.1:_ZN4grpc21ProtoServerReflection22GetAllExtensionNumbersEPN9grpc_impl13ServerContextERKNSt7__cxx1112basic_stringIcSt11char_traitsIcESaIcEEEPNS_10reflection7v1alpha23ExtensionNumberResponseE
libgrpc++_reflection.so.1:_ZN4grpc21ProtoServerReflection23GetFileContainingSymbolEPN9grpc_impl13ServerContextERKNSt7__cxx1112basic_stringIcSt11char_traitsIcESaIcEEEPNS_10reflection7v1alpha24ServerReflectionResponseE
libgrpc++_reflection.so.1:_ZN4grpc21ProtoServerReflection26FillFileDescriptorResponseEPKN6google8protobuf14FileDescriptorEPNS_10reflection7v1alpha24ServerReflectionResponseEPSt13unordered_setINSt7__cxx1112basic_stringIcSt11char_traitsIcESaIcEEESt4hashISG_ESt8equal_toISG_ESaISG_EE
libgrpc++_reflection.so.1:_ZN4grpc21ProtoServerReflection26GetFileContainingExtensionEPN9grpc_impl13ServerContextEPKNS_10reflection7v1alpha16ExtensionRequestEPNS5_24ServerReflectionResponseE
libgrpc++_reflection.so.1:_ZN4grpc21ProtoServerReflectionC1Ev
libgrpc++_reflection.so.1:_ZN4grpc21ProtoServerReflectionC2Ev
libgrpc++_reflection.so.1:_ZN6google8protobuf10ReflectionD0Ev
libgrpc++_reflection.so.1:_ZN6google8protobuf10ReflectionD1Ev
libgrpc++_reflection.so.1:_ZN6google8protobuf10ReflectionD2Ev
libgrpc++_reflection.so.1:_ZN6google8protobuf10SimpleDtoaB5cxx11Ed
libgrpc++_reflection.so.1:_ZN6google8protobuf10SimpleFtoaB5cxx11Ef
libgrpc++_reflection.so.1:_ZN6google8protobuf10SimpleItoaB5cxx11Ei
libgrpc++_reflection.so.1:_ZN6google8protobuf10SimpleItoaB5cxx11Ej
libgrpc++_reflection.so.1:_ZN6google8protobuf10SimpleItoaB5cxx11El
libgrpc++_reflection.so.1:_ZN6google8protobuf10SimpleItoaB5cxx11Em
libgrpc++_reflection.so.1:_ZN6google8protobuf10SimpleItoaB5cxx11Ex
libgrpc++_reflection.so.1:_ZN6google8protobuf10SimpleItoaB5cxx11Ey
libgrpc++_reflection.so.1:_ZN6google8protobuf10TextFormat13ParseInfoTree12CreateNestedEPKNS0_15FieldDescriptorE
libgrpc++_reflection.so.1:_ZN6google8protobuf10TextFormat13ParseInfoTree14RecordLocationEPKNS0_15FieldDescriptorENS1_13ParseLocationE
libgrpc++_reflection.so.1:_ZN6google8protobuf10TextFormat13ParseInfoTreeC1Ev
libgrpc++_reflection.so.1:_ZN6google8protobuf10TextFormat13ParseInfoTreeC2Ev
libgrpc++_reflection.so.1:_ZN6google8protobuf10TextFormat13ParseInfoTreeD1Ev
libgrpc++_reflection.so.1:_ZN6google8protobuf10TextFormat13ParseInfoTreeD2Ev
libgrpc++_reflection.so.1:_ZN6google8protobuf10TextFormat13PrintToStringERKNS0_7MessageEPNSt7__cxx1112basic_stringIcSt11char_traitsIcESaIcEEE
libgrpc++_reflection.so.1:_ZN6google8protobuf10TextFormat15MergeFromStringERKNSt7__cxx1112basic_stringIcSt11char_traitsIcESaIcEEEPNS0_7MessageE
libgrpc++_reflection.so.1:_ZN6google8protobuf10TextFormat15ParseFromStringERKNSt7__cxx1112basic_stringIcSt11char_traitsIcESaIcEEEPNS0_7MessageE
libgrpc++_reflection.so.1:_ZN6google8protobuf10TextFormat17BaseTextGeneratorD0Ev
libgrpc++_reflection.so.1:_ZN6google8protobuf10TextFormat17BaseTextGeneratorD1Ev
libgrpc++_reflection.so.1:_ZN6google8protobuf10TextFormat17BaseTextGeneratorD2Ev
libgrpc++_reflection.so.1:_ZN6google8protobuf10TextFormat17FieldValuePrinterC1Ev
libgrpc++_reflection.so.1:_ZN6google8protobuf10TextFormat17FieldValuePrinterC2Ev
libgrpc++_reflection.so.1:_ZN6google8protobuf10TextFormat17FieldValuePrinterD0Ev
libgrpc++_reflection.so.1:_ZN6google8protobuf10TextFormat17FieldValuePrinterD1Ev
libgrpc++_reflection.so.1:_ZN6google8protobuf10TextFormat17FieldValuePrinterD2Ev
libgrpc++_reflection.so.1:_ZN6google8protobuf10TextFormat18PrintUnknownFieldsERKNS0_15UnknownFieldSetEPNS0_2io20ZeroCopyOutputStreamE
libgrpc++_reflection.so.1:_ZN6google8protobuf10TextFormat21FastFieldValuePrinterC1Ev
libgrpc++_reflection.so.1:_ZN6google8protobuf10TextFormat21FastFieldValuePrinterC2Ev
libgrpc++_reflection.so.1:_ZN6google8protobuf10TextFormat21FastFieldValuePrinterD0Ev
libgrpc++_reflection.so.1:_ZN6google8protobuf10TextFormat21FastFieldValuePrinterD1Ev
libgrpc++_reflection.so.1:_ZN6google8protobuf10TextFormat21FastFieldValuePrinterD2Ev
libgrpc++_reflection.so.1:_ZN6google8protobuf10TextFormat23PrintFieldValueToStringERKNS0_7MessageEPKNS0_15FieldDescriptorEiPNSt7__cxx1112basic_stringIcSt11char_traitsIcESaIcEEE
libgrpc++_reflection.so.1:_ZN6google8protobuf10TextFormat25ParseFieldValueFromStringERKNSt7__cxx1112basic_stringIcSt11char_traitsIcESaIcEEEPKNS0_15FieldDescriptorEPNS0_7MessageE
libgrpc++_reflection.so.1:_ZN6google8protobuf10TextFormat26PrintUnknownFieldsToStringERKNS0_15UnknownFieldSetEPNSt7__cxx1112basic_stringIcSt11char_traitsIcESaIcEEE
libgrpc++_reflection.so.1:_ZN6google8protobuf10TextFormat5MergeEPNS0_2io19ZeroCopyInputStreamEPNS0_7MessageE
libgrpc++_reflection.so.1:_ZN6google8protobuf10TextFormat5ParseEPNS0_2io19ZeroCopyInputStreamEPNS0_7MessageE
libgrpc++_reflection.so.1:_ZN6google8protobuf10TextFormat5PrintERKNS0_7MessageEPNS0_2io20ZeroCopyOutputStreamE
libgrpc++_reflection.so.1:_ZN6google8protobuf10TextFormat6FinderD0Ev
libgrpc++_reflection.so.1:_ZN6google8protobuf10TextFormat6FinderD1Ev
libgrpc++_reflection.so.1:_ZN6google8protobuf10TextFormat6FinderD2Ev
libgrpc++_reflection.so.1:_ZN6google8protobuf10TextFormat6Parser14MergeUsingImplEPNS0_2io19ZeroCopyInputStreamEPNS0_7MessageEPNS2_10ParserImplE
libgrpc++_reflection.so.1:_ZN6google8protobuf10TextFormat6Parser15MergeFromStringERKNSt7__cxx1112basic_stringIcSt11char_traitsIcESaIcEEEPNS0_7MessageE
libgrpc++_reflection.so.1:_ZN6google8protobuf10TextFormat6Parser15ParseFromStringERKNSt7__cxx1112basic_stringIcSt11char_traitsIcESaIcEEEPNS0_7MessageE
libgrpc++_reflection.so.1:_ZN6google8protobuf10TextFormat6Parser25ParseFieldValueFromStringERKNSt7__cxx1112basic_stringIcSt11char_traitsIcESaIcEEEPKNS0_15FieldDescriptorEPNS0_7MessageE
libgrpc++_reflection.so.1:_ZN6google8protobuf10TextFormat6Parser5MergeEPNS0_2io19ZeroCopyInputStreamEPNS0_7MessageE
libgrpc++_reflection.so.1:_ZN6google8protobuf10TextFormat6Parser5ParseEPNS0_2io19ZeroCopyInputStreamEPNS0_7MessageE
libgrpc++_reflection.so.1:_ZN6google8protobuf10TextFormat6ParserC1Ev
libgrpc++_reflection.so.1:_ZN6google8protobuf10TextFormat6ParserC2Ev
libgrpc++_reflection.so.1:_ZN6google8protobuf10TextFormat6ParserD1Ev
libgrpc++_reflection.so.1:_ZN6google8protobuf10TextFormat6ParserD2Ev
libgrpc++_reflection.so.1:_ZN6google8protobuf10TextFormat7Printer22RegisterMessagePrinterEPKNS0_10DescriptorEPKNS1_14MessagePrinterE
libgrpc++_reflection.so.1:_ZN6google8protobuf10TextFormat7Printer24SetUseUtf8StringEscapingEb
libgrpc++_reflection.so.1:_ZN6google8protobuf10TextFormat7Printer25RegisterFieldValuePrinterEPKNS0_15FieldDescriptorEPKNS1_17FieldValuePrinterE
libgrpc++_reflection.so.1:_ZN6google8protobuf10TextFormat7Printer25RegisterFieldValuePrinterEPKNS0_15FieldDescriptorEPKNS1_21FastFieldValuePrinterE
libgrpc++_reflection.so.1:_ZN6google8protobuf10TextFormat7Printer27SetDefaultFieldValuePrinterEPKNS1_17FieldValuePrinterE
libgrpc++_reflection.so.1:_ZN6google8protobuf10TextFormat7Printer27SetDefaultFieldValuePrinterEPKNS1_21FastFieldValuePrinterE
libgrpc++_reflection.so.1:_ZN6google8protobuf10TextFormat7PrinterC1Ev
libgrpc++_reflection.so.1:_ZN6google8protobuf10TextFormat7PrinterC2Ev
libgrpc++_reflection.so.1:_ZN6google8protobuf10TextFormat7PrinterD1Ev
libgrpc++_reflection.so.1:_ZN6google8protobuf10TextFormat7PrinterD2Ev
libgrpc++_reflection.so.1:_ZN6google8protobuf11EnumOptions12InternalSwapEPS1_
libgrpc++_reflection.so.1:_ZN6google8protobuf11EnumOptions15UnsafeArenaSwapEPS1_
libgrpc++_reflection.so.1:_ZN6google8protobuf11EnumOptions16default_instanceEv
libgrpc++_reflection.so.1:_ZN6google8protobuf11EnumOptions21InitAsDefaultInstanceEv
libgrpc++_reflection.so.1:_ZN6google8protobuf11EnumOptions27MergePartialFromCodedStreamEPNS0_2io16CodedInputStreamE
libgrpc++_reflection.so.1:_ZN6google8protobuf11EnumOptions4SwapEPS1_
libgrpc++_reflection.so.1:_ZN6google8protobuf11EnumOptions5ClearEv
libgrpc++_reflection.so.1:_ZN6google8protobuf11EnumOptions8CopyFromERKNS0_7MessageE
libgrpc++_reflection.so.1:_ZN6google8protobuf11EnumOptions8CopyFromERKS1_
libgrpc++_reflection.so.1:_ZN6google8protobuf11EnumOptions9ArenaDtorEPv
libgrpc++_reflection.so.1:_ZN6google8protobuf11EnumOptions9MergeFromERKNS0_7MessageE
libgrpc++_reflection.so.1:_ZN6google8protobuf11EnumOptions9MergeFromERKS1_
libgrpc++_reflection.so.1:_ZN6google8protobuf11EnumOptionsC1EPNS0_5ArenaE
libgrpc++_reflection.so.1:_ZN6google8protobuf11EnumOptionsC1ERKS1_
libgrpc++_reflection.so.1:_ZN6google8protobuf11EnumOptionsC1Ev
libgrpc++_reflection.so.1:_ZN6google8protobuf11EnumOptionsC2EPNS0_5ArenaE
libgrpc++_reflection.so.1:_ZN6google8protobuf11EnumOptionsC2ERKS1_
libgrpc++_reflection.so.1:_ZN6google8protobuf11EnumOptionsC2Ev
libgrpc++_reflection.so.1:_ZN6google8protobuf11EnumOptionsD0Ev
libgrpc++_reflection.so.1:_ZN6google8protobuf11EnumOptionsD1Ev
libgrpc++_reflection.so.1:_ZN6google8protobuf11EnumOptionsD2Ev
libgrpc++_reflection.so.1:_ZN6google8protobuf11FileOptions12InternalSwapEPS1_
libgrpc++_reflection.so.1:_ZN6google8protobuf11FileOptions15UnsafeArenaSwapEPS1_
libgrpc++_reflection.so.1:_ZN6google8protobuf11FileOptions16default_instanceEv
libgrpc++_reflection.so.1:_ZN6google8protobuf11FileOptions21InitAsDefaultInstanceEv
libgrpc++_reflection.so.1:_ZN6google8protobuf11FileOptions27MergePartialFromCodedStreamEPNS0_2io16CodedInputStreamE
libgrpc++_reflection.so.1:_ZN6google8protobuf11FileOptions4SwapEPS1_
libgrpc++_reflection.so.1:_ZN6google8protobuf11FileOptions5ClearEv
libgrpc++_reflection.so.1:_ZN6google8protobuf11FileOptions8CopyFromERKNS0_7MessageE
libgrpc++_reflection.so.1:_ZN6google8protobuf11FileOptions8CopyFromERKS1_
libgrpc++_reflection.so.1:_ZN6google8protobuf11FileOptions9ArenaDtorEPv
libgrpc++_reflection.so.1:_ZN6google8protobuf11FileOptions9MergeFromERKNS0_7MessageE
libgrpc++_reflection.so.1:_ZN6google8protobuf11FileOptions9MergeFromERKS1_
libgrpc++_reflection.so.1:_ZN6google8protobuf11FileOptionsC1EPNS0_5ArenaE
libgrpc++_reflection.so.1:_ZN6google8protobuf11FileOptionsC1ERKS1_
libgrpc++_reflection.so.1:_ZN6google8protobuf11FileOptionsC1Ev
libgrpc++_reflection.so.1:_ZN6google8protobuf11FileOptionsC2EPNS0_5ArenaE
libgrpc++_reflection.so.1:_ZN6google8protobuf11FileOptionsC2ERKS1_
libgrpc++_reflection.so.1:_ZN6google8protobuf11FileOptionsC2Ev
libgrpc++_reflection.so.1:_ZN6google8protobuf11FileOptionsD0Ev
libgrpc++_reflection.so.1:_ZN6google8protobuf11FileOptionsD1Ev
libgrpc++_reflection.so.1:_ZN6google8protobuf11FileOptionsD2Ev
libgrpc++_reflection.so.1:_ZN6google8protobuf11JoinStringsERKSt6vectorINSt7__cxx1112basic_stringIcSt11char_traitsIcESaIcEEESaIS7_EEPKcPS7_
libgrpc++_reflection.so.1:_ZN6google8protobuf11LogSilencerC1Ev
libgrpc++_reflection.so.1:_ZN6google8protobuf11LogSilencerC2Ev
libgrpc++_reflection.so.1:_ZN6google8protobuf11LogSilencerD1Ev
libgrpc++_reflection.so.1:_ZN6google8protobuf11LogSilencerD2Ev
libgrpc++_reflection.so.1:_ZN6google8protobuf11MessageLite14ParseFromArrayEPKvi
libgrpc++_reflection.so.1:_ZN6google8protobuf11MessageLite15MergeFromStringERKNSt7__cxx1112basic_stringIcSt11char_traitsIcESaIcEEE
libgrpc++_reflection.so.1:_ZN6google8protobuf11MessageLite15ParseFromStringERKNSt7__cxx1112basic_stringIcSt11char_traitsIcESaIcEEE
libgrpc++_reflection.so.1:_ZN6google8protobuf11MessageLite20MergeFromCodedStreamEPNS0_2io16CodedInputStreamE
libgrpc++_reflection.so.1:_ZN6google8protobuf11MessageLite20ParseFromCodedStreamEPNS0_2io16CodedInputStreamE
libgrpc++_reflection.so.1:_ZN6google8protobuf11MessageLite21ParsePartialFromArrayEPKvi
libgrpc++_reflection.so.1:_ZN6google8protobuf11MessageLite22ParsePartialFromStringERKNSt7__cxx1112basic_stringIcSt11char_traitsIcESaIcEEE
libgrpc++_reflection.so.1:_ZN6google8protobuf11MessageLite23ParseFromZeroCopyStreamEPNS0_2io19ZeroCopyInputStreamE
libgrpc++_reflection.so.1:_ZN6google8protobuf11MessageLite27ParsePartialFromCodedStreamEPNS0_2io16CodedInputStreamE
libgrpc++_reflection.so.1:_ZN6google8protobuf11MessageLite30MergeFromBoundedZeroCopyStreamEPNS0_2io19ZeroCopyInputStreamEi
libgrpc++_reflection.so.1:_ZN6google8protobuf11MessageLite30ParseFromBoundedZeroCopyStreamEPNS0_2io19ZeroCopyInputStreamEi
libgrpc++_reflection.so.1:_ZN6google8protobuf11MessageLite30ParsePartialFromZeroCopyStreamEPNS0_2io19ZeroCopyInputStreamE
libgrpc++_reflection.so.1:_ZN6google8protobuf11MessageLite37MergePartialFromBoundedZeroCopyStreamEPNS0_2io19ZeroCopyInputStreamEi
libgrpc++_reflection.so.1:_ZN6google8protobuf11MessageLite37ParsePartialFromBoundedZeroCopyStreamEPNS0_2io19ZeroCopyInputStreamEi
libgrpc++_reflection.so.1:_ZN6google8protobuf11StringPiece14ConsumeFromEndES1_
libgrpc++_reflection.so.1:_ZN6google8protobuf11StringPiece18LogFatalSizeTooBigEmPKc
libgrpc++_reflection.so.1:_ZN6google8protobuf11StringPiece7ConsumeES1_
libgrpc++_reflection.so.1:_ZN6google8protobuf11StringPieceC1ES1_l
libgrpc++_reflection.so.1:_ZN6google8protobuf11StringPieceC1ES1_ll
libgrpc++_reflection.so.1:_ZN6google8protobuf11StringPieceC2ES1_l
libgrpc++_reflection.so.1:_ZN6google8protobuf11StringPieceC2ES1_ll
libgrpc++_reflection.so.1:_ZN6google8protobuf11StripStringEPNSt7__cxx1112basic_stringIcSt11char_traitsIcESaIcEEEPKcc
libgrpc++_reflection.so.1:_ZN6google8protobuf11safe_strtobENS0_11StringPieceEPb
libgrpc++_reflection.so.1:_ZN6google8protobuf11safe_strtodEPKcPd
libgrpc++_reflection.so.1:_ZN6google8protobuf11safe_strtofEPKcPf
libgrpc++_reflection.so.1:_ZN6google8protobuf12Base64EscapeENS0_11StringPieceEPNSt7__cxx1112basic_stringIcSt11char_traitsIcESaIcEEE
libgrpc++_reflection.so.1:_ZN6google8protobuf12Base64EscapeEPKhiPNSt7__cxx1112basic_stringIcSt11char_traitsIcESaIcEEEb
libgrpc++_reflection.so.1:_ZN6google8protobuf12Base64EscapeEPKhiPci
libgrpc++_reflection.so.1:_ZN6google8protobuf12FieldOptions12InternalSwapEPS1_
libgrpc++_reflection.so.1:_ZN6google8protobuf12FieldOptions15UnsafeArenaSwapEPS1_
libgrpc++_reflection.so.1:_ZN6google8protobuf12FieldOptions16default_instanceEv
libgrpc++_reflection.so.1:_ZN6google8protobuf12FieldOptions21InitAsDefaultInstanceEv
libgrpc++_reflection.so.1:_ZN6google8protobuf12FieldOptions27MergePartialFromCodedStreamEPNS0_2io16CodedInputStreamE
libgrpc++_reflection.so.1:_ZN6google8protobuf12FieldOptions4SwapEPS1_
libgrpc++_reflection.so.1:_ZN6google8protobuf12FieldOptions5ClearEv
libgrpc++_reflection.so.1:_ZN6google8protobuf12FieldOptions8CopyFromERKNS0_7MessageE
libgrpc++_reflection.so.1:_ZN6google8protobuf12FieldOptions8CopyFromERKS1_
libgrpc++_reflection.so.1:_ZN6google8protobuf12FieldOptions9ArenaDtorEPv
libgrpc++_reflection.so.1:_ZN6google8protobuf12FieldOptions9MergeFromERKNS0_7MessageE
libgrpc++_reflection.so.1:_ZN6google8protobuf12FieldOptions9MergeFromERKS1_
libgrpc++_reflection.so.1:_ZN6google8protobuf12FieldOptionsC1EPNS0_5ArenaE
libgrpc++_reflection.so.1:_ZN6google8protobuf12FieldOptionsC1ERKS1_
libgrpc++_reflection.so.1:_ZN6google8protobuf12FieldOptionsC1Ev
libgrpc++_reflection.so.1:_ZN6google8protobuf12FieldOptionsC2EPNS0_5ArenaE
libgrpc++_reflection.so.1:_ZN6google8protobuf12FieldOptionsC2ERKS1_
libgrpc++_reflection.so.1:_ZN6google8protobuf12FieldOptionsC2Ev
libgrpc++_reflection.so.1:_ZN6google8protobuf12FieldOptionsD0Ev
libgrpc++_reflection.so.1:_ZN6google8protobuf12FieldOptionsD1Ev
libgrpc++_reflection.so.1:_ZN6google8protobuf12FieldOptionsD2Ev
libgrpc++_reflection.so.1:_ZN6google8protobuf12OneofOptions12InternalSwapEPS1_
libgrpc++_reflection.so.1:_ZN6google8protobuf12OneofOptions15UnsafeArenaSwapEPS1_
libgrpc++_reflection.so.1:_ZN6google8protobuf12OneofOptions16default_instanceEv
libgrpc++_reflection.so.1:_ZN6google8protobuf12OneofOptions21InitAsDefaultInstanceEv
libgrpc++_reflection.so.1:_ZN6google8protobuf12OneofOptions27MergePartialFromCodedStreamEPNS0_2io16CodedInputStreamE
libgrpc++_reflection.so.1:_ZN6google8protobuf12OneofOptions4SwapEPS1_
libgrpc++_reflection.so.1:_ZN6google8protobuf12OneofOptions5ClearEv
libgrpc++_reflection.so.1:_ZN6google8protobuf12OneofOptions8CopyFromERKNS0_7MessageE
libgrpc++_reflection.so.1:_ZN6google8protobuf12OneofOptions8CopyFromERKS1_
libgrpc++_reflection.so.1:_ZN6google8protobuf12OneofOptions9ArenaDtorEPv
libgrpc++_reflection.so.1:_ZN6google8protobuf12OneofOptions9MergeFromERKNS0_7MessageE
libgrpc++_reflection.so.1:_ZN6google8protobuf12OneofOptions9MergeFromERKS1_
libgrpc++_reflection.so.1:_ZN6google8protobuf12OneofOptionsC1EPNS0_5ArenaE
libgrpc++_reflection.so.1:_ZN6google8protobuf12OneofOptionsC1ERKS1_
libgrpc++_reflection.so.1:_ZN6google8protobuf12OneofOptionsC1Ev
libgrpc++_reflection.so.1:_ZN6google8protobuf12OneofOptionsC2EPNS0_5ArenaE
libgrpc++_reflection.so.1:_ZN6google8protobuf12OneofOptionsC2ERKS1_
libgrpc++_reflection.so.1:_ZN6google8protobuf12OneofOptionsC2Ev
libgrpc++_reflection.so.1:_ZN6google8protobuf12OneofOptionsD0Ev
libgrpc++_reflection.so.1:_ZN6google8protobuf12OneofOptionsD1Ev
libgrpc++_reflection.so.1:_ZN6google8protobuf12OneofOptionsD2Ev
libgrpc++_reflection.so.1:_ZN6google8protobuf12StringPrintfB5cxx11EPKcz
libgrpc++_reflection.so.1:_ZN6google8protobuf12UnknownField6DeleteEv
libgrpc++_reflection.so.1:_ZN6google8protobuf12UnknownField8DeepCopyERKS1_
libgrpc++_reflection.so.1:_ZN6google8protobuf12safe_strto32ERKNSt7__cxx1112basic_stringIcSt11char_traitsIcESaIcEEEPi
libgrpc++_reflection.so.1:_ZN6google8protobuf12safe_strto64ERKNSt7__cxx1112basic_stringIcSt11char_traitsIcESaIcEEEPl
libgrpc++_reflection.so.1:_ZN6google8protobuf13FloatToBufferEfPc
libgrpc++_reflection.so.1:_ZN6google8protobuf13MethodOptions12InternalSwapEPS1_
libgrpc++_reflection.so.1:_ZN6google8protobuf13MethodOptions15UnsafeArenaSwapEPS1_
libgrpc++_reflection.so.1:_ZN6google8protobuf13MethodOptions16default_instanceEv
libgrpc++_reflection.so.1:_ZN6google8protobuf13MethodOptions21InitAsDefaultInstanceEv
libgrpc++_reflection.so.1:_ZN6google8protobuf13MethodOptions27MergePartialFromCodedStreamEPNS0_2io16CodedInputStreamE
libgrpc++_reflection.so.1:_ZN6google8protobuf13MethodOptions4SwapEPS1_
libgrpc++_reflection.so.1:_ZN6google8protobuf13MethodOptions5ClearEv
libgrpc++_reflection.so.1:_ZN6google8protobuf13MethodOptions8CopyFromERKNS0_7MessageE
libgrpc++_reflection.so.1:_ZN6google8protobuf13MethodOptions8CopyFromERKS1_
libgrpc++_reflection.so.1:_ZN6google8protobuf13MethodOptions9ArenaDtorEPv
libgrpc++_reflection.so.1:_ZN6google8protobuf13MethodOptions9MergeFromERKNS0_7MessageE
libgrpc++_reflection.so.1:_ZN6google8protobuf13MethodOptions9MergeFromERKS1_
libgrpc++_reflection.so.1:_ZN6google8protobuf13MethodOptionsC1EPNS0_5ArenaE
libgrpc++_reflection.so.1:_ZN6google8protobuf13MethodOptionsC1ERKS1_
libgrpc++_reflection.so.1:_ZN6google8protobuf13MethodOptionsC1Ev
libgrpc++_reflection.so.1:_ZN6google8protobuf13MethodOptionsC2EPNS0_5ArenaE
libgrpc++_reflection.so.1:_ZN6google8protobuf13MethodOptionsC2ERKS1_
libgrpc++_reflection.so.1:_ZN6google8protobuf13MethodOptionsC2Ev
libgrpc++_reflection.so.1:_ZN6google8protobuf13MethodOptionsD0Ev
libgrpc++_reflection.so.1:_ZN6google8protobuf13MethodOptionsD1Ev
libgrpc++_reflection.so.1:_ZN6google8protobuf13MethodOptionsD2Ev
libgrpc++_reflection.so.1:_ZN6google8protobuf13SStringPrintfEPNSt7__cxx1112basic_stringIcSt11char_traitsIcESaIcEEEPKcz
libgrpc++_reflection.so.1:_ZN6google8protobuf13SetLogHandlerEPFvNS0_8LogLevelEPKciRKNSt7__cxx1112basic_stringIcSt11char_traitsIcESaIcEEEE
libgrpc++_reflection.so.1:_ZN6google8protobuf13StringAppendFEPNSt7__cxx1112basic_stringIcSt11char_traitsIcESaIcEEEPKcz
libgrpc++_reflection.so.1:_ZN6google8protobuf13StringAppendVEPNSt7__cxx1112basic_stringIcSt11char_traitsIcESaIcEEEPKcP13__va_list_tag
libgrpc++_reflection.so.1:_ZN6google8protobuf13StringReplaceERKNSt7__cxx1112basic_stringIcSt11char_traitsIcESaIcEEES8_S8_b
libgrpc++_reflection.so.1:_ZN6google8protobuf13StringReplaceERKNSt7__cxx1112basic_stringIcSt11char_traitsIcESaIcEEES8_S8_bPS6_
libgrpc++_reflection.so.1:_ZN6google8protobuf13safe_strtou32ERKNSt7__cxx1112basic_stringIcSt11char_traitsIcESaIcEEEPj
libgrpc++_reflection.so.1:_ZN6google8protobuf13safe_strtou64ERKNSt7__cxx1112basic_stringIcSt11char_traitsIcESaIcEEEPm
libgrpc++_reflection.so.1:_ZN6google8protobuf14Base64UnescapeENS0_11StringPieceEPNSt7__cxx1112basic_stringIcSt11char_traitsIcESaIcEEE
libgrpc++_reflection.so.1:_ZN6google8protobuf14DescriptorPool14ErrorCollectorD0Ev
libgrpc++_reflection.so.1:_ZN6google8protobuf14DescriptorPool14ErrorCollectorD1Ev
libgrpc++_reflection.so.1:_ZN6google8protobuf14DescriptorPool14ErrorCollectorD2Ev
libgrpc++_reflection.so.1:_ZN6google8protobuf14DescriptorPool14generated_poolEv
libgrpc++_reflection.so.1:_ZN6google8protobuf14DescriptorPool23internal_generated_poolEv
libgrpc++_reflection.so.1:_ZN6google8protobuf14DescriptorPool24AddUnusedImportTrackFileERKNSt7__cxx1112basic_stringIcSt11char_traitsIcESaIcEEE
libgrpc++_reflection.so.1:_ZN6google8protobuf14DescriptorPool24InternalAddGeneratedFileEPKvi
libgrpc++_reflection.so.1:_ZN6google8protobuf14DescriptorPool25BuildFileCollectingErrorsERKNS0_19FileDescriptorProtoEPNS1_14ErrorCollectorE
libgrpc++_reflection.so.1:_ZN6google8protobuf14DescriptorPool27ClearUnusedImportTrackFilesEv
libgrpc++_reflection.so.1:_ZN6google8protobuf14DescriptorPool31InternalDontEnforceDependenciesEv
libgrpc++_reflection.so.1:_ZN6google8protobuf14DescriptorPool6Tables12AddExtensionEPKNS0_15FieldDescriptorE
libgrpc++_reflection.so.1:_ZN6google8protobuf14DescriptorPool6Tables13AddCheckpointEv
libgrpc++_reflection.so.1:_ZN6google8protobuf14DescriptorPool6Tables13AllocateBytesEi
libgrpc++_reflection.so.1:_ZN6google8protobuf14DescriptorPool6Tables14AllocateStringERKNSt7__cxx1112basic_stringIcSt11char_traitsIcESaIcEEE
libgrpc++_reflection.so.1:_ZN6google8protobuf14DescriptorPool6Tables16FindByNameHelperEPKS1_RKNSt7__cxx1112basic_stringIcSt11char_traitsIcESaIcEEE
libgrpc++_reflection.so.1:_ZN6google8protobuf14DescriptorPool6Tables18AllocateFileTablesEv
libgrpc++_reflection.so.1:_ZN6google8protobuf14DescriptorPool6Tables19AllocateOnceDynamicEv
libgrpc++_reflection.so.1:_ZN6google8protobuf14DescriptorPool6Tables19ClearLastCheckpointEv
libgrpc++_reflection.so.1:_ZN6google8protobuf14DescriptorPool6Tables24RollbackToLastCheckpointEv
libgrpc++_reflection.so.1:_ZN6google8protobuf14DescriptorPool6Tables7AddFileEPKNS0_14FileDescriptorE
libgrpc++_reflection.so.1:_ZN6google8protobuf14DescriptorPool6Tables9AddSymbolERKNSt7__cxx1112basic_stringIcSt11char_traitsIcESaIcEEENS0_6SymbolE
libgrpc++_reflection.so.1:_ZN6google8protobuf14DescriptorPool6TablesC1Ev
libgrpc++_reflection.so.1:_ZN6google8protobuf14DescriptorPool6TablesC2Ev
libgrpc++_reflection.so.1:_ZN6google8protobuf14DescriptorPool6TablesD1Ev
libgrpc++_reflection.so.1:_ZN6google8protobuf14DescriptorPool6TablesD2Ev
libgrpc++_reflection.so.1:_ZN6google8protobuf14DescriptorPool9BuildFileERKNS0_19FileDescriptorProtoE
libgrpc++_reflection.so.1:_ZN6google8protobuf14DescriptorPoolC1EPKS1_
libgrpc++_reflection.so.1:_ZN6google8protobuf14DescriptorPoolC1EPNS0_18DescriptorDatabaseEPNS1_14ErrorCollectorE
libgrpc++_reflection.so.1:_ZN6google8protobuf14DescriptorPoolC1Ev
libgrpc++_reflection.so.1:_ZN6google8protobuf14DescriptorPoolC2EPKS1_
libgrpc++_reflection.so.1:_ZN6google8protobuf14DescriptorPoolC2EPNS0_18DescriptorDatabaseEPNS1_14ErrorCollectorE
libgrpc++_reflection.so.1:_ZN6google8protobuf14DescriptorPoolC2Ev
libgrpc++_reflection.so.1:_ZN6google8protobuf14DescriptorPoolD1Ev
libgrpc++_reflection.so.1:_ZN6google8protobuf14DescriptorPoolD2Ev
libgrpc++_reflection.so.1:_ZN6google8protobuf14DoubleToBufferEdPc
libgrpc++_reflection.so.1:_ZN6google8protobuf14DynamicMessage10SharedCtorEb
libgrpc++_reflection.so.1:_ZN6google8protobuf14DynamicMessage19CrossLinkPrototypesEv
libgrpc++_reflection.so.1:_ZN6google8protobuf14DynamicMessageC1EPKNS1_8TypeInfoE
libgrpc++_reflection.so.1:_ZN6google8protobuf14DynamicMessageC1EPKNS1_8TypeInfoEPNS0_5ArenaE
libgrpc++_reflection.so.1:_ZN6google8protobuf14DynamicMessageC1EPNS1_8TypeInfoEb
libgrpc++_reflection.so.1:_ZN6google8protobuf14DynamicMessageC2EPKNS1_8TypeInfoE
libgrpc++_reflection.so.1:_ZN6google8protobuf14DynamicMessageC2EPKNS1_8TypeInfoEPNS0_5ArenaE
libgrpc++_reflection.so.1:_ZN6google8protobuf14DynamicMessageC2EPNS1_8TypeInfoEb
libgrpc++_reflection.so.1:_ZN6google8protobuf14DynamicMessageD0Ev
libgrpc++_reflection.so.1:_ZN6google8protobuf14DynamicMessageD1Ev
libgrpc++_reflection.so.1:_ZN6google8protobuf14DynamicMessageD2Ev
libgrpc++_reflection.so.1:_ZN6google8protobuf14FatalExceptionD0Ev
libgrpc++_reflection.so.1:_ZN6google8protobuf14FatalExceptionD1Ev
libgrpc++_reflection.so.1:_ZN6google8protobuf14FatalExceptionD2Ev
libgrpc++_reflection.so.1:_ZN6google8protobuf14FileDescriptor10SyntaxNameENS1_6SyntaxE
libgrpc++_reflection.so.1:_ZN6google8protobuf14FileDescriptor20DependenciesOnceInitEPKS1_
libgrpc++_reflection.so.1:_ZN6google8protobuf14MessageFactory17generated_factoryEv
libgrpc++_reflection.so.1:_ZN6google8protobuf14MessageFactory29InternalRegisterGeneratedFileEPKNS0_8internal15DescriptorTableE
libgrpc++_reflection.so.1:_ZN6google8protobuf14MessageFactory32InternalRegisterGeneratedMessageEPKNS0_10DescriptorEPKNS0_7MessageE
libgrpc++_reflection.so.1:_ZN6google8protobuf14MessageFactoryD0Ev
libgrpc++_reflection.so.1:_ZN6google8protobuf14MessageFactoryD1Ev
libgrpc++_reflection.so.1:_ZN6google8protobuf14MessageFactoryD2Ev
libgrpc++_reflection.so.1:_ZN6google8protobuf14MessageOptions12InternalSwapEPS1_
libgrpc++_reflection.so.1:_ZN6google8protobuf14MessageOptions15UnsafeArenaSwapEPS1_
libgrpc++_reflection.so.1:_ZN6google8protobuf14MessageOptions16default_instanceEv
libgrpc++_reflection.so.1:_ZN6google8protobuf14MessageOptions21InitAsDefaultInstanceEv
libgrpc++_reflection.so.1:_ZN6google8protobuf14MessageOptions27MergePartialFromCodedStreamEPNS0_2io16CodedInputStreamE
libgrpc++_reflection.so.1:_ZN6google8protobuf14MessageOptions4SwapEPS1_
libgrpc++_reflection.so.1:_ZN6google8protobuf14MessageOptions5ClearEv
libgrpc++_reflection.so.1:_ZN6google8protobuf14MessageOptions8CopyFromERKNS0_7MessageE
libgrpc++_reflection.so.1:_ZN6google8protobuf14MessageOptions8CopyFromERKS1_
libgrpc++_reflection.so.1:_ZN6google8protobuf14MessageOptions9ArenaDtorEPv
libgrpc++_reflection.so.1:_ZN6google8protobuf14MessageOptions9MergeFromERKNS0_7MessageE
libgrpc++_reflection.so.1:_ZN6google8protobuf14MessageOptions9MergeFromERKS1_
libgrpc++_reflection.so.1:_ZN6google8protobuf14MessageOptionsC1EPNS0_5ArenaE
libgrpc++_reflection.so.1:_ZN6google8protobuf14MessageOptionsC1ERKS1_
libgrpc++_reflection.so.1:_ZN6google8protobuf14MessageOptionsC1Ev
libgrpc++_reflection.so.1:_ZN6google8protobuf14MessageOptionsC2EPNS0_5ArenaE
libgrpc++_reflection.so.1:_ZN6google8protobuf14MessageOptionsC2ERKS1_
libgrpc++_reflection.so.1:_ZN6google8protobuf14MessageOptionsC2Ev
libgrpc++_reflection.so.1:_ZN6google8protobuf14MessageOptionsD0Ev
libgrpc++_reflection.so.1:_ZN6google8protobuf14MessageOptionsD1Ev
libgrpc++_reflection.so.1:_ZN6google8protobuf14MessageOptionsD2Ev
libgrpc++_reflection.so.1:_ZN6google8protobuf14ServiceOptions12InternalSwapEPS1_
libgrpc++_reflection.so.1:_ZN6google8protobuf14ServiceOptions15UnsafeArenaSwapEPS1_
libgrpc++_reflection.so.1:_ZN6google8protobuf14ServiceOptions16default_instanceEv
libgrpc++_reflection.so.1:_ZN6google8protobuf14ServiceOptions21InitAsDefaultInstanceEv
libgrpc++_reflection.so.1:_ZN6google8protobuf14ServiceOptions27MergePartialFromCodedStreamEPNS0_2io16CodedInputStreamE
libgrpc++_reflection.so.1:_ZN6google8protobuf14ServiceOptions4SwapEPS1_
libgrpc++_reflection.so.1:_ZN6google8protobuf14ServiceOptions5ClearEv
libgrpc++_reflection.so.1:_ZN6google8protobuf14ServiceOptions8CopyFromERKNS0_7MessageE
libgrpc++_reflection.so.1:_ZN6google8protobuf14ServiceOptions8CopyFromERKS1_
libgrpc++_reflection.so.1:_ZN6google8protobuf14ServiceOptions9ArenaDtorEPv
libgrpc++_reflection.so.1:_ZN6google8protobuf14ServiceOptions9MergeFromERKNS0_7MessageE
libgrpc++_reflection.so.1:_ZN6google8protobuf14ServiceOptions9MergeFromERKS1_
libgrpc++_reflection.so.1:_ZN6google8protobuf14ServiceOptionsC1EPNS0_5ArenaE
libgrpc++_reflection.so.1:_ZN6google8protobuf14ServiceOptionsC1ERKS1_
libgrpc++_reflection.so.1:_ZN6google8protobuf14ServiceOptionsC1Ev
libgrpc++_reflection.so.1:_ZN6google8protobuf14ServiceOptionsC2EPNS0_5ArenaE
libgrpc++_reflection.so.1:_ZN6google8protobuf14ServiceOptionsC2ERKS1_
libgrpc++_reflection.so.1:_ZN6google8protobuf14ServiceOptionsC2Ev
libgrpc++_reflection.so.1:_ZN6google8protobuf14ServiceOptionsD0Ev
libgrpc++_reflection.so.1:_ZN6google8protobuf14ServiceOptionsD1Ev
libgrpc++_reflection.so.1:_ZN6google8protobuf14ServiceOptionsD2Ev
libgrpc++_reflection.so.1:_ZN6google8protobuf14SourceCodeInfo12InternalSwapEPS1_
libgrpc++_reflection.so.1:_ZN6google8protobuf14SourceCodeInfo15UnsafeArenaSwapEPS1_
libgrpc++_reflection.so.1:_ZN6google8protobuf14SourceCodeInfo16default_instanceEv
libgrpc++_reflection.so.1:_ZN6google8protobuf14SourceCodeInfo21InitAsDefaultInstanceEv
libgrpc++_reflection.so.1:_ZN6google8protobuf14SourceCodeInfo27MergePartialFromCodedStreamEPNS0_2io16CodedInputStreamE
libgrpc++_reflection.so.1:_ZN6google8protobuf14SourceCodeInfo4SwapEPS1_
libgrpc++_reflection.so.1:_ZN6google8protobuf14SourceCodeInfo5ClearEv
libgrpc++_reflection.so.1:_ZN6google8protobuf14SourceCodeInfo8CopyFromERKNS0_7MessageE
libgrpc++_reflection.so.1:_ZN6google8protobuf14SourceCodeInfo8CopyFromERKS1_
libgrpc++_reflection.so.1:_ZN6google8protobuf14SourceCodeInfo9ArenaDtorEPv
libgrpc++_reflection.so.1:_ZN6google8protobuf14SourceCodeInfo9MergeFromERKNS0_7MessageE
libgrpc++_reflection.so.1:_ZN6google8protobuf14SourceCodeInfo9MergeFromERKS1_
libgrpc++_reflection.so.1:_ZN6google8protobuf14SourceCodeInfoC1EPNS0_5ArenaE
libgrpc++_reflection.so.1:_ZN6google8protobuf14SourceCodeInfoC1ERKS1_
libgrpc++_reflection.so.1:_ZN6google8protobuf14SourceCodeInfoC1Ev
libgrpc++_reflection.so.1:_ZN6google8protobuf14SourceCodeInfoC2EPNS0_5ArenaE
libgrpc++_reflection.so.1:_ZN6google8protobuf14SourceCodeInfoC2ERKS1_
libgrpc++_reflection.so.1:_ZN6google8protobuf14SourceCodeInfoC2Ev
libgrpc++_reflection.so.1:_ZN6google8protobuf14SourceCodeInfoD0Ev
libgrpc++_reflection.so.1:_ZN6google8protobuf14SourceCodeInfoD1Ev
libgrpc++_reflection.so.1:_ZN6google8protobuf14SourceCodeInfoD2Ev
libgrpc++_reflection.so.1:_ZN6google8protobuf15CEscapeInternalEPKciPcibb
libgrpc++_reflection.so.1:_ZN6google8protobuf15CheckFieldIndexEPKNS0_15FieldDescriptorEi
libgrpc++_reflection.so.1:_ZN6google8protobuf15DelocalizeRadixEPc
libgrpc++_reflection.so.1:_ZN6google8protobuf15DescriptorProto12InternalSwapEPS1_
libgrpc++_reflection.so.1:_ZN6google8protobuf15DescriptorProto13HasBitSetters7optionsEPKS1_
libgrpc++_reflection.so.1:_ZN6google8protobuf15DescriptorProto15UnsafeArenaSwapEPS1_
libgrpc++_reflection.so.1:_ZN6google8protobuf15DescriptorProto16default_instanceEv
libgrpc++_reflection.so.1:_ZN6google8protobuf15DescriptorProto21InitAsDefaultInstanceEv
libgrpc++_reflection.so.1:_ZN6google8protobuf15DescriptorProto27MergePartialFromCodedStreamEPNS0_2io16CodedInputStreamE
libgrpc++_reflection.so.1:_ZN6google8protobuf15DescriptorProto34unsafe_arena_set_allocated_optionsEPNS0_14MessageOptionsE
libgrpc++_reflection.so.1:_ZN6google8protobuf15DescriptorProto4SwapEPS1_
libgrpc++_reflection.so.1:_ZN6google8protobuf15DescriptorProto5ClearEv
libgrpc++_reflection.so.1:_ZN6google8protobuf15DescriptorProto8CopyFromERKNS0_7MessageE
libgrpc++_reflection.so.1:_ZN6google8protobuf15DescriptorProto8CopyFromERKS1_
libgrpc++_reflection.so.1:_ZN6google8protobuf15DescriptorProto9ArenaDtorEPv
libgrpc++_reflection.so.1:_ZN6google8protobuf15DescriptorProto9MergeFromERKNS0_7MessageE
libgrpc++_reflection.so.1:_ZN6google8protobuf15DescriptorProto9MergeFromERKS1_
libgrpc++_reflection.so.1:_ZN6google8protobuf15DescriptorProtoC1EPNS0_5ArenaE
libgrpc++_reflection.so.1:_ZN6google8protobuf15DescriptorProtoC1ERKS1_
libgrpc++_reflection.so.1:_ZN6google8protobuf15DescriptorProtoC1Ev
libgrpc++_reflection.so.1:_ZN6google8protobuf15DescriptorProtoC2EPNS0_5ArenaE
libgrpc++_reflection.so.1:_ZN6google8protobuf15DescriptorProtoC2ERKS1_
libgrpc++_reflection.so.1:_ZN6google8protobuf15DescriptorProtoC2Ev
libgrpc++_reflection.so.1:_ZN6google8protobuf15DescriptorProtoD0Ev
libgrpc++_reflection.so.1:_ZN6google8protobuf15DescriptorProtoD1Ev
libgrpc++_reflection.so.1:_ZN6google8protobuf15DescriptorProtoD2Ev
libgrpc++_reflection.so.1:_ZN6google8protobuf15FastHexToBufferEiPc
libgrpc++_reflection.so.1:_ZN6google8protobuf15FieldDescriptor12TypeOnceInitEPKS1_
libgrpc++_reflection.so.1:_ZN6google8protobuf15StripWhitespaceEPNSt7__cxx1112basic_stringIcSt11char_traitsIcESaIcEEE
libgrpc++_reflection.so.1:_ZN6google8protobuf15UnknownFieldSet10AddFixed32Eij
libgrpc++_reflection.so.1:_ZN6google8protobuf15UnknownFieldSet10AddFixed64Eim
libgrpc++_reflection.so.1:_ZN6google8protobuf15UnknownFieldSet13ClearFallbackEv
libgrpc++_reflection.so.1:_ZN6google8protobuf15UnknownFieldSet14DeleteByNumberEi
libgrpc++_reflection.so.1:_ZN6google8protobuf15UnknownFieldSet14DeleteSubrangeEii
libgrpc++_reflection.so.1:_ZN6google8protobuf15UnknownFieldSet14ParseFromArrayEPKvi
libgrpc++_reflection.so.1:_ZN6google8protobuf15UnknownFieldSet16default_instanceEv
libgrpc++_reflection.so.1:_ZN6google8protobuf15UnknownFieldSet17InternalMergeFromERKS1_
libgrpc++_reflection.so.1:_ZN6google8protobuf15UnknownFieldSet18AddLengthDelimitedB5cxx11Ei
libgrpc++_reflection.so.1:_ZN6google8protobuf15UnknownFieldSet19MergeFromAndDestroyEPS1_
libgrpc++_reflection.so.1:_ZN6google8protobuf15UnknownFieldSet20MergeFromCodedStreamEPNS0_2io16CodedInputStreamE
libgrpc++_reflection.so.1:_ZN6google8protobuf15UnknownFieldSet20ParseFromCodedStreamEPNS0_2io16CodedInputStreamE
libgrpc++_reflection.so.1:_ZN6google8protobuf15UnknownFieldSet22MergeToInternalMetdataERKS1_PNS0_8internal25InternalMetadataWithArenaE
libgrpc++_reflection.so.1:_ZN6google8protobuf15UnknownFieldSet23ParseFromZeroCopyStreamEPNS0_2io19ZeroCopyInputStreamE
libgrpc++_reflection.so.1:_ZN6google8protobuf15UnknownFieldSet8AddFieldERKNS0_12UnknownFieldE
libgrpc++_reflection.so.1:_ZN6google8protobuf15UnknownFieldSet8AddGroupEi
libgrpc++_reflection.so.1:_ZN6google8protobuf15UnknownFieldSet9AddVarintEim
libgrpc++_reflection.so.1:_ZN6google8protobuf15UnknownFieldSet9MergeFromERKS1_
libgrpc++_reflection.so.1:_ZN6google8protobuf15strto32_adaptorEPKcPPci
libgrpc++_reflection.so.1:_ZN6google8protobuf16CEscapeAndAppendENS0_11StringPieceEPNSt7__cxx1112basic_stringIcSt11char_traitsIcESaIcEEE
libgrpc++_reflection.so.1:_ZN6google8protobuf16EncodeAsUTF8CharEjPc
libgrpc++_reflection.so.1:_ZN6google8protobuf16EnumValueOptions12InternalSwapEPS1_
libgrpc++_reflection.so.1:_ZN6google8protobuf16EnumValueOptions15UnsafeArenaSwapEPS1_
libgrpc++_reflection.so.1:_ZN6google8protobuf16EnumValueOptions16default_instanceEv
libgrpc++_reflection.so.1:_ZN6google8protobuf16EnumValueOptions21InitAsDefaultInstanceEv
libgrpc++_reflection.so.1:_ZN6google8protobuf16EnumValueOptions27MergePartialFromCodedStreamEPNS0_2io16CodedInputStreamE
libgrpc++_reflection.so.1:_ZN6google8protobuf16EnumValueOptions4SwapEPS1_
libgrpc++_reflection.so.1:_ZN6google8protobuf16EnumValueOptions5ClearEv
libgrpc++_reflection.so.1:_ZN6google8protobuf16EnumValueOptions8CopyFromERKNS0_7MessageE
libgrpc++_reflection.so.1:_ZN6google8protobuf16EnumValueOptions8CopyFromERKS1_
libgrpc++_reflection.so.1:_ZN6google8protobuf16EnumValueOptions9ArenaDtorEPv
libgrpc++_reflection.so.1:_ZN6google8protobuf16EnumValueOptions9MergeFromERKNS0_7MessageE
libgrpc++_reflection.so.1:_ZN6google8protobuf16EnumValueOptions9MergeFromERKS1_
libgrpc++_reflection.so.1:_ZN6google8protobuf16EnumValueOptionsC1EPNS0_5ArenaE
libgrpc++_reflection.so.1:_ZN6google8protobuf16EnumValueOptionsC1ERKS1_
libgrpc++_reflection.so.1:_ZN6google8protobuf16EnumValueOptionsC1Ev
libgrpc++_reflection.so.1:_ZN6google8protobuf16EnumValueOptionsC2EPNS0_5ArenaE
libgrpc++_reflection.so.1:_ZN6google8protobuf16EnumValueOptionsC2ERKS1_
libgrpc++_reflection.so.1:_ZN6google8protobuf16EnumValueOptionsC2Ev
libgrpc++_reflection.so.1:_ZN6google8protobuf16EnumValueOptionsD0Ev
libgrpc++_reflection.so.1:_ZN6google8protobuf16EnumValueOptionsD1Ev
libgrpc++_reflection.so.1:_ZN6google8protobuf16EnumValueOptionsD2Ev
libgrpc++_reflection.so.1:_ZN6google8protobuf16SplitStringUsingERKNSt7__cxx1112basic_stringIcSt11char_traitsIcESaIcEEEPKcPSt6vectorIS6_SaIS6_EE
libgrpc++_reflection.so.1:_ZN6google8protobuf16strtou32_adaptorEPKcPPci
libgrpc++_reflection.so.1:_ZN6google8protobuf17DescriptorBuilder10AddPackageERKNSt7__cxx1112basic_stringIcSt11char_traitsIcESaIcEEERKNS0_7MessageEPKNS0_14FileDescriptorE
libgrpc++_reflection.so.1:_ZN6google8protobuf17DescriptorBuilder10AddWarningERKNSt7__cxx1112basic_stringIcSt11char_traitsIcESaIcEEERKNS0_7MessageENS0_14DescriptorPool14ErrorCollector13ErrorLocationES9_
libgrpc++_reflection.so.1:_ZN6google8protobuf17DescriptorBuilder10BuildOneofERKNS0_20OneofDescriptorProtoEPNS0_10DescriptorEPNS0_15OneofDescriptorE
libgrpc++_reflection.so.1:_ZN6google8protobuf17DescriptorBuilder10FindSymbolERKNSt7__cxx1112basic_stringIcSt11char_traitsIcESaIcEEEb
libgrpc++_reflection.so.1:_ZN6google8protobuf17DescriptorBuilder11BuildMethodERKNS0_21MethodDescriptorProtoEPKNS0_17ServiceDescriptorEPNS0_16MethodDescriptorE
libgrpc++_reflection.so.1:_ZN6google8protobuf17DescriptorBuilder11IsInPackageEPKNS0_14FileDescriptorERKNSt7__cxx1112basic_stringIcSt11char_traitsIcESaIcEEE
libgrpc++_reflection.so.1:_ZN6google8protobuf17DescriptorBuilder12BuildMessageERKNS0_15DescriptorProtoEPKNS0_10DescriptorEPS5_
libgrpc++_reflection.so.1:_ZN6google8protobuf17DescriptorBuilder12BuildServiceERKNS0_22ServiceDescriptorProtoEPKvPNS0_17ServiceDescriptorE
libgrpc++_reflection.so.1:_ZN6google8protobuf17DescriptorBuilder12LookupSymbolERKNSt7__cxx1112basic_stringIcSt11char_traitsIcESaIcEEES9_NS0_14DescriptorPool15PlaceholderTypeENS1_11ResolveModeEb
libgrpc++_reflection.so.1:_ZN6google8protobuf17DescriptorBuilder13BuildFileImplERKNS0_19FileDescriptorProtoE
libgrpc++_reflection.so.1:_ZN6google8protobuf17DescriptorBuilder13CrossLinkEnumEPNS0_14EnumDescriptorERKNS0_19EnumDescriptorProtoE
libgrpc++_reflection.so.1:_ZN6google8protobuf17DescriptorBuilder13CrossLinkFileEPNS0_14FileDescriptorERKNS0_19FileDescriptorProtoE
libgrpc++_reflection.so.1:_ZN6google8protobuf17DescriptorBuilder14AddImportErrorERKNS0_19FileDescriptorProtoEi
libgrpc++_reflection.so.1:_ZN6google8protobuf17DescriptorBuilder14BuildEnumValueERKNS0_24EnumValueDescriptorProtoEPKNS0_14EnumDescriptorEPNS0_19EnumValueDescriptorE
libgrpc++_reflection.so.1:_ZN6google8protobuf17DescriptorBuilder14CrossLinkFieldEPNS0_15FieldDescriptorERKNS0_20FieldDescriptorProtoE
libgrpc++_reflection.so.1:_ZN6google8protobuf17DescriptorBuilder14ValidateJSTypeEPNS0_15FieldDescriptorERKNS0_20FieldDescriptorProtoE
libgrpc++_reflection.so.1:_ZN6google8protobuf17DescriptorBuilder14ValidateProto3EPNS0_14FileDescriptorERKNS0_19FileDescriptorProtoE
libgrpc++_reflection.so.1:_ZN6google8protobuf17DescriptorBuilder15AllocateOptionsERKNS0_11FileOptionsEPNS0_14FileDescriptorE
libgrpc++_reflection.so.1:_ZN6google8protobuf17DescriptorBuilder15CrossLinkMethodEPNS0_16MethodDescriptorERKNS0_21MethodDescriptorProtoE
libgrpc++_reflection.so.1:_ZN6google8protobuf17DescriptorBuilder16CrossLinkMessageEPNS0_10DescriptorERKNS0_15DescriptorProtoE
libgrpc++_reflection.so.1:_ZN6google8protobuf17DescriptorBuilder16CrossLinkServiceEPNS0_17ServiceDescriptorERKNS0_22ServiceDescriptorProtoE
libgrpc++_reflection.so.1:_ZN6google8protobuf17DescriptorBuilder16ValidateMapEntryEPNS0_15FieldDescriptorERKNS0_20FieldDescriptorProtoE
libgrpc++_reflection.so.1:_ZN6google8protobuf17DescriptorBuilder17OptionInterpreter14SetOptionValueEPKNS0_15FieldDescriptorEPNS0_15UnknownFieldSetE
libgrpc++_reflection.so.1:_ZN6google8protobuf17DescriptorBuilder17OptionInterpreter18SetAggregateOptionEPKNS0_15FieldDescriptorEPNS0_15UnknownFieldSetE
libgrpc++_reflection.so.1:_ZN6google8protobuf17DescriptorBuilder17OptionInterpreter20ExamineIfOptionIsSetEN9__gnu_cxx17__normal_iteratorIPKPKNS0_15FieldDescriptorESt6vectorIS7_SaIS7_EEEESD_S7_RKNSt7__cxx1112basic_stringIcSt11char_traitsIcESaIcEEERKNS0_15UnknownFieldSetE
libgrpc++_reflection.so.1:_ZN6google8protobuf17DescriptorBuilder17OptionInterpreter20UpdateSourceCodeInfoEPNS0_14SourceCodeInfoE
libgrpc++_reflection.so.1:_ZN6google8protobuf17DescriptorBuilder17OptionInterpreter21InterpretSingleOptionEPNS0_7MessageERKSt6vectorIiSaIiEES9_
libgrpc++_reflection.so.1:_ZN6google8protobuf17DescriptorBuilder17OptionInterpreter22AddWithoutInterpretingERKNS0_19UninterpretedOptionEPNS0_7MessageE
libgrpc++_reflection.so.1:_ZN6google8protobuf17DescriptorBuilder17OptionInterpreter8SetInt32EiiNS0_15FieldDescriptor4TypeEPNS0_15UnknownFieldSetE
libgrpc++_reflection.so.1:_ZN6google8protobuf17DescriptorBuilder17OptionInterpreter8SetInt64EilNS0_15FieldDescriptor4TypeEPNS0_15UnknownFieldSetE
libgrpc++_reflection.so.1:_ZN6google8protobuf17DescriptorBuilder17OptionInterpreter9SetUInt32EijNS0_15FieldDescriptor4TypeEPNS0_15UnknownFieldSetE
libgrpc++_reflection.so.1:_ZN6google8protobuf17DescriptorBuilder17OptionInterpreter9SetUInt64EimNS0_15FieldDescriptor4TypeEPNS0_15UnknownFieldSetE
libgrpc++_reflection.so.1:_ZN6google8protobuf17DescriptorBuilder17OptionInterpreterC1EPS1_
libgrpc++_reflection.so.1:_ZN6google8protobuf17DescriptorBuilder17OptionInterpreterC2EPS1_
libgrpc++_reflection.so.1:_ZN6google8protobuf17DescriptorBuilder17OptionInterpreterD1Ev
libgrpc++_reflection.so.1:_ZN6google8protobuf17DescriptorBuilder17OptionInterpreterD2Ev
libgrpc++_reflection.so.1:_ZN6google8protobuf17DescriptorBuilder18AddNotDefinedErrorERKNSt7__cxx1112basic_stringIcSt11char_traitsIcESaIcEEERKNS0_7MessageENS0_14DescriptorPool14ErrorCollector13ErrorLocationES9_
libgrpc++_reflection.so.1:_ZN6google8protobuf17DescriptorBuilder18BuildReservedRangeERKNS0_29DescriptorProto_ReservedRangeEPKNS0_10DescriptorEPNS5_13ReservedRangeE
libgrpc++_reflection.so.1:_ZN6google8protobuf17DescriptorBuilder18BuildReservedRangeERKNS0_37EnumDescriptorProto_EnumReservedRangeEPKNS0_14EnumDescriptorEPNS5_13ReservedRangeE
libgrpc++_reflection.so.1:_ZN6google8protobuf17DescriptorBuilder18CrossLinkEnumValueEPNS0_19EnumValueDescriptorERKNS0_24EnumValueDescriptorProtoE
libgrpc++_reflection.so.1:_ZN6google8protobuf17DescriptorBuilder18DetectMapConflictsEPKNS0_10DescriptorERKNS0_15DescriptorProtoE
libgrpc++_reflection.so.1:_ZN6google8protobuf17DescriptorBuilder18ValidateProto3EnumEPNS0_14EnumDescriptorERKNS0_19EnumDescriptorProtoE
libgrpc++_reflection.so.1:_ZN6google8protobuf17DescriptorBuilder18ValidateSymbolNameERKNSt7__cxx1112basic_stringIcSt11char_traitsIcESaIcEEES9_RKNS0_7MessageE
libgrpc++_reflection.so.1:_ZN6google8protobuf17DescriptorBuilder19AddTwiceListedErrorERKNS0_19FileDescriptorProtoEi
libgrpc++_reflection.so.1:_ZN6google8protobuf17DescriptorBuilder19BuildExtensionRangeERKNS0_30DescriptorProto_ExtensionRangeEPKNS0_10DescriptorEPNS5_14ExtensionRangeE
libgrpc++_reflection.so.1:_ZN6google8protobuf17DescriptorBuilder19LogUnusedDependencyERKNS0_19FileDescriptorProtoEPKNS0_14FileDescriptorE
libgrpc++_reflection.so.1:_ZN6google8protobuf17DescriptorBuilder19ValidateEnumOptionsEPNS0_14EnumDescriptorERKNS0_19EnumDescriptorProtoE
libgrpc++_reflection.so.1:_ZN6google8protobuf17DescriptorBuilder19ValidateFileOptionsEPNS0_14FileDescriptorERKNS0_19FileDescriptorProtoE
libgrpc++_reflection.so.1:_ZN6google8protobuf17DescriptorBuilder19ValidateProto3FieldEPNS0_15FieldDescriptorERKNS0_20FieldDescriptorProtoE
libgrpc++_reflection.so.1:_ZN6google8protobuf17DescriptorBuilder20ValidateFieldOptionsEPNS0_15FieldDescriptorERKNS0_20FieldDescriptorProtoE
libgrpc++_reflection.so.1:_ZN6google8protobuf17DescriptorBuilder21BuildFieldOrExtensionERKNS0_20FieldDescriptorProtoEPKNS0_10DescriptorEPNS0_15FieldDescriptorEb
libgrpc++_reflection.so.1:_ZN6google8protobuf17DescriptorBuilder21ValidateMethodOptionsEPNS0_16MethodDescriptorERKNS0_21MethodDescriptorProtoE
libgrpc++_reflection.so.1:_ZN6google8protobuf17DescriptorBuilder21ValidateProto3MessageEPNS0_10DescriptorERKNS0_15DescriptorProtoE
libgrpc++_reflection.so.1:_ZN6google8protobuf17DescriptorBuilder22ValidateMessageOptionsEPNS0_10DescriptorERKNS0_15DescriptorProtoE
libgrpc++_reflection.so.1:_ZN6google8protobuf17DescriptorBuilder22ValidateServiceOptionsEPNS0_17ServiceDescriptorERKNS0_22ServiceDescriptorProtoE
libgrpc++_reflection.so.1:_ZN6google8protobuf17DescriptorBuilder23AddRecursiveImportErrorERKNS0_19FileDescriptorProtoEi
libgrpc++_reflection.so.1:_ZN6google8protobuf17DescriptorBuilder23CrossLinkExtensionRangeEPNS0_10Descriptor14ExtensionRangeERKNS0_30DescriptorProto_ExtensionRangeE
libgrpc++_reflection.so.1:_ZN6google8protobuf17DescriptorBuilder24CheckEnumValueUniquenessERKNS0_19EnumDescriptorProtoEPKNS0_14EnumDescriptorE
libgrpc++_reflection.so.1:_ZN6google8protobuf17DescriptorBuilder24RecordPublicDependenciesEPKNS0_14FileDescriptorE
libgrpc++_reflection.so.1:_ZN6google8protobuf17DescriptorBuilder24ValidateEnumValueOptionsEPNS0_19EnumValueDescriptorERKNS0_24EnumValueDescriptorProtoE
libgrpc++_reflection.so.1:_ZN6google8protobuf17DescriptorBuilder25LookupSymbolNoPlaceholderERKNSt7__cxx1112basic_stringIcSt11char_traitsIcESaIcEEES9_NS1_11ResolveModeEb
libgrpc++_reflection.so.1:_ZN6google8protobuf17DescriptorBuilder26FindSymbolNotEnforcingDepsERKNSt7__cxx1112basic_stringIcSt11char_traitsIcESaIcEEEb
libgrpc++_reflection.so.1:_ZN6google8protobuf17DescriptorBuilder32FindSymbolNotEnforcingDepsHelperEPKNS0_14DescriptorPoolERKNSt7__cxx1112basic_stringIcSt11char_traitsIcESaIcEEEb
libgrpc++_reflection.so.1:_ZN6google8protobuf17DescriptorBuilder8AddErrorERKNSt7__cxx1112basic_stringIcSt11char_traitsIcESaIcEEERKNS0_7MessageENS0_14DescriptorPool14ErrorCollector13ErrorLocationEPKc
libgrpc++_reflection.so.1:_ZN6google8protobuf17DescriptorBuilder8AddErrorERKNSt7__cxx1112basic_stringIcSt11char_traitsIcESaIcEEERKNS0_7MessageENS0_14DescriptorPool14ErrorCollector13ErrorLocationES9_
libgrpc++_reflection.so.1:_ZN6google8protobuf17DescriptorBuilder9AddSymbolERKNSt7__cxx1112basic_stringIcSt11char_traitsIcESaIcEEEPKvS9_RKNS0_7MessageENS0_6SymbolE
libgrpc++_reflection.so.1:_ZN6google8protobuf17DescriptorBuilder9BuildEnumERKNS0_19EnumDescriptorProtoEPKNS0_10DescriptorEPNS0_14EnumDescriptorE
libgrpc++_reflection.so.1:_ZN6google8protobuf17DescriptorBuilder9BuildFileERKNS0_19FileDescriptorProtoE
libgrpc++_reflection.so.1:_ZN6google8protobuf17DescriptorBuilderC1EPKNS0_14DescriptorPoolEPNS2_6TablesEPNS2_14ErrorCollectorE
libgrpc++_reflection.so.1:_ZN6google8protobuf17DescriptorBuilderC2EPKNS0_14DescriptorPoolEPNS2_6TablesEPNS2_14ErrorCollectorE
libgrpc++_reflection.so.1:_ZN6google8protobuf17DescriptorBuilderD1Ev
libgrpc++_reflection.so.1:_ZN6google8protobuf17DescriptorBuilderD2Ev
libgrpc++_reflection.so.1:_ZN6google8protobuf17FastHex32ToBufferEjPc
libgrpc++_reflection.so.1:_ZN6google8protobuf17FastHex64ToBufferEmPc
libgrpc++_reflection.so.1:_ZN6google8protobuf17FastInt32ToBufferEiPc
libgrpc++_reflection.so.1:_ZN6google8protobuf17FastInt64ToBufferElPc
libgrpc++_reflection.so.1:_ZN6google8protobuf17FileDescriptorSet12InternalSwapEPS1_
libgrpc++_reflection.so.1:_ZN6google8protobuf17FileDescriptorSet15UnsafeArenaSwapEPS1_
libgrpc++_reflection.so.1:_ZN6google8protobuf17FileDescriptorSet16default_instanceEv
libgrpc++_reflection.so.1:_ZN6google8protobuf17FileDescriptorSet21InitAsDefaultInstanceEv
libgrpc++_reflection.so.1:_ZN6google8protobuf17FileDescriptorSet27MergePartialFromCodedStreamEPNS0_2io16CodedInputStreamE
libgrpc++_reflection.so.1:_ZN6google8protobuf17FileDescriptorSet4SwapEPS1_
libgrpc++_reflection.so.1:_ZN6google8protobuf17FileDescriptorSet5ClearEv
libgrpc++_reflection.so.1:_ZN6google8protobuf17FileDescriptorSet8CopyFromERKNS0_7MessageE
libgrpc++_reflection.so.1:_ZN6google8protobuf17FileDescriptorSet8CopyFromERKS1_
libgrpc++_reflection.so.1:_ZN6google8protobuf17FileDescriptorSet9ArenaDtorEPv
libgrpc++_reflection.so.1:_ZN6google8protobuf17FileDescriptorSet9MergeFromERKNS0_7MessageE
libgrpc++_reflection.so.1:_ZN6google8protobuf17FileDescriptorSet9MergeFromERKS1_
libgrpc++_reflection.so.1:_ZN6google8protobuf17FileDescriptorSetC1EPNS0_5ArenaE
libgrpc++_reflection.so.1:_ZN6google8protobuf17FileDescriptorSetC1ERKS1_
libgrpc++_reflection.so.1:_ZN6google8protobuf17FileDescriptorSetC1Ev
libgrpc++_reflection.so.1:_ZN6google8protobuf17FileDescriptorSetC2EPNS0_5ArenaE
libgrpc++_reflection.so.1:_ZN6google8protobuf17FileDescriptorSetC2ERKS1_
libgrpc++_reflection.so.1:_ZN6google8protobuf17FileDescriptorSetC2Ev
libgrpc++_reflection.so.1:_ZN6google8protobuf17FileDescriptorSetD0Ev
libgrpc++_reflection.so.1:_ZN6google8protobuf17FileDescriptorSetD1Ev
libgrpc++_reflection.so.1:_ZN6google8protobuf17FileDescriptorSetD2Ev
libgrpc++_reflection.so.1:_ZN6google8protobuf17GeneratedCodeInfo12InternalSwapEPS1_
libgrpc++_reflection.so.1:_ZN6google8protobuf17GeneratedCodeInfo15UnsafeArenaSwapEPS1_
libgrpc++_reflection.so.1:_ZN6google8protobuf17GeneratedCodeInfo16default_instanceEv
libgrpc++_reflection.so.1:_ZN6google8protobuf17GeneratedCodeInfo21InitAsDefaultInstanceEv
libgrpc++_reflection.so.1:_ZN6google8protobuf17GeneratedCodeInfo27MergePartialFromCodedStreamEPNS0_2io16CodedInputStreamE
libgrpc++_reflection.so.1:_ZN6google8protobuf17GeneratedCodeInfo4SwapEPS1_
libgrpc++_reflection.so.1:_ZN6google8protobuf17GeneratedCodeInfo5ClearEv
libgrpc++_reflection.so.1:_ZN6google8protobuf17GeneratedCodeInfo8CopyFromERKNS0_7MessageE
libgrpc++_reflection.so.1:_ZN6google8protobuf17GeneratedCodeInfo8CopyFromERKS1_
libgrpc++_reflection.so.1:_ZN6google8protobuf17GeneratedCodeInfo9ArenaDtorEPv
libgrpc++_reflection.so.1:_ZN6google8protobuf17GeneratedCodeInfo9MergeFromERKNS0_7MessageE
libgrpc++_reflection.so.1:_ZN6google8protobuf17GeneratedCodeInfo9MergeFromERKS1_
libgrpc++_reflection.so.1:_ZN6google8protobuf17GeneratedCodeInfoC1EPNS0_5ArenaE
libgrpc++_reflection.so.1:_ZN6google8protobuf17GeneratedCodeInfoC1ERKS1_
libgrpc++_reflection.so.1:_ZN6google8protobuf17GeneratedCodeInfoC1Ev
libgrpc++_reflection.so.1:_ZN6google8protobuf17GeneratedCodeInfoC2EPNS0_5ArenaE
libgrpc++_reflection.so.1:_ZN6google8protobuf17GeneratedCodeInfoC2ERKS1_
libgrpc++_reflection.so.1:_ZN6google8protobuf17GeneratedCodeInfoC2Ev
libgrpc++_reflection.so.1:_ZN6google8protobuf17GeneratedCodeInfoD0Ev
libgrpc++_reflection.so.1:_ZN6google8protobuf17GeneratedCodeInfoD1Ev
libgrpc++_reflection.so.1:_ZN6google8protobuf17GeneratedCodeInfoD2Ev
libgrpc++_reflection.so.1:_ZN6google8protobuf17ReplaceCharactersEPNSt7__cxx1112basic_stringIcSt11char_traitsIcESaIcEEEPKcc
libgrpc++_reflection.so.1:_ZN6google8protobuf18DescriptorDatabase19FindAllMessageNamesEPSt6vectorINSt7__cxx1112basic_stringIcSt11char_traitsIcESaIcEEESaIS8_EE
libgrpc++_reflection.so.1:_ZN6google8protobuf18DescriptorDatabase19FindAllPackageNamesEPSt6vectorINSt7__cxx1112basic_stringIcSt11char_traitsIcESaIcEEESaIS8_EE
libgrpc++_reflection.so.1:_ZN6google8protobuf18DescriptorDatabaseD0Ev
libgrpc++_reflection.so.1:_ZN6google8protobuf18DescriptorDatabaseD1Ev
libgrpc++_reflection.so.1:_ZN6google8protobuf18DescriptorDatabaseD2Ev
libgrpc++_reflection.so.1:_ZN6google8protobuf18StringPrintfVectorEPKcRKSt6vectorINSt7__cxx1112basic_stringIcSt11char_traitsIcESaIcEEESaIS9_EE
libgrpc++_reflection.so.1:_ZN6google8protobuf19EnumDescriptorProto12InternalSwapEPS1_
libgrpc++_reflection.so.1:_ZN6google8protobuf19EnumDescriptorProto13HasBitSetters7optionsEPKS1_
libgrpc++_reflection.so.1:_ZN6google8protobuf19EnumDescriptorProto15UnsafeArenaSwapEPS1_
libgrpc++_reflection.so.1:_ZN6google8protobuf19EnumDescriptorProto16default_instanceEv
libgrpc++_reflection.so.1:_ZN6google8protobuf19EnumDescriptorProto21InitAsDefaultInstanceEv
libgrpc++_reflection.so.1:_ZN6google8protobuf19EnumDescriptorProto27MergePartialFromCodedStreamEPNS0_2io16CodedInputStreamE
libgrpc++_reflection.so.1:_ZN6google8protobuf19EnumDescriptorProto34unsafe_arena_set_allocated_optionsEPNS0_11EnumOptionsE
libgrpc++_reflection.so.1:_ZN6google8protobuf19EnumDescriptorProto4SwapEPS1_
libgrpc++_reflection.so.1:_ZN6google8protobuf19EnumDescriptorProto5ClearEv
libgrpc++_reflection.so.1:_ZN6google8protobuf19EnumDescriptorProto8CopyFromERKNS0_7MessageE
libgrpc++_reflection.so.1:_ZN6google8protobuf19EnumDescriptorProto8CopyFromERKS1_
libgrpc++_reflection.so.1:_ZN6google8protobuf19EnumDescriptorProto9ArenaDtorEPv
libgrpc++_reflection.so.1:_ZN6google8protobuf19EnumDescriptorProto9MergeFromERKNS0_7MessageE
libgrpc++_reflection.so.1:_ZN6google8protobuf19EnumDescriptorProto9MergeFromERKS1_
libgrpc++_reflection.so.1:_ZN6google8protobuf19EnumDescriptorProtoC1EPNS0_5ArenaE
libgrpc++_reflection.so.1:_ZN6google8protobuf19EnumDescriptorProtoC1ERKS1_
libgrpc++_reflection.so.1:_ZN6google8protobuf19EnumDescriptorProtoC1Ev
libgrpc++_reflection.so.1:_ZN6google8protobuf19EnumDescriptorProtoC2EPNS0_5ArenaE
libgrpc++_reflection.so.1:_ZN6google8protobuf19EnumDescriptorProtoC2ERKS1_
libgrpc++_reflection.so.1:_ZN6google8protobuf19EnumDescriptorProtoC2Ev
libgrpc++_reflection.so.1:_ZN6google8protobuf19EnumDescriptorProtoD0Ev
libgrpc++_reflection.so.1:_ZN6google8protobuf19EnumDescriptorProtoD1Ev
libgrpc++_reflection.so.1:_ZN6google8protobuf19EnumDescriptorProtoD2Ev
libgrpc++_reflection.so.1:_ZN6google8protobuf19FileDescriptorProto12InternalSwapEPS1_
libgrpc++_reflection.so.1:_ZN6google8protobuf19FileDescriptorProto13HasBitSetters16source_code_infoEPKS1_
libgrpc++_reflection.so.1:_ZN6google8protobuf19FileDescriptorProto13HasBitSetters7optionsEPKS1_
libgrpc++_reflection.so.1:_ZN6google8protobuf19FileDescriptorProto15UnsafeArenaSwapEPS1_
libgrpc++_reflection.so.1:_ZN6google8protobuf19FileDescriptorProto16default_instanceEv
libgrpc++_reflection.so.1:_ZN6google8protobuf19FileDescriptorProto21InitAsDefaultInstanceEv
libgrpc++_reflection.so.1:_ZN6google8protobuf19FileDescriptorProto27MergePartialFromCodedStreamEPNS0_2io16CodedInputStreamE
libgrpc++_reflection.so.1:_ZN6google8protobuf19FileDescriptorProto34unsafe_arena_set_allocated_optionsEPNS0_11FileOptionsE
libgrpc++_reflection.so.1:_ZN6google8protobuf19FileDescriptorProto43unsafe_arena_set_allocated_source_code_infoEPNS0_14SourceCodeInfoE
libgrpc++_reflection.so.1:_ZN6google8protobuf19FileDescriptorProto4SwapEPS1_
libgrpc++_reflection.so.1:_ZN6google8protobuf19FileDescriptorProto5ClearEv
libgrpc++_reflection.so.1:_ZN6google8protobuf19FileDescriptorProto8CopyFromERKNS0_7MessageE
libgrpc++_reflection.so.1:_ZN6google8protobuf19FileDescriptorProto8CopyFromERKS1_
libgrpc++_reflection.so.1:_ZN6google8protobuf19FileDescriptorProto9ArenaDtorEPv
libgrpc++_reflection.so.1:_ZN6google8protobuf19FileDescriptorProto9MergeFromERKNS0_7MessageE
libgrpc++_reflection.so.1:_ZN6google8protobuf19FileDescriptorProto9MergeFromERKS1_
libgrpc++_reflection.so.1:_ZN6google8protobuf19FileDescriptorProtoC1EPNS0_5ArenaE
libgrpc++_reflection.so.1:_ZN6google8protobuf19FileDescriptorProtoC1ERKS1_
libgrpc++_reflection.so.1:_ZN6google8protobuf19FileDescriptorProtoC1Ev
libgrpc++_reflection.so.1:_ZN6google8protobuf19FileDescriptorProtoC2EPNS0_5ArenaE
libgrpc++_reflection.so.1:_ZN6google8protobuf19FileDescriptorProtoC2ERKS1_
libgrpc++_reflection.so.1:_ZN6google8protobuf19FileDescriptorProtoC2Ev
libgrpc++_reflection.so.1:_ZN6google8protobuf19FileDescriptorProtoD0Ev
libgrpc++_reflection.so.1:_ZN6google8protobuf19FileDescriptorProtoD1Ev
libgrpc++_reflection.so.1:_ZN6google8protobuf19FileDescriptorProtoD2Ev
libgrpc++_reflection.so.1:_ZN6google8protobuf19UninterpretedOption12InternalSwapEPS1_
libgrpc++_reflection.so.1:_ZN6google8protobuf19UninterpretedOption15UnsafeArenaSwapEPS1_
libgrpc++_reflection.so.1:_ZN6google8protobuf19UninterpretedOption16default_instanceEv
libgrpc++_reflection.so.1:_ZN6google8protobuf19UninterpretedOption21InitAsDefaultInstanceEv
libgrpc++_reflection.so.1:_ZN6google8protobuf19UninterpretedOption27MergePartialFromCodedStreamEPNS0_2io16CodedInputStreamE
libgrpc++_reflection.so.1:_ZN6google8protobuf19UninterpretedOption4SwapEPS1_
libgrpc++_reflection.so.1:_ZN6google8protobuf19UninterpretedOption5ClearEv
libgrpc++_reflection.so.1:_ZN6google8protobuf19UninterpretedOption8CopyFromERKNS0_7MessageE
libgrpc++_reflection.so.1:_ZN6google8protobuf19UninterpretedOption8CopyFromERKS1_
libgrpc++_reflection.so.1:_ZN6google8protobuf19UninterpretedOption9ArenaDtorEPv
libgrpc++_reflection.so.1:_ZN6google8protobuf19UninterpretedOption9MergeFromERKNS0_7MessageE
libgrpc++_reflection.so.1:_ZN6google8protobuf19UninterpretedOption9MergeFromERKS1_
libgrpc++_reflection.so.1:_ZN6google8protobuf19UninterpretedOptionC1EPNS0_5ArenaE
libgrpc++_reflection.so.1:_ZN6google8protobuf19UninterpretedOptionC1ERKS1_
libgrpc++_reflection.so.1:_ZN6google8protobuf19UninterpretedOptionC1Ev
libgrpc++_reflection.so.1:_ZN6google8protobuf19UninterpretedOptionC2EPNS0_5ArenaE
libgrpc++_reflection.so.1:_ZN6google8protobuf19UninterpretedOptionC2ERKS1_
libgrpc++_reflection.so.1:_ZN6google8protobuf19UninterpretedOptionC2Ev
libgrpc++_reflection.so.1:_ZN6google8protobuf19UninterpretedOptionD0Ev
libgrpc++_reflection.so.1:_ZN6google8protobuf19UninterpretedOptionD1Ev
libgrpc++_reflection.so.1:_ZN6google8protobuf19UninterpretedOptionD2Ev
libgrpc++_reflection.so.1:_ZN6google8protobuf19WebSafeBase64EscapeENS0_11StringPieceEPNSt7__cxx1112basic_stringIcSt11char_traitsIcESaIcEEE
libgrpc++_reflection.so.1:_ZN6google8protobuf19WebSafeBase64EscapeEPKhiPNSt7__cxx1112basic_stringIcSt11char_traitsIcESaIcEEEb
libgrpc++_reflection.so.1:_ZN6google8protobuf19WebSafeBase64EscapeEPKhiPcib
libgrpc++_reflection.so.1:_ZN6google8protobuf20Base64EscapeInternalEPKhiPNSt7__cxx1112basic_stringIcSt11char_traitsIcESaIcEEEbPKc
libgrpc++_reflection.so.1:_ZN6google8protobuf20Base64EscapeInternalEPKhiPciPKcb
libgrpc++_reflection.so.1:_ZN6google8protobuf20FieldDescriptorProto12InternalSwapEPS1_
libgrpc++_reflection.so.1:_ZN6google8protobuf20FieldDescriptorProto13HasBitSetters7optionsEPKS1_
libgrpc++_reflection.so.1:_ZN6google8protobuf20FieldDescriptorProto15UnsafeArenaSwapEPS1_
libgrpc++_reflection.so.1:_ZN6google8protobuf20FieldDescriptorProto16default_instanceEv
libgrpc++_reflection.so.1:_ZN6google8protobuf20FieldDescriptorProto21InitAsDefaultInstanceEv
libgrpc++_reflection.so.1:_ZN6google8protobuf20FieldDescriptorProto27MergePartialFromCodedStreamEPNS0_2io16CodedInputStreamE
libgrpc++_reflection.so.1:_ZN6google8protobuf20FieldDescriptorProto34unsafe_arena_set_allocated_optionsEPNS0_12FieldOptionsE
libgrpc++_reflection.so.1:_ZN6google8protobuf20FieldDescriptorProto4SwapEPS1_
libgrpc++_reflection.so.1:_ZN6google8protobuf20FieldDescriptorProto5ClearEv
libgrpc++_reflection.so.1:_ZN6google8protobuf20FieldDescriptorProto8CopyFromERKNS0_7MessageE
libgrpc++_reflection.so.1:_ZN6google8protobuf20FieldDescriptorProto8CopyFromERKS1_
libgrpc++_reflection.so.1:_ZN6google8protobuf20FieldDescriptorProto9ArenaDtorEPv
libgrpc++_reflection.so.1:_ZN6google8protobuf20FieldDescriptorProto9MergeFromERKNS0_7MessageE
libgrpc++_reflection.so.1:_ZN6google8protobuf20FieldDescriptorProto9MergeFromERKS1_
libgrpc++_reflection.so.1:_ZN6google8protobuf20FieldDescriptorProtoC1EPNS0_5ArenaE
libgrpc++_reflection.so.1:_ZN6google8protobuf20FieldDescriptorProtoC1ERKS1_
libgrpc++_reflection.so.1:_ZN6google8protobuf20FieldDescriptorProtoC1Ev
libgrpc++_reflection.so.1:_ZN6google8protobuf20FieldDescriptorProtoC2EPNS0_5ArenaE
libgrpc++_reflection.so.1:_ZN6google8protobuf20FieldDescriptorProtoC2ERKS1_
libgrpc++_reflection.so.1:_ZN6google8protobuf20FieldDescriptorProtoC2Ev
libgrpc++_reflection.so.1:_ZN6google8protobuf20FieldDescriptorProtoD0Ev
libgrpc++_reflection.so.1:_ZN6google8protobuf20FieldDescriptorProtoD1Ev
libgrpc++_reflection.so.1:_ZN6google8protobuf20FieldDescriptorProtoD2Ev
libgrpc++_reflection.so.1:_ZN6google8protobuf20FileDescriptorTables14FinalizeTablesEv
libgrpc++_reflection.so.1:_ZN6google8protobuf20FileDescriptorTables16AddFieldByNumberEPKNS0_15FieldDescriptorE
libgrpc++_reflection.so.1:_ZN6google8protobuf20FileDescriptorTables19AddAliasUnderParentEPKvRKNSt7__cxx1112basic_stringIcSt11char_traitsIcESaIcEEENS0_6SymbolE
libgrpc++_reflection.so.1:_ZN6google8protobuf20FileDescriptorTables20AddEnumValueByNumberEPKNS0_19EnumValueDescriptorE
libgrpc++_reflection.so.1:_ZN6google8protobuf20FileDescriptorTables20BuildLocationsByPathEPSt4pairIPKS1_PKNS0_14SourceCodeInfoEE
libgrpc++_reflection.so.1:_ZN6google8protobuf20FileDescriptorTables23AddFieldByStylizedNamesEPKNS0_15FieldDescriptorE
libgrpc++_reflection.so.1:_ZN6google8protobuf20FileDescriptorTables36FieldsByCamelcaseNamesLazyInitStaticEPKS1_
libgrpc++_reflection.so.1:_ZN6google8protobuf20FileDescriptorTables36FieldsByLowercaseNamesLazyInitStaticEPKS1_
libgrpc++_reflection.so.1:_ZN6google8protobuf20FileDescriptorTablesC1Ev
libgrpc++_reflection.so.1:_ZN6google8protobuf20FileDescriptorTablesC2Ev
libgrpc++_reflection.so.1:_ZN6google8protobuf20FileDescriptorTablesD1Ev
libgrpc++_reflection.so.1:_ZN6google8protobuf20FileDescriptorTablesD2Ev
libgrpc++_reflection.so.1:_ZN6google8protobuf20OneofDescriptorProto12InternalSwapEPS1_
libgrpc++_reflection.so.1:_ZN6google8protobuf20OneofDescriptorProto13HasBitSetters7optionsEPKS1_
libgrpc++_reflection.so.1:_ZN6google8protobuf20OneofDescriptorProto15UnsafeArenaSwapEPS1_
libgrpc++_reflection.so.1:_ZN6google8protobuf20OneofDescriptorProto16default_instanceEv
libgrpc++_reflection.so.1:_ZN6google8protobuf20OneofDescriptorProto21InitAsDefaultInstanceEv
libgrpc++_reflection.so.1:_ZN6google8protobuf20OneofDescriptorProto27MergePartialFromCodedStreamEPNS0_2io16CodedInputStreamE
libgrpc++_reflection.so.1:_ZN6google8protobuf20OneofDescriptorProto34unsafe_arena_set_allocated_optionsEPNS0_12OneofOptionsE
libgrpc++_reflection.so.1:_ZN6google8protobuf20OneofDescriptorProto4SwapEPS1_
libgrpc++_reflection.so.1:_ZN6google8protobuf20OneofDescriptorProto5ClearEv
libgrpc++_reflection.so.1:_ZN6google8protobuf20OneofDescriptorProto8CopyFromERKNS0_7MessageE
libgrpc++_reflection.so.1:_ZN6google8protobuf20OneofDescriptorProto8CopyFromERKS1_
libgrpc++_reflection.so.1:_ZN6google8protobuf20OneofDescriptorProto9ArenaDtorEPv
libgrpc++_reflection.so.1:_ZN6google8protobuf20OneofDescriptorProto9MergeFromERKNS0_7MessageE
libgrpc++_reflection.so.1:_ZN6google8protobuf20OneofDescriptorProto9MergeFromERKS1_
libgrpc++_reflection.so.1:_ZN6google8protobuf20OneofDescriptorProtoC1EPNS0_5ArenaE
libgrpc++_reflection.so.1:_ZN6google8protobuf20OneofDescriptorProtoC1ERKS1_
libgrpc++_reflection.so.1:_ZN6google8protobuf20OneofDescriptorProtoC1Ev
libgrpc++_reflection.so.1:_ZN6google8protobuf20OneofDescriptorProtoC2EPNS0_5ArenaE
libgrpc++_reflection.so.1:_ZN6google8protobuf20OneofDescriptorProtoC2ERKS1_
libgrpc++_reflection.so.1:_ZN6google8protobuf20OneofDescriptorProtoC2Ev
libgrpc++_reflection.so.1:_ZN6google8protobuf20OneofDescriptorProtoD0Ev
libgrpc++_reflection.so.1:_ZN6google8protobuf20OneofDescriptorProtoD1Ev
libgrpc++_reflection.so.1:_ZN6google8protobuf20OneofDescriptorProtoD2Ev
libgrpc++_reflection.so.1:_ZN6google8protobuf21DynamicMessageFactory12GetPrototypeEPKNS0_10DescriptorE
libgrpc++_reflection.so.1:_ZN6google8protobuf21DynamicMessageFactory18GetPrototypeNoLockEPKNS0_10DescriptorE
libgrpc++_reflection.so.1:_ZN6google8protobuf21DynamicMessageFactory26DeleteDefaultOneofInstanceEPKNS0_10DescriptorEPKjPKv
libgrpc++_reflection.so.1:_ZN6google8protobuf21DynamicMessageFactory29ConstructDefaultOneofInstanceEPKNS0_10DescriptorEPKjPv
libgrpc++_reflection.so.1:_ZN6google8protobuf21DynamicMessageFactoryC1EPKNS0_14DescriptorPoolE
libgrpc++_reflection.so.1:_ZN6google8protobuf21DynamicMessageFactoryC1Ev
libgrpc++_reflection.so.1:_ZN6google8protobuf21DynamicMessageFactoryC2EPKNS0_14DescriptorPoolE
libgrpc++_reflection.so.1:_ZN6google8protobuf21DynamicMessageFactoryC2Ev
libgrpc++_reflection.so.1:_ZN6google8protobuf21DynamicMessageFactoryD0Ev
libgrpc++_reflection.so.1:_ZN6google8protobuf21DynamicMessageFactoryD1Ev
libgrpc++_reflection.so.1:_ZN6google8protobuf21DynamicMessageFactoryD2Ev
libgrpc++_reflection.so.1:_ZN6google8protobuf21ExtensionRangeOptions12InternalSwapEPS1_
libgrpc++_reflection.so.1:_ZN6google8protobuf21ExtensionRangeOptions15UnsafeArenaSwapEPS1_
libgrpc++_reflection.so.1:_ZN6google8protobuf21ExtensionRangeOptions16default_instanceEv
libgrpc++_reflection.so.1:_ZN6google8protobuf21ExtensionRangeOptions21InitAsDefaultInstanceEv
libgrpc++_reflection.so.1:_ZN6google8protobuf21ExtensionRangeOptions27MergePartialFromCodedStreamEPNS0_2io16CodedInputStreamE
libgrpc++_reflection.so.1:_ZN6google8protobuf21ExtensionRangeOptions4SwapEPS1_
libgrpc++_reflection.so.1:_ZN6google8protobuf21ExtensionRangeOptions5ClearEv
libgrpc++_reflection.so.1:_ZN6google8protobuf21ExtensionRangeOptions8CopyFromERKNS0_7MessageE
libgrpc++_reflection.so.1:_ZN6google8protobuf21ExtensionRangeOptions8CopyFromERKS1_
libgrpc++_reflection.so.1:_ZN6google8protobuf21ExtensionRangeOptions9ArenaDtorEPv
libgrpc++_reflection.so.1:_ZN6google8protobuf21ExtensionRangeOptions9MergeFromERKNS0_7MessageE
libgrpc++_reflection.so.1:_ZN6google8protobuf21ExtensionRangeOptions9MergeFromERKS1_
libgrpc++_reflection.so.1:_ZN6google8protobuf21ExtensionRangeOptionsC1EPNS0_5ArenaE
libgrpc++_reflection.so.1:_ZN6google8protobuf21ExtensionRangeOptionsC1ERKS1_
libgrpc++_reflection.so.1:_ZN6google8protobuf21ExtensionRangeOptionsC1Ev
libgrpc++_reflection.so.1:_ZN6google8protobuf21ExtensionRangeOptionsC2EPNS0_5ArenaE
libgrpc++_reflection.so.1:_ZN6google8protobuf21ExtensionRangeOptionsC2ERKS1_
libgrpc++_reflection.so.1:_ZN6google8protobuf21ExtensionRangeOptionsC2Ev
libgrpc++_reflection.so.1:_ZN6google8protobuf21ExtensionRangeOptionsD0Ev
libgrpc++_reflection.so.1:_ZN6google8protobuf21ExtensionRangeOptionsD1Ev
libgrpc++_reflection.so.1:_ZN6google8protobuf21ExtensionRangeOptionsD2Ev
libgrpc++_reflection.so.1:_ZN6google8protobuf21FastInt32ToBufferLeftEiPc
libgrpc++_reflection.so.1:_ZN6google8protobuf21FastInt64ToBufferLeftElPc
libgrpc++_reflection.so.1:_ZN6google8protobuf21MethodDescriptorProto12InternalSwapEPS1_
libgrpc++_reflection.so.1:_ZN6google8protobuf21MethodDescriptorProto13HasBitSetters7optionsEPKS1_
libgrpc++_reflection.so.1:_ZN6google8protobuf21MethodDescriptorProto15UnsafeArenaSwapEPS1_
libgrpc++_reflection.so.1:_ZN6google8protobuf21MethodDescriptorProto16default_instanceEv
libgrpc++_reflection.so.1:_ZN6google8protobuf21MethodDescriptorProto21InitAsDefaultInstanceEv
libgrpc++_reflection.so.1:_ZN6google8protobuf21MethodDescriptorProto27MergePartialFromCodedStreamEPNS0_2io16CodedInputStreamE
libgrpc++_reflection.so.1:_ZN6google8protobuf21MethodDescriptorProto34unsafe_arena_set_allocated_optionsEPNS0_13MethodOptionsE
libgrpc++_reflection.so.1:_ZN6google8protobuf21MethodDescriptorProto4SwapEPS1_
libgrpc++_reflection.so.1:_ZN6google8protobuf21MethodDescriptorProto5ClearEv
libgrpc++_reflection.so.1:_ZN6google8protobuf21MethodDescriptorProto8CopyFromERKNS0_7MessageE
libgrpc++_reflection.so.1:_ZN6google8protobuf21MethodDescriptorProto8CopyFromERKS1_
libgrpc++_reflection.so.1:_ZN6google8protobuf21MethodDescriptorProto9ArenaDtorEPv
libgrpc++_reflection.so.1:_ZN6google8protobuf21MethodDescriptorProto9MergeFromERKNS0_7MessageE
libgrpc++_reflection.so.1:_ZN6google8protobuf21MethodDescriptorProto9MergeFromERKS1_
libgrpc++_reflection.so.1:_ZN6google8protobuf21MethodDescriptorProtoC1EPNS0_5ArenaE
libgrpc++_reflection.so.1:_ZN6google8protobuf21MethodDescriptorProtoC1ERKS1_
libgrpc++_reflection.so.1:_ZN6google8protobuf21MethodDescriptorProtoC1Ev
libgrpc++_reflection.so.1:_ZN6google8protobuf21MethodDescriptorProtoC2EPNS0_5ArenaE
libgrpc++_reflection.so.1:_ZN6google8protobuf21MethodDescriptorProtoC2ERKS1_
libgrpc++_reflection.so.1:_ZN6google8protobuf21MethodDescriptorProtoC2Ev
libgrpc++_reflection.so.1:_ZN6google8protobuf21MethodDescriptorProtoD0Ev
libgrpc++_reflection.so.1:_ZN6google8protobuf21MethodDescriptorProtoD1Ev
libgrpc++_reflection.so.1:_ZN6google8protobuf21MethodDescriptorProtoD2Ev
libgrpc++_reflection.so.1:_ZN6google8protobuf21SplitStringAllowEmptyERKNSt7__cxx1112basic_stringIcSt11char_traitsIcESaIcEEEPKcPSt6vectorIS6_SaIS6_EE
libgrpc++_reflection.so.1:_ZN6google8protobuf21UnescapeCEscapeStringERKNSt7__cxx1112basic_stringIcSt11char_traitsIcESaIcEEE
libgrpc++_reflection.so.1:_ZN6google8protobuf21UnescapeCEscapeStringERKNSt7__cxx1112basic_stringIcSt11char_traitsIcESaIcEEEPS6_
libgrpc++_reflection.so.1:_ZN6google8protobuf21UnescapeCEscapeStringERKNSt7__cxx1112basic_stringIcSt11char_traitsIcESaIcEEEPS6_PSt6vectorIS6_SaIS6_EE
libgrpc++_reflection.so.1:_ZN6google8protobuf21WebSafeBase64UnescapeENS0_11StringPieceEPNSt7__cxx1112basic_stringIcSt11char_traitsIcESaIcEEE
libgrpc++_reflection.so.1:_ZN6google8protobuf21WebSafeBase64UnescapeEPKciPci
libgrpc++_reflection.so.1:_ZN6google8protobuf22Base64UnescapeInternalEPKciPciPKa
libgrpc++_reflection.so.1:_ZN6google8protobuf22CleanStringLineEndingsEPNSt7__cxx1112basic_stringIcSt11char_traitsIcESaIcEEEb
libgrpc++_reflection.so.1:_ZN6google8protobuf22CleanStringLineEndingsERKNSt7__cxx1112basic_stringIcSt11char_traitsIcESaIcEEEPS6_b
libgrpc++_reflection.so.1:_ZN6google8protobuf22DescriptorPoolDatabase14FindFileByNameERKNSt7__cxx1112basic_stringIcSt11char_traitsIcESaIcEEEPNS0_19FileDescriptorProtoE
libgrpc++_reflection.so.1:_ZN6google8protobuf22DescriptorPoolDatabase23FindAllExtensionNumbersERKNSt7__cxx1112basic_stringIcSt11char_traitsIcESaIcEEEPSt6vectorIiSaIiEE
libgrpc++_reflection.so.1:_ZN6google8protobuf22DescriptorPoolDatabase24FindFileContainingSymbolERKNSt7__cxx1112basic_stringIcSt11char_traitsIcESaIcEEEPNS0_19FileDescriptorProtoE
libgrpc++_reflection.so.1:_ZN6google8protobuf22DescriptorPoolDatabase27FindFileContainingExtensionERKNSt7__cxx1112basic_stringIcSt11char_traitsIcESaIcEEEiPNS0_19FileDescriptorProtoE
libgrpc++_reflection.so.1:_ZN6google8protobuf22DescriptorPoolDatabaseC1ERKNS0_14DescriptorPoolE
libgrpc++_reflection.so.1:_ZN6google8protobuf22DescriptorPoolDatabaseC2ERKNS0_14DescriptorPoolE
libgrpc++_reflection.so.1:_ZN6google8protobuf22DescriptorPoolDatabaseD0Ev
libgrpc++_reflection.so.1:_ZN6google8protobuf22DescriptorPoolDatabaseD1Ev
libgrpc++_reflection.so.1:_ZN6google8protobuf22DescriptorPoolDatabaseD2Ev
libgrpc++_reflection.so.1:_ZN6google8protobuf22FastUInt32ToBufferLeftEjPc
libgrpc++_reflection.so.1:_ZN6google8protobuf22FastUInt64ToBufferLeftEmPc
libgrpc++_reflection.so.1:_ZN6google8protobuf22GlobalReplaceSubstringERKNSt7__cxx1112basic_stringIcSt11char_traitsIcESaIcEEES8_PS6_
libgrpc++_reflection.so.1:_ZN6google8protobuf22ServiceDescriptorProto12InternalSwapEPS1_
libgrpc++_reflection.so.1:_ZN6google8protobuf22ServiceDescriptorProto13HasBitSetters7optionsEPKS1_
libgrpc++_reflection.so.1:_ZN6google8protobuf22ServiceDescriptorProto15UnsafeArenaSwapEPS1_
libgrpc++_reflection.so.1:_ZN6google8protobuf22ServiceDescriptorProto16default_instanceEv
libgrpc++_reflection.so.1:_ZN6google8protobuf22ServiceDescriptorProto21InitAsDefaultInstanceEv
libgrpc++_reflection.so.1:_ZN6google8protobuf22ServiceDescriptorProto27MergePartialFromCodedStreamEPNS0_2io16CodedInputStreamE
libgrpc++_reflection.so.1:_ZN6google8protobuf22ServiceDescriptorProto34unsafe_arena_set_allocated_optionsEPNS0_14ServiceOptionsE
libgrpc++_reflection.so.1:_ZN6google8protobuf22ServiceDescriptorProto4SwapEPS1_
libgrpc++_reflection.so.1:_ZN6google8protobuf22ServiceDescriptorProto5ClearEv
libgrpc++_reflection.so.1:_ZN6google8protobuf22ServiceDescriptorProto8CopyFromERKNS0_7MessageE
libgrpc++_reflection.so.1:_ZN6google8protobuf22ServiceDescriptorProto8CopyFromERKS1_
libgrpc++_reflection.so.1:_ZN6google8protobuf22ServiceDescriptorProto9ArenaDtorEPv
libgrpc++_reflection.so.1:_ZN6google8protobuf22ServiceDescriptorProto9MergeFromERKNS0_7MessageE
libgrpc++_reflection.so.1:_ZN6google8protobuf22ServiceDescriptorProto9MergeFromERKS1_
libgrpc++_reflection.so.1:_ZN6google8protobuf22ServiceDescriptorProtoC1EPNS0_5ArenaE
libgrpc++_reflection.so.1:_ZN6google8protobuf22ServiceDescriptorProtoC1ERKS1_
libgrpc++_reflection.so.1:_ZN6google8protobuf22ServiceDescriptorProtoC1Ev
libgrpc++_reflection.so.1:_ZN6google8protobuf22ServiceDescriptorProtoC2EPNS0_5ArenaE
libgrpc++_reflection.so.1:_ZN6google8protobuf22ServiceDescriptorProtoC2ERKS1_
libgrpc++_reflection.so.1:_ZN6google8protobuf22ServiceDescriptorProtoC2Ev
libgrpc++_reflection.so.1:_ZN6google8protobuf22ServiceDescriptorProtoD0Ev
libgrpc++_reflection.so.1:_ZN6google8protobuf22ServiceDescriptorProtoD1Ev
libgrpc++_reflection.so.1:_ZN6google8protobuf22ServiceDescriptorProtoD2Ev
libgrpc++_reflection.so.1:_ZN6google8protobuf23InternalFastHexToBufferEmPci
libgrpc++_reflection.so.1:_ZN6google8protobuf23ShutdownProtobufLibraryEv
libgrpc++_reflection.so.1:_ZN6google8protobuf23SourceCodeInfo_Location12InternalSwapEPS1_
libgrpc++_reflection.so.1:_ZN6google8protobuf23SourceCodeInfo_Location15UnsafeArenaSwapEPS1_
libgrpc++_reflection.so.1:_ZN6google8protobuf23SourceCodeInfo_Location16default_instanceEv
libgrpc++_reflection.so.1:_ZN6google8protobuf23SourceCodeInfo_Location21InitAsDefaultInstanceEv
libgrpc++_reflection.so.1:_ZN6google8protobuf23SourceCodeInfo_Location27MergePartialFromCodedStreamEPNS0_2io16CodedInputStreamE
libgrpc++_reflection.so.1:_ZN6google8protobuf23SourceCodeInfo_Location4SwapEPS1_
libgrpc++_reflection.so.1:_ZN6google8protobuf23SourceCodeInfo_Location5ClearEv
libgrpc++_reflection.so.1:_ZN6google8protobuf23SourceCodeInfo_Location8CopyFromERKNS0_7MessageE
libgrpc++_reflection.so.1:_ZN6google8protobuf23SourceCodeInfo_Location8CopyFromERKS1_
libgrpc++_reflection.so.1:_ZN6google8protobuf23SourceCodeInfo_Location9ArenaDtorEPv
libgrpc++_reflection.so.1:_ZN6google8protobuf23SourceCodeInfo_Location9MergeFromERKNS0_7MessageE
libgrpc++_reflection.so.1:_ZN6google8protobuf23SourceCodeInfo_Location9MergeFromERKS1_
libgrpc++_reflection.so.1:_ZN6google8protobuf23SourceCodeInfo_LocationC1EPNS0_5ArenaE
libgrpc++_reflection.so.1:_ZN6google8protobuf23SourceCodeInfo_LocationC1ERKS1_
libgrpc++_reflection.so.1:_ZN6google8protobuf23SourceCodeInfo_LocationC1Ev
libgrpc++_reflection.so.1:_ZN6google8protobuf23SourceCodeInfo_LocationC2EPNS0_5ArenaE
libgrpc++_reflection.so.1:_ZN6google8protobuf23SourceCodeInfo_LocationC2ERKS1_
libgrpc++_reflection.so.1:_ZN6google8protobuf23SourceCodeInfo_LocationC2Ev
libgrpc++_reflection.so.1:_ZN6google8protobuf23SourceCodeInfo_LocationD0Ev
libgrpc++_reflection.so.1:_ZN6google8protobuf23SourceCodeInfo_LocationD1Ev
libgrpc++_reflection.so.1:_ZN6google8protobuf23SourceCodeInfo_LocationD2Ev
libgrpc++_reflection.so.1:_ZN6google8protobuf23UTF8FirstLetterNumBytesEPKci
libgrpc++_reflection.so.1:_ZN6google8protobuf24EnumValueDescriptorProto12InternalSwapEPS1_
libgrpc++_reflection.so.1:_ZN6google8protobuf24EnumValueDescriptorProto13HasBitSetters7optionsEPKS1_
libgrpc++_reflection.so.1:_ZN6google8protobuf24EnumValueDescriptorProto15UnsafeArenaSwapEPS1_
libgrpc++_reflection.so.1:_ZN6google8protobuf24EnumValueDescriptorProto16default_instanceEv
libgrpc++_reflection.so.1:_ZN6google8protobuf24EnumValueDescriptorProto21InitAsDefaultInstanceEv
libgrpc++_reflection.so.1:_ZN6google8protobuf24EnumValueDescriptorProto27MergePartialFromCodedStreamEPNS0_2io16CodedInputStreamE
libgrpc++_reflection.so.1:_ZN6google8protobuf24EnumValueDescriptorProto34unsafe_arena_set_allocated_optionsEPNS0_16EnumValueOptionsE
libgrpc++_reflection.so.1:_ZN6google8protobuf24EnumValueDescriptorProto4SwapEPS1_
libgrpc++_reflection.so.1:_ZN6google8protobuf24EnumValueDescriptorProto5ClearEv
libgrpc++_reflection.so.1:_ZN6google8protobuf24EnumValueDescriptorProto8CopyFromERKNS0_7MessageE
libgrpc++_reflection.so.1:_ZN6google8protobuf24EnumValueDescriptorProto8CopyFromERKS1_
libgrpc++_reflection.so.1:_ZN6google8protobuf24EnumValueDescriptorProto9ArenaDtorEPv
libgrpc++_reflection.so.1:_ZN6google8protobuf24EnumValueDescriptorProto9MergeFromERKNS0_7MessageE
libgrpc++_reflection.so.1:_ZN6google8protobuf24EnumValueDescriptorProto9MergeFromERKS1_
libgrpc++_reflection.so.1:_ZN6google8protobuf24EnumValueDescriptorProtoC1EPNS0_5ArenaE
libgrpc++_reflection.so.1:_ZN6google8protobuf24EnumValueDescriptorProtoC1ERKS1_
libgrpc++_reflection.so.1:_ZN6google8protobuf24EnumValueDescriptorProtoC1Ev
libgrpc++_reflection.so.1:_ZN6google8protobuf24EnumValueDescriptorProtoC2EPNS0_5ArenaE
libgrpc++_reflection.so.1:_ZN6google8protobuf24EnumValueDescriptorProtoC2ERKS1_
libgrpc++_reflection.so.1:_ZN6google8protobuf24EnumValueDescriptorProtoC2Ev
libgrpc++_reflection.so.1:_ZN6google8protobuf24EnumValueDescriptorProtoD0Ev
libgrpc++_reflection.so.1:_ZN6google8protobuf24EnumValueDescriptorProtoD1Ev
libgrpc++_reflection.so.1:_ZN6google8protobuf24EnumValueDescriptorProtoD2Ev
libgrpc++_reflection.so.1:_ZN6google8protobuf24MergedDescriptorDatabase14FindFileByNameERKNSt7__cxx1112basic_stringIcSt11char_traitsIcESaIcEEEPNS0_19FileDescriptorProtoE
libgrpc++_reflection.so.1:_ZN6google8protobuf24MergedDescriptorDatabase23FindAllExtensionNumbersERKNSt7__cxx1112basic_stringIcSt11char_traitsIcESaIcEEEPSt6vectorIiSaIiEE
libgrpc++_reflection.so.1:_ZN6google8protobuf24MergedDescriptorDatabase24FindFileContainingSymbolERKNSt7__cxx1112basic_stringIcSt11char_traitsIcESaIcEEEPNS0_19FileDescriptorProtoE
libgrpc++_reflection.so.1:_ZN6google8protobuf24MergedDescriptorDatabase27FindFileContainingExtensionERKNSt7__cxx1112basic_stringIcSt11char_traitsIcESaIcEEEiPNS0_19FileDescriptorProtoE
libgrpc++_reflection.so.1:_ZN6google8protobuf24MergedDescriptorDatabaseC1EPNS0_18DescriptorDatabaseES3_
libgrpc++_reflection.so.1:_ZN6google8protobuf24MergedDescriptorDatabaseC1ERKSt6vectorIPNS0_18DescriptorDatabaseESaIS4_EE
libgrpc++_reflection.so.1:_ZN6google8protobuf24MergedDescriptorDatabaseC2EPNS0_18DescriptorDatabaseES3_
libgrpc++_reflection.so.1:_ZN6google8protobuf24MergedDescriptorDatabaseC2ERKSt6vectorIPNS0_18DescriptorDatabaseESaIS4_EE
libgrpc++_reflection.so.1:_ZN6google8protobuf24MergedDescriptorDatabaseD0Ev
libgrpc++_reflection.so.1:_ZN6google8protobuf24MergedDescriptorDatabaseD1Ev
libgrpc++_reflection.so.1:_ZN6google8protobuf24MergedDescriptorDatabaseD2Ev
libgrpc++_reflection.so.1:_ZN6google8protobuf24SimpleDescriptorDatabase14FindFileByNameERKNSt7__cxx1112basic_stringIcSt11char_traitsIcESaIcEEEPNS0_19FileDescriptorProtoE
libgrpc++_reflection.so.1:_ZN6google8protobuf24SimpleDescriptorDatabase16FindAllFileNamesEPSt6vectorINSt7__cxx1112basic_stringIcSt11char_traitsIcESaIcEEESaIS8_EE
libgrpc++_reflection.so.1:_ZN6google8protobuf24SimpleDescriptorDatabase23FindAllExtensionNumbersERKNSt7__cxx1112basic_stringIcSt11char_traitsIcESaIcEEEPSt6vectorIiSaIiEE
libgrpc++_reflection.so.1:_ZN6google8protobuf24SimpleDescriptorDatabase24FindFileContainingSymbolERKNSt7__cxx1112basic_stringIcSt11char_traitsIcESaIcEEEPNS0_19FileDescriptorProtoE
libgrpc++_reflection.so.1:_ZN6google8protobuf24SimpleDescriptorDatabase27FindFileContainingExtensionERKNSt7__cxx1112basic_stringIcSt11char_traitsIcESaIcEEEiPNS0_19FileDescriptorProtoE
libgrpc++_reflection.so.1:_ZN6google8protobuf24SimpleDescriptorDatabase3AddERKNS0_19FileDescriptorProtoE
libgrpc++_reflection.so.1:_ZN6google8protobuf24SimpleDescriptorDatabase9AddAndOwnEPKNS0_19FileDescriptorProtoE
libgrpc++_reflection.so.1:_ZN6google8protobuf24SimpleDescriptorDatabase9MaybeCopyEPKNS0_19FileDescriptorProtoEPS2_
libgrpc++_reflection.so.1:_ZN6google8protobuf24SimpleDescriptorDatabaseC1Ev
libgrpc++_reflection.so.1:_ZN6google8protobuf24SimpleDescriptorDatabaseC2Ev
libgrpc++_reflection.so.1:_ZN6google8protobuf24SimpleDescriptorDatabaseD0Ev
libgrpc++_reflection.so.1:_ZN6google8protobuf24SimpleDescriptorDatabaseD1Ev
libgrpc++_reflection.so.1:_ZN6google8protobuf24SimpleDescriptorDatabaseD2Ev
libgrpc++_reflection.so.1:_ZN6google8protobuf24UnescapeCEscapeSequencesEPKcPc
libgrpc++_reflection.so.1:_ZN6google8protobuf24UnescapeCEscapeSequencesEPKcPcPSt6vectorINSt7__cxx1112basic_stringIcSt11char_traitsIcESaIcEEESaISA_EE
libgrpc++_reflection.so.1:_ZN6google8protobuf25CalculateBase64EscapedLenEi
libgrpc++_reflection.so.1:_ZN6google8protobuf25CalculateBase64EscapedLenEib
libgrpc++_reflection.so.1:_ZN6google8protobuf25EncodedDescriptorDatabase10MaybeParseESt4pairIPKviEPNS0_19FileDescriptorProtoE
libgrpc++_reflection.so.1:_ZN6google8protobuf25EncodedDescriptorDatabase14FindFileByNameERKNSt7__cxx1112basic_stringIcSt11char_traitsIcESaIcEEEPNS0_19FileDescriptorProtoE
libgrpc++_reflection.so.1:_ZN6google8protobuf25EncodedDescriptorDatabase23FindAllExtensionNumbersERKNSt7__cxx1112basic_stringIcSt11char_traitsIcESaIcEEEPSt6vectorIiSaIiEE
libgrpc++_reflection.so.1:_ZN6google8protobuf25EncodedDescriptorDatabase24FindFileContainingSymbolERKNSt7__cxx1112basic_stringIcSt11char_traitsIcESaIcEEEPNS0_19FileDescriptorProtoE
libgrpc++_reflection.so.1:_ZN6google8protobuf25EncodedDescriptorDatabase27FindFileContainingExtensionERKNSt7__cxx1112basic_stringIcSt11char_traitsIcESaIcEEEiPNS0_19FileDescriptorProtoE
libgrpc++_reflection.so.1:_ZN6google8protobuf25EncodedDescriptorDatabase30FindNameOfFileContainingSymbolERKNSt7__cxx1112basic_stringIcSt11char_traitsIcESaIcEEEPS7_
libgrpc++_reflection.so.1:_ZN6google8protobuf25EncodedDescriptorDatabase3AddEPKvi
libgrpc++_reflection.so.1:_ZN6google8protobuf25EncodedDescriptorDatabase7AddCopyEPKvi
libgrpc++_reflection.so.1:_ZN6google8protobuf25EncodedDescriptorDatabaseC1Ev
libgrpc++_reflection.so.1:_ZN6google8protobuf25EncodedDescriptorDatabaseC2Ev
libgrpc++_reflection.so.1:_ZN6google8protobuf25EncodedDescriptorDatabaseD0Ev
libgrpc++_reflection.so.1:_ZN6google8protobuf25EncodedDescriptorDatabaseD1Ev
libgrpc++_reflection.so.1:_ZN6google8protobuf25EncodedDescriptorDatabaseD2Ev
libgrpc++_reflection.so.1:_ZN6google8protobuf26FieldOptions_CType_IsValidEi
libgrpc++_reflection.so.1:_ZN6google8protobuf27FieldOptions_JSType_IsValidEi
libgrpc++_reflection.so.1:_ZN6google8protobuf28GeneratedCodeInfo_Annotation12InternalSwapEPS1_
libgrpc++_reflection.so.1:_ZN6google8protobuf28GeneratedCodeInfo_Annotation15UnsafeArenaSwapEPS1_
libgrpc++_reflection.so.1:_ZN6google8protobuf28GeneratedCodeInfo_Annotation16default_instanceEv
libgrpc++_reflection.so.1:_ZN6google8protobuf28GeneratedCodeInfo_Annotation21InitAsDefaultInstanceEv
libgrpc++_reflection.so.1:_ZN6google8protobuf28GeneratedCodeInfo_Annotation27MergePartialFromCodedStreamEPNS0_2io16CodedInputStreamE
libgrpc++_reflection.so.1:_ZN6google8protobuf28GeneratedCodeInfo_Annotation4SwapEPS1_
libgrpc++_reflection.so.1:_ZN6google8protobuf28GeneratedCodeInfo_Annotation5ClearEv
libgrpc++_reflection.so.1:_ZN6google8protobuf28GeneratedCodeInfo_Annotation8CopyFromERKNS0_7MessageE
libgrpc++_reflection.so.1:_ZN6google8protobuf28GeneratedCodeInfo_Annotation8CopyFromERKS1_
libgrpc++_reflection.so.1:_ZN6google8protobuf28GeneratedCodeInfo_Annotation9ArenaDtorEPv
libgrpc++_reflection.so.1:_ZN6google8protobuf28GeneratedCodeInfo_Annotation9MergeFromERKNS0_7MessageE
libgrpc++_reflection.so.1:_ZN6google8protobuf28GeneratedCodeInfo_Annotation9MergeFromERKS1_
libgrpc++_reflection.so.1:_ZN6google8protobuf28GeneratedCodeInfo_AnnotationC1EPNS0_5ArenaE
libgrpc++_reflection.so.1:_ZN6google8protobuf28GeneratedCodeInfo_AnnotationC1ERKS1_
libgrpc++_reflection.so.1:_ZN6google8protobuf28GeneratedCodeInfo_AnnotationC1Ev
libgrpc++_reflection.so.1:_ZN6google8protobuf28GeneratedCodeInfo_AnnotationC2EPNS0_5ArenaE
libgrpc++_reflection.so.1:_ZN6google8protobuf28GeneratedCodeInfo_AnnotationC2ERKS1_
libgrpc++_reflection.so.1:_ZN6google8protobuf28GeneratedCodeInfo_AnnotationC2Ev
libgrpc++_reflection.so.1:_ZN6google8protobuf28GeneratedCodeInfo_AnnotationD0Ev
libgrpc++_reflection.so.1:_ZN6google8protobuf28GeneratedCodeInfo_AnnotationD1Ev
libgrpc++_reflection.so.1:_ZN6google8protobuf28GeneratedCodeInfo_AnnotationD2Ev
libgrpc++_reflection.so.1:_ZN6google8protobuf28UninterpretedOption_NamePart12InternalSwapEPS1_
libgrpc++_reflection.so.1:_ZN6google8protobuf28UninterpretedOption_NamePart15UnsafeArenaSwapEPS1_
libgrpc++_reflection.so.1:_ZN6google8protobuf28UninterpretedOption_NamePart16default_instanceEv
libgrpc++_reflection.so.1:_ZN6google8protobuf28UninterpretedOption_NamePart21InitAsDefaultInstanceEv
libgrpc++_reflection.so.1:_ZN6google8protobuf28UninterpretedOption_NamePart27MergePartialFromCodedStreamEPNS0_2io16CodedInputStreamE
libgrpc++_reflection.so.1:_ZN6google8protobuf28UninterpretedOption_NamePart4SwapEPS1_
libgrpc++_reflection.so.1:_ZN6google8protobuf28UninterpretedOption_NamePart5ClearEv
libgrpc++_reflection.so.1:_ZN6google8protobuf28UninterpretedOption_NamePart8CopyFromERKNS0_7MessageE
libgrpc++_reflection.so.1:_ZN6google8protobuf28UninterpretedOption_NamePart8CopyFromERKS1_
libgrpc++_reflection.so.1:_ZN6google8protobuf28UninterpretedOption_NamePart9ArenaDtorEPv
libgrpc++_reflection.so.1:_ZN6google8protobuf28UninterpretedOption_NamePart9MergeFromERKNS0_7MessageE
libgrpc++_reflection.so.1:_ZN6google8protobuf28UninterpretedOption_NamePart9MergeFromERKS1_
libgrpc++_reflection.so.1:_ZN6google8protobuf28UninterpretedOption_NamePartC1EPNS0_5ArenaE
libgrpc++_reflection.so.1:_ZN6google8protobuf28UninterpretedOption_NamePartC1ERKS1_
libgrpc++_reflection.so.1:_ZN6google8protobuf28UninterpretedOption_NamePartC1Ev
libgrpc++_reflection.so.1:_ZN6google8protobuf28UninterpretedOption_NamePartC2EPNS0_5ArenaE
libgrpc++_reflection.so.1:_ZN6google8protobuf28UninterpretedOption_NamePartC2ERKS1_
libgrpc++_reflection.so.1:_ZN6google8protobuf28UninterpretedOption_NamePartC2Ev
libgrpc++_reflection.so.1:_ZN6google8protobuf28UninterpretedOption_NamePartD0Ev
libgrpc++_reflection.so.1:_ZN6google8protobuf28UninterpretedOption_NamePartD1Ev
libgrpc++_reflection.so.1:_ZN6google8protobuf28UninterpretedOption_NamePartD2Ev
libgrpc++_reflection.so.1:_ZN6google8protobuf29DescriptorProto_ReservedRange12InternalSwapEPS1_
libgrpc++_reflection.so.1:_ZN6google8protobuf29DescriptorProto_ReservedRange15UnsafeArenaSwapEPS1_
libgrpc++_reflection.so.1:_ZN6google8protobuf29DescriptorProto_ReservedRange16default_instanceEv
libgrpc++_reflection.so.1:_ZN6google8protobuf29DescriptorProto_ReservedRange21InitAsDefaultInstanceEv
libgrpc++_reflection.so.1:_ZN6google8protobuf29DescriptorProto_ReservedRange27MergePartialFromCodedStreamEPNS0_2io16CodedInputStreamE
libgrpc++_reflection.so.1:_ZN6google8protobuf29DescriptorProto_ReservedRange4SwapEPS1_
libgrpc++_reflection.so.1:_ZN6google8protobuf29DescriptorProto_ReservedRange5ClearEv
libgrpc++_reflection.so.1:_ZN6google8protobuf29DescriptorProto_ReservedRange8CopyFromERKNS0_7MessageE
libgrpc++_reflection.so.1:_ZN6google8protobuf29DescriptorProto_ReservedRange8CopyFromERKS1_
libgrpc++_reflection.so.1:_ZN6google8protobuf29DescriptorProto_ReservedRange9ArenaDtorEPv
libgrpc++_reflection.so.1:_ZN6google8protobuf29DescriptorProto_ReservedRange9MergeFromERKNS0_7MessageE
libgrpc++_reflection.so.1:_ZN6google8protobuf29DescriptorProto_ReservedRange9MergeFromERKS1_
libgrpc++_reflection.so.1:_ZN6google8protobuf29DescriptorProto_ReservedRangeC1EPNS0_5ArenaE
libgrpc++_reflection.so.1:_ZN6google8protobuf29DescriptorProto_ReservedRangeC1ERKS1_
libgrpc++_reflection.so.1:_ZN6google8protobuf29DescriptorProto_ReservedRangeC1Ev
libgrpc++_reflection.so.1:_ZN6google8protobuf29DescriptorProto_ReservedRangeC2EPNS0_5ArenaE
libgrpc++_reflection.so.1:_ZN6google8protobuf29DescriptorProto_ReservedRangeC2ERKS1_
libgrpc++_reflection.so.1:_ZN6google8protobuf29DescriptorProto_ReservedRangeC2Ev
libgrpc++_reflection.so.1:_ZN6google8protobuf29DescriptorProto_ReservedRangeD0Ev
libgrpc++_reflection.so.1:_ZN6google8protobuf29DescriptorProto_ReservedRangeD1Ev
libgrpc++_reflection.so.1:_ZN6google8protobuf29DescriptorProto_ReservedRangeD2Ev
libgrpc++_reflection.so.1:_ZN6google8protobuf29FieldOptions_CType_descriptorEv
libgrpc++_reflection.so.1:_ZN6google8protobuf2io14ErrorCollectorD0Ev
libgrpc++_reflection.so.1:_ZN6google8protobuf2io14ErrorCollectorD1Ev
libgrpc++_reflection.so.1:_ZN6google8protobuf2io14ErrorCollectorD2Ev
libgrpc++_reflection.so.1:_ZN6google8protobuf2io14NoLocaleStrtodEPKcPPc
libgrpc++_reflection.so.1:_ZN6google8protobuf2io15FileInputStream22CopyingFileInputStream4ReadEPvi
libgrpc++_reflection.so.1:_ZN6google8protobuf2io15FileInputStream22CopyingFileInputStream4SkipEi
libgrpc++_reflection.so.1:_ZN6google8protobuf2io15FileInputStream22CopyingFileInputStream5CloseEv
libgrpc++_reflection.so.1:_ZN6google8protobuf2io15FileInputStream22CopyingFileInputStreamC1Ei
libgrpc++_reflection.so.1:_ZN6google8protobuf2io15FileInputStream22CopyingFileInputStreamC2Ei
libgrpc++_reflection.so.1:_ZN6google8protobuf2io15FileInputStream22CopyingFileInputStreamD0Ev
libgrpc++_reflection.so.1:_ZN6google8protobuf2io15FileInputStream22CopyingFileInputStreamD1Ev
libgrpc++_reflection.so.1:_ZN6google8protobuf2io15FileInputStream22CopyingFileInputStreamD2Ev
libgrpc++_reflection.so.1:_ZN6google8protobuf2io15FileInputStream4NextEPPKvPi
libgrpc++_reflection.so.1:_ZN6google8protobuf2io15FileInputStream4SkipEi
libgrpc++_reflection.so.1:_ZN6google8protobuf2io15FileInputStream5CloseEv
libgrpc++_reflection.so.1:_ZN6google8protobuf2io15FileInputStream6BackUpEi
libgrpc++_reflection.so.1:_ZN6google8protobuf2io15FileInputStreamC1Eii
libgrpc++_reflection.so.1:_ZN6google8protobuf2io15FileInputStreamC2Eii
libgrpc++_reflection.so.1:_ZN6google8protobuf2io16ArrayInputStream4NextEPPKvPi
libgrpc++_reflection.so.1:_ZN6google8protobuf2io16ArrayInputStream4SkipEi
libgrpc++_reflection.so.1:_ZN6google8protobuf2io16ArrayInputStream6BackUpEi
libgrpc++_reflection.so.1:_ZN6google8protobuf2io16ArrayInputStreamC1EPKvii
libgrpc++_reflection.so.1:_ZN6google8protobuf2io16ArrayInputStreamC2EPKvii
libgrpc++_reflection.so.1:_ZN6google8protobuf2io16CodedInputStream10ReadStringEPNSt7__cxx1112basic_stringIcSt11char_traitsIcESaIcEEEi
libgrpc++_reflection.so.1:_ZN6google8protobuf2io16CodedInputStream11ReadTagSlowEv
libgrpc++_reflection.so.1:_ZN6google8protobuf2io16CodedInputStream12SkipFallbackEii
libgrpc++_reflection.so.1:_ZN6google8protobuf2io16CodedInputStream15ReadTagFallbackEj
libgrpc++_reflection.so.1:_ZN6google8protobuf2io16CodedInputStream16ReadVarint32SlowEPj
libgrpc++_reflection.so.1:_ZN6google8protobuf2io16CodedInputStream16ReadVarint64SlowEPm
libgrpc++_reflection.so.1:_ZN6google8protobuf2io16CodedInputStream18ReadStringFallbackEPNSt7__cxx1112basic_stringIcSt11char_traitsIcESaIcEEEi
libgrpc++_reflection.so.1:_ZN6google8protobuf2io16CodedInputStream18SetTotalBytesLimitEi
libgrpc++_reflection.so.1:_ZN6google8protobuf2io16CodedInputStream20ReadVarint32FallbackEj
libgrpc++_reflection.so.1:_ZN6google8protobuf2io16CodedInputStream20ReadVarint64FallbackEv
libgrpc++_reflection.so.1:_ZN6google8protobuf2io16CodedInputStream22GetDirectBufferPointerEPPKvPi
libgrpc++_reflection.so.1:_ZN6google8protobuf2io16CodedInputStream22ReadLengthAndPushLimitEv
libgrpc++_reflection.so.1:_ZN6google8protobuf2io16CodedInputStream23ReadVarintSizeAsIntSlowEv
libgrpc++_reflection.so.1:_ZN6google8protobuf2io16CodedInputStream25PrintTotalBytesLimitErrorEv
libgrpc++_reflection.so.1:_ZN6google8protobuf2io16CodedInputStream26ReadLittleEndian32FallbackEPj
libgrpc++_reflection.so.1:_ZN6google8protobuf2io16CodedInputStream26ReadLittleEndian64FallbackEPm
libgrpc++_reflection.so.1:_ZN6google8protobuf2io16CodedInputStream27ReadVarintSizeAsIntFallbackEv
libgrpc++_reflection.so.1:_ZN6google8protobuf2io16CodedInputStream28BackUpInputToCurrentPositionEv
libgrpc++_reflection.so.1:_ZN6google8protobuf2io16CodedInputStream34DecrementRecursionDepthAndPopLimitEi
libgrpc++_reflection.so.1:_ZN6google8protobuf2io16CodedInputStream35IncrementRecursionDepthAndPushLimitEi
libgrpc++_reflection.so.1:_ZN6google8protobuf2io16CodedInputStream37CheckEntireMessageConsumedAndPopLimitEi
libgrpc++_reflection.so.1:_ZN6google8protobuf2io16CodedInputStream7ReadRawEPvi
libgrpc++_reflection.so.1:_ZN6google8protobuf2io16CodedInputStream7RefreshEv
libgrpc++_reflection.so.1:_ZN6google8protobuf2io16CodedInputStream8PopLimitEi
libgrpc++_reflection.so.1:_ZN6google8protobuf2io16CodedInputStream9PushLimitEi
libgrpc++_reflection.so.1:_ZN6google8protobuf2io16CodedInputStreamD1Ev
libgrpc++_reflection.so.1:_ZN6google8protobuf2io16CodedInputStreamD2Ev
libgrpc++_reflection.so.1:_ZN6google8protobuf2io16FileOutputStream23CopyingFileOutputStream5CloseEv
libgrpc++_reflection.so.1:_ZN6google8protobuf2io16FileOutputStream23CopyingFileOutputStream5WriteEPKvi
libgrpc++_reflection.so.1:_ZN6google8protobuf2io16FileOutputStream23CopyingFileOutputStreamC1Ei
libgrpc++_reflection.so.1:_ZN6google8protobuf2io16FileOutputStream23CopyingFileOutputStreamC2Ei
libgrpc++_reflection.so.1:_ZN6google8protobuf2io16FileOutputStream23CopyingFileOutputStreamD0Ev
libgrpc++_reflection.so.1:_ZN6google8protobuf2io16FileOutputStream23CopyingFileOutputStreamD1Ev
libgrpc++_reflection.so.1:_ZN6google8protobuf2io16FileOutputStream23CopyingFileOutputStreamD2Ev
libgrpc++_reflection.so.1:_ZN6google8protobuf2io16FileOutputStream4NextEPPvPi
libgrpc++_reflection.so.1:_ZN6google8protobuf2io16FileOutputStream5CloseEv
libgrpc++_reflection.so.1:_ZN6google8protobuf2io16FileOutputStream5FlushEv
libgrpc++_reflection.so.1:_ZN6google8protobuf2io16FileOutputStream6BackUpEi
libgrpc++_reflection.so.1:_ZN6google8protobuf2io16FileOutputStreamC1Eii
libgrpc++_reflection.so.1:_ZN6google8protobuf2io16FileOutputStreamC2Eii
libgrpc++_reflection.so.1:_ZN6google8protobuf2io16FileOutputStreamD0Ev
libgrpc++_reflection.so.1:_ZN6google8protobuf2io16FileOutputStreamD1Ev
libgrpc++_reflection.so.1:_ZN6google8protobuf2io16FileOutputStreamD2Ev
libgrpc++_reflection.so.1:_ZN6google8protobuf2io17ArrayOutputStream4NextEPPvPi
libgrpc++_reflection.so.1:_ZN6google8protobuf2io17ArrayOutputStream6BackUpEi
libgrpc++_reflection.so.1:_ZN6google8protobuf2io17ArrayOutputStreamC1EPvii
libgrpc++_reflection.so.1:_ZN6google8protobuf2io17ArrayOutputStreamC2EPvii
libgrpc++_reflection.so.1:_ZN6google8protobuf2io17CodedOutputStream14EnableAliasingEb
libgrpc++_reflection.so.1:_ZN6google8protobuf2io17CodedOutputStream15WriteAliasedRawEPKvi
libgrpc++_reflection.so.1:_ZN6google8protobuf2io17CodedOutputStream15WriteRawToArrayEPKviPh
libgrpc++_reflection.so.1:_ZN6google8protobuf2io17CodedOutputStream19WriteLittleEndian32Ej
libgrpc++_reflection.so.1:_ZN6google8protobuf2io17CodedOutputStream19WriteLittleEndian64Em
libgrpc++_reflection.so.1:_ZN6google8protobuf2io17CodedOutputStream21WriteVarint32SlowPathEj
libgrpc++_reflection.so.1:_ZN6google8protobuf2io17CodedOutputStream21WriteVarint64SlowPathEm
libgrpc++_reflection.so.1:_ZN6google8protobuf2io17CodedOutputStream22GetDirectBufferPointerEPPvPi
libgrpc++_reflection.so.1:_ZN6google8protobuf2io17CodedOutputStream26WriteStringWithSizeToArrayERKNSt7__cxx1112basic_stringIcSt11char_traitsIcESaIcEEEPh
libgrpc++_reflection.so.1:_ZN6google8protobuf2io17CodedOutputStream4SkipEi
libgrpc++_reflection.so.1:_ZN6google8protobuf2io17CodedOutputStream4TrimEv
libgrpc++_reflection.so.1:_ZN6google8protobuf2io17CodedOutputStream7RefreshEv
libgrpc++_reflection.so.1:_ZN6google8protobuf2io17CodedOutputStream8WriteRawEPKvi
libgrpc++_reflection.so.1:_ZN6google8protobuf2io17CodedOutputStreamC1EPNS1_20ZeroCopyOutputStreamE
libgrpc++_reflection.so.1:_ZN6google8protobuf2io17CodedOutputStreamC1EPNS1_20ZeroCopyOutputStreamEb
libgrpc++_reflection.so.1:_ZN6google8protobuf2io17CodedOutputStreamC2EPNS1_20ZeroCopyOutputStreamE
libgrpc++_reflection.so.1:_ZN6google8protobuf2io17CodedOutputStreamC2EPNS1_20ZeroCopyOutputStreamEb
libgrpc++_reflection.so.1:_ZN6google8protobuf2io17CodedOutputStreamD1Ev
libgrpc++_reflection.so.1:_ZN6google8protobuf2io17CodedOutputStreamD2Ev
libgrpc++_reflection.so.1:_ZN6google8protobuf2io17SafeDoubleToFloatEd
libgrpc++_reflection.so.1:_ZN6google8protobuf2io18CopyingInputStream4SkipEi
libgrpc++_reflection.so.1:_ZN6google8protobuf2io18IstreamInputStream25CopyingIstreamInputStream4ReadEPvi
libgrpc++_reflection.so.1:_ZN6google8protobuf2io18IstreamInputStream25CopyingIstreamInputStreamC1EPSi
libgrpc++_reflection.so.1:_ZN6google8protobuf2io18IstreamInputStream25CopyingIstreamInputStreamC2EPSi
libgrpc++_reflection.so.1:_ZN6google8protobuf2io18IstreamInputStream25CopyingIstreamInputStreamD0Ev
libgrpc++_reflection.so.1:_ZN6google8protobuf2io18IstreamInputStream25CopyingIstreamInputStreamD1Ev
libgrpc++_reflection.so.1:_ZN6google8protobuf2io18IstreamInputStream25CopyingIstreamInputStreamD2Ev
libgrpc++_reflection.so.1:_ZN6google8protobuf2io18IstreamInputStream4NextEPPKvPi
libgrpc++_reflection.so.1:_ZN6google8protobuf2io18IstreamInputStream4SkipEi
libgrpc++_reflection.so.1:_ZN6google8protobuf2io18IstreamInputStream6BackUpEi
libgrpc++_reflection.so.1:_ZN6google8protobuf2io18IstreamInputStreamC1EPSii
libgrpc++_reflection.so.1:_ZN6google8protobuf2io18IstreamInputStreamC2EPSii
libgrpc++_reflection.so.1:_ZN6google8protobuf2io18StringOutputStream4NextEPPvPi
libgrpc++_reflection.so.1:_ZN6google8protobuf2io18StringOutputStream6BackUpEi
libgrpc++_reflection.so.1:_ZN6google8protobuf2io18StringOutputStreamC1EPNSt7__cxx1112basic_stringIcSt11char_traitsIcESaIcEEE
libgrpc++_reflection.so.1:_ZN6google8protobuf2io18StringOutputStreamC2EPNSt7__cxx1112basic_stringIcSt11char_traitsIcESaIcEEE
libgrpc++_reflection.so.1:_ZN6google8protobuf2io19LimitingInputStream4NextEPPKvPi
libgrpc++_reflection.so.1:_ZN6google8protobuf2io19LimitingInputStream4SkipEi
libgrpc++_reflection.so.1:_ZN6google8protobuf2io19LimitingInputStream6BackUpEi
libgrpc++_reflection.so.1:_ZN6google8protobuf2io19LimitingInputStreamC1EPNS1_19ZeroCopyInputStreamEl
libgrpc++_reflection.so.1:_ZN6google8protobuf2io19LimitingInputStreamC2EPNS1_19ZeroCopyInputStreamEl
libgrpc++_reflection.so.1:_ZN6google8protobuf2io19LimitingInputStreamD0Ev
libgrpc++_reflection.so.1:_ZN6google8protobuf2io19LimitingInputStreamD1Ev
libgrpc++_reflection.so.1:_ZN6google8protobuf2io19LimitingInputStreamD2Ev
libgrpc++_reflection.so.1:_ZN6google8protobuf2io19OstreamOutputStream26CopyingOstreamOutputStream5WriteEPKvi
libgrpc++_reflection.so.1:_ZN6google8protobuf2io19OstreamOutputStream26CopyingOstreamOutputStreamC1EPSo
libgrpc++_reflection.so.1:_ZN6google8protobuf2io19OstreamOutputStream26CopyingOstreamOutputStreamC2EPSo
libgrpc++_reflection.so.1:_ZN6google8protobuf2io19OstreamOutputStream26CopyingOstreamOutputStreamD0Ev
libgrpc++_reflection.so.1:_ZN6google8protobuf2io19OstreamOutputStream26CopyingOstreamOutputStreamD1Ev
libgrpc++_reflection.so.1:_ZN6google8protobuf2io19OstreamOutputStream26CopyingOstreamOutputStreamD2Ev
libgrpc++_reflection.so.1:_ZN6google8protobuf2io19OstreamOutputStream4NextEPPvPi
libgrpc++_reflection.so.1:_ZN6google8protobuf2io19OstreamOutputStream6BackUpEi
libgrpc++_reflection.so.1:_ZN6google8protobuf2io19OstreamOutputStreamC1EPSoi
libgrpc++_reflection.so.1:_ZN6google8protobuf2io19OstreamOutputStreamC2EPSoi
libgrpc++_reflection.so.1:_ZN6google8protobuf2io19OstreamOutputStreamD0Ev
libgrpc++_reflection.so.1:_ZN6google8protobuf2io19OstreamOutputStreamD1Ev
libgrpc++_reflection.so.1:_ZN6google8protobuf2io19OstreamOutputStreamD2Ev
libgrpc++_reflection.so.1:_ZN6google8protobuf2io20ZeroCopyOutputStream15WriteAliasedRawEPKvi
libgrpc++_reflection.so.1:_ZN6google8protobuf2io24ConcatenatingInputStream4NextEPPKvPi
libgrpc++_reflection.so.1:_ZN6google8protobuf2io24ConcatenatingInputStream4SkipEi
libgrpc++_reflection.so.1:_ZN6google8protobuf2io24ConcatenatingInputStream6BackUpEi
libgrpc++_reflection.so.1:_ZN6google8protobuf2io24ConcatenatingInputStreamC1EPKPNS1_19ZeroCopyInputStreamEi
libgrpc++_reflection.so.1:_ZN6google8protobuf2io24ConcatenatingInputStreamC2EPKPNS1_19ZeroCopyInputStreamEi
libgrpc++_reflection.so.1:_ZN6google8protobuf2io25CopyingInputStreamAdaptor10FreeBufferEv
libgrpc++_reflection.so.1:_ZN6google8protobuf2io25CopyingInputStreamAdaptor22AllocateBufferIfNeededEv
libgrpc++_reflection.so.1:_ZN6google8protobuf2io25CopyingInputStreamAdaptor4NextEPPKvPi
libgrpc++_reflection.so.1:_ZN6google8protobuf2io25CopyingInputStreamAdaptor4SkipEi
libgrpc++_reflection.so.1:_ZN6google8protobuf2io25CopyingInputStreamAdaptor6BackUpEi
libgrpc++_reflection.so.1:_ZN6google8protobuf2io25CopyingInputStreamAdaptorC1EPNS1_18CopyingInputStreamEi
libgrpc++_reflection.so.1:_ZN6google8protobuf2io25CopyingInputStreamAdaptorC2EPNS1_18CopyingInputStreamEi
libgrpc++_reflection.so.1:_ZN6google8protobuf2io25CopyingInputStreamAdaptorD0Ev
libgrpc++_reflection.so.1:_ZN6google8protobuf2io25CopyingInputStreamAdaptorD1Ev
libgrpc++_reflection.so.1:_ZN6google8protobuf2io25CopyingInputStreamAdaptorD2Ev
libgrpc++_reflection.so.1:_ZN6google8protobuf2io26CopyingOutputStreamAdaptor10FreeBufferEv
libgrpc++_reflection.so.1:_ZN6google8protobuf2io26CopyingOutputStreamAdaptor11WriteBufferEv
libgrpc++_reflection.so.1:_ZN6google8protobuf2io26CopyingOutputStreamAdaptor22AllocateBufferIfNeededEv
libgrpc++_reflection.so.1:_ZN6google8protobuf2io26CopyingOutputStreamAdaptor4NextEPPvPi
libgrpc++_reflection.so.1:_ZN6google8protobuf2io26CopyingOutputStreamAdaptor5FlushEv
libgrpc++_reflection.so.1:_ZN6google8protobuf2io26CopyingOutputStreamAdaptor6BackUpEi
libgrpc++_reflection.so.1:_ZN6google8protobuf2io26CopyingOutputStreamAdaptorC1EPNS1_19CopyingOutputStreamEi
libgrpc++_reflection.so.1:_ZN6google8protobuf2io26CopyingOutputStreamAdaptorC2EPNS1_19CopyingOutputStreamEi
libgrpc++_reflection.so.1:_ZN6google8protobuf2io26CopyingOutputStreamAdaptorD0Ev
libgrpc++_reflection.so.1:_ZN6google8protobuf2io26CopyingOutputStreamAdaptorD1Ev
libgrpc++_reflection.so.1:_ZN6google8protobuf2io26CopyingOutputStreamAdaptorD2Ev
libgrpc++_reflection.so.1:_ZN6google8protobuf2io9Tokenizer10ParseFloatERKNSt7__cxx1112basic_stringIcSt11char_traitsIcESaIcEEE
libgrpc++_reflection.so.1:_ZN6google8protobuf2io9Tokenizer12IsIdentifierERKNSt7__cxx1112basic_stringIcSt11char_traitsIcESaIcEEE
libgrpc++_reflection.so.1:_ZN6google8protobuf2io9Tokenizer12ParseIntegerERKNSt7__cxx1112basic_stringIcSt11char_traitsIcESaIcEEEmPm
libgrpc++_reflection.so.1:_ZN6google8protobuf2io9Tokenizer13ConsumeNumberEbb
libgrpc++_reflection.so.1:_ZN6google8protobuf2io9Tokenizer13ConsumeStringEc
libgrpc++_reflection.so.1:_ZN6google8protobuf2io9Tokenizer16NextWithCommentsEPNSt7__cxx1112basic_stringIcSt11char_traitsIcESaIcEEEPSt6vectorIS8_SaIS8_EES9_
libgrpc++_reflection.so.1:_ZN6google8protobuf2io9Tokenizer17ParseStringAppendERKNSt7__cxx1112basic_stringIcSt11char_traitsIcESaIcEEEPS8_
libgrpc++_reflection.so.1:_ZN6google8protobuf2io9Tokenizer18ConsumeLineCommentEPNSt7__cxx1112basic_stringIcSt11char_traitsIcESaIcEEE
libgrpc++_reflection.so.1:_ZN6google8protobuf2io9Tokenizer19ConsumeBlockCommentEPNSt7__cxx1112basic_stringIcSt11char_traitsIcESaIcEEE
libgrpc++_reflection.so.1:_ZN6google8protobuf2io9Tokenizer22TryConsumeCommentStartEv
libgrpc++_reflection.so.1:_ZN6google8protobuf2io9Tokenizer4NextEv
libgrpc++_reflection.so.1:_ZN6google8protobuf2io9Tokenizer7RefreshEv
libgrpc++_reflection.so.1:_ZN6google8protobuf2io9Tokenizer8NextCharEv
libgrpc++_reflection.so.1:_ZN6google8protobuf2io9TokenizerC1EPNS1_19ZeroCopyInputStreamEPNS1_14ErrorCollectorE
libgrpc++_reflection.so.1:_ZN6google8protobuf2io9TokenizerC2EPNS1_19ZeroCopyInputStreamEPNS1_14ErrorCollectorE
libgrpc++_reflection.so.1:_ZN6google8protobuf2io9TokenizerD1Ev
libgrpc++_reflection.so.1:_ZN6google8protobuf2io9TokenizerD2Ev
libgrpc++_reflection.so.1:_ZN6google8protobuf30DescriptorProto_ExtensionRange12InternalSwapEPS1_
libgrpc++_reflection.so.1:_ZN6google8protobuf30DescriptorProto_ExtensionRange13HasBitSetters7optionsEPKS1_
libgrpc++_reflection.so.1:_ZN6google8protobuf30DescriptorProto_ExtensionRange15UnsafeArenaSwapEPS1_
libgrpc++_reflection.so.1:_ZN6google8protobuf30DescriptorProto_ExtensionRange16default_instanceEv
libgrpc++_reflection.so.1:_ZN6google8protobuf30DescriptorProto_ExtensionRange21InitAsDefaultInstanceEv
libgrpc++_reflection.so.1:_ZN6google8protobuf30DescriptorProto_ExtensionRange27MergePartialFromCodedStreamEPNS0_2io16CodedInputStreamE
libgrpc++_reflection.so.1:_ZN6google8protobuf30DescriptorProto_ExtensionRange34unsafe_arena_set_allocated_optionsEPNS0_21ExtensionRangeOptionsE
libgrpc++_reflection.so.1:_ZN6google8protobuf30DescriptorProto_ExtensionRange4SwapEPS1_
libgrpc++_reflection.so.1:_ZN6google8protobuf30DescriptorProto_ExtensionRange5ClearEv
libgrpc++_reflection.so.1:_ZN6google8protobuf30DescriptorProto_ExtensionRange8CopyFromERKNS0_7MessageE
libgrpc++_reflection.so.1:_ZN6google8protobuf30DescriptorProto_ExtensionRange8CopyFromERKS1_
libgrpc++_reflection.so.1:_ZN6google8protobuf30DescriptorProto_ExtensionRange9ArenaDtorEPv
libgrpc++_reflection.so.1:_ZN6google8protobuf30DescriptorProto_ExtensionRange9MergeFromERKNS0_7MessageE
libgrpc++_reflection.so.1:_ZN6google8protobuf30DescriptorProto_ExtensionRange9MergeFromERKS1_
libgrpc++_reflection.so.1:_ZN6google8protobuf30DescriptorProto_ExtensionRangeC1EPNS0_5ArenaE
libgrpc++_reflection.so.1:_ZN6google8protobuf30DescriptorProto_ExtensionRangeC1ERKS1_
libgrpc++_reflection.so.1:_ZN6google8protobuf30DescriptorProto_ExtensionRangeC1Ev
libgrpc++_reflection.so.1:_ZN6google8protobuf30DescriptorProto_ExtensionRangeC2EPNS0_5ArenaE
libgrpc++_reflection.so.1:_ZN6google8protobuf30DescriptorProto_ExtensionRangeC2ERKS1_
libgrpc++_reflection.so.1:_ZN6google8protobuf30DescriptorProto_ExtensionRangeC2Ev
libgrpc++_reflection.so.1:_ZN6google8protobuf30DescriptorProto_ExtensionRangeD0Ev
libgrpc++_reflection.so.1:_ZN6google8protobuf30DescriptorProto_ExtensionRangeD1Ev
libgrpc++_reflection.so.1:_ZN6google8protobuf30DescriptorProto_ExtensionRangeD2Ev
libgrpc++_reflection.so.1:_ZN6google8protobuf30FieldOptions_JSType_descriptorEv
libgrpc++_reflection.so.1:_ZN6google8protobuf30WebSafeBase64EscapeWithPaddingENS0_11StringPieceEPNSt7__cxx1112basic_stringIcSt11char_traitsIcESaIcEEE
libgrpc++_reflection.so.1:_ZN6google8protobuf32FileOptions_OptimizeMode_IsValidEi
libgrpc++_reflection.so.1:_ZN6google8protobuf33FieldDescriptorProto_Type_IsValidEi
libgrpc++_reflection.so.1:_ZN6google8protobuf34FieldDescriptorProto_Label_IsValidEi
libgrpc++_reflection.so.1:_ZN6google8protobuf35FileOptions_OptimizeMode_descriptorEv
libgrpc++_reflection.so.1:_ZN6google8protobuf36FieldDescriptorProto_Type_descriptorEv
libgrpc++_reflection.so.1:_ZN6google8protobuf37EnumDescriptorProto_EnumReservedRange12InternalSwapEPS1_
libgrpc++_reflection.so.1:_ZN6google8protobuf37EnumDescriptorProto_EnumReservedRange15UnsafeArenaSwapEPS1_
libgrpc++_reflection.so.1:_ZN6google8protobuf37EnumDescriptorProto_EnumReservedRange16default_instanceEv
libgrpc++_reflection.so.1:_ZN6google8protobuf37EnumDescriptorProto_EnumReservedRange21InitAsDefaultInstanceEv
libgrpc++_reflection.so.1:_ZN6google8protobuf37EnumDescriptorProto_EnumReservedRange27MergePartialFromCodedStreamEPNS0_2io16CodedInputStreamE
libgrpc++_reflection.so.1:_ZN6google8protobuf37EnumDescriptorProto_EnumReservedRange4SwapEPS1_
libgrpc++_reflection.so.1:_ZN6google8protobuf37EnumDescriptorProto_EnumReservedRange5ClearEv
libgrpc++_reflection.so.1:_ZN6google8protobuf37EnumDescriptorProto_EnumReservedRange8CopyFromERKNS0_7MessageE
libgrpc++_reflection.so.1:_ZN6google8protobuf37EnumDescriptorProto_EnumReservedRange8CopyFromERKS1_
libgrpc++_reflection.so.1:_ZN6google8protobuf37EnumDescriptorProto_EnumReservedRange9ArenaDtorEPv
libgrpc++_reflection.so.1:_ZN6google8protobuf37EnumDescriptorProto_EnumReservedRange9MergeFromERKNS0_7MessageE
libgrpc++_reflection.so.1:_ZN6google8protobuf37EnumDescriptorProto_EnumReservedRange9MergeFromERKS1_
libgrpc++_reflection.so.1:_ZN6google8protobuf37EnumDescriptorProto_EnumReservedRangeC1EPNS0_5ArenaE
libgrpc++_reflection.so.1:_ZN6google8protobuf37EnumDescriptorProto_EnumReservedRangeC1ERKS1_
libgrpc++_reflection.so.1:_ZN6google8protobuf37EnumDescriptorProto_EnumReservedRangeC1Ev
libgrpc++_reflection.so.1:_ZN6google8protobuf37EnumDescriptorProto_EnumReservedRangeC2EPNS0_5ArenaE
libgrpc++_reflection.so.1:_ZN6google8protobuf37EnumDescriptorProto_EnumReservedRangeC2ERKS1_
libgrpc++_reflection.so.1:_ZN6google8protobuf37EnumDescriptorProto_EnumReservedRangeC2Ev
libgrpc++_reflection.so.1:_ZN6google8protobuf37EnumDescriptorProto_EnumReservedRangeD0Ev
libgrpc++_reflection.so.1:_ZN6google8protobuf37EnumDescriptorProto_EnumReservedRangeD1Ev
libgrpc++_reflection.so.1:_ZN6google8protobuf37EnumDescriptorProto_EnumReservedRangeD2Ev
libgrpc++_reflection.so.1:_ZN6google8protobuf37FieldDescriptorProto_Label_descriptorEv
libgrpc++_reflection.so.1:_ZN6google8protobuf38MethodOptions_IdempotencyLevel_IsValidEi
libgrpc++_reflection.so.1:_ZN6google8protobuf41MethodOptions_IdempotencyLevel_descriptorEv
libgrpc++_reflection.so.1:_ZN6google8protobuf4util6StatusC1ENS1_5error4CodeENS0_11StringPieceE
libgrpc++_reflection.so.1:_ZN6google8protobuf4util6StatusC1ERKS2_
libgrpc++_reflection.so.1:_ZN6google8protobuf4util6StatusC1Ev
libgrpc++_reflection.so.1:_ZN6google8protobuf4util6StatusC2ENS1_5error4CodeENS0_11StringPieceE
libgrpc++_reflection.so.1:_ZN6google8protobuf4util6StatusC2ERKS2_
libgrpc++_reflection.so.1:_ZN6google8protobuf4util6StatusC2Ev
libgrpc++_reflection.so.1:_ZN6google8protobuf4util6StatusaSERKS2_
libgrpc++_reflection.so.1:_ZN6google8protobuf4utillsERSoRKNS1_6StatusE
libgrpc++_reflection.so.1:_ZN6google8protobuf5Arena18CreateMaybeMessageIN4grpc10reflection7v1alpha13ErrorResponseEJEEEPT_PS1_DpOT0_
libgrpc++_reflection.so.1:_ZN6google8protobuf5Arena18CreateMaybeMessageIN4grpc10reflection7v1alpha15ServiceResponseEJEEEPT_PS1_DpOT0_
libgrpc++_reflection.so.1:_ZN6google8protobuf5Arena18CreateMaybeMessageIN4grpc10reflection7v1alpha16ExtensionRequestEJEEEPT_PS1_DpOT0_
libgrpc++_reflection.so.1:_ZN6google8protobuf5Arena18CreateMaybeMessageIN4grpc10reflection7v1alpha19ListServiceResponseEJEEEPT_PS1_DpOT0_
libgrpc++_reflection.so.1:_ZN6google8protobuf5Arena18CreateMaybeMessageIN4grpc10reflection7v1alpha22FileDescriptorResponseEJEEEPT_PS1_DpOT0_
libgrpc++_reflection.so.1:_ZN6google8protobuf5Arena18CreateMaybeMessageIN4grpc10reflection7v1alpha23ExtensionNumberResponseEJEEEPT_PS1_DpOT0_
libgrpc++_reflection.so.1:_ZN6google8protobuf5Arena18CreateMaybeMessageIN4grpc10reflection7v1alpha23ServerReflectionRequestEJEEEPT_PS1_DpOT0_
libgrpc++_reflection.so.1:_ZN6google8protobuf5Arena18CreateMaybeMessageIN4grpc10reflection7v1alpha24ServerReflectionResponseEJEEEPT_PS1_DpOT0_
libgrpc++_reflection.so.1:_ZN6google8protobuf5Arena18CreateMaybeMessageINS0_11EnumOptionsEJEEEPT_PS1_DpOT0_
libgrpc++_reflection.so.1:_ZN6google8protobuf5Arena18CreateMaybeMessageINS0_11FileOptionsEJEEEPT_PS1_DpOT0_
libgrpc++_reflection.so.1:_ZN6google8protobuf5Arena18CreateMaybeMessageINS0_12FieldOptionsEJEEEPT_PS1_DpOT0_
libgrpc++_reflection.so.1:_ZN6google8protobuf5Arena18CreateMaybeMessageINS0_12OneofOptionsEJEEEPT_PS1_DpOT0_
libgrpc++_reflection.so.1:_ZN6google8protobuf5Arena18CreateMaybeMessageINS0_13MethodOptionsEJEEEPT_PS1_DpOT0_
libgrpc++_reflection.so.1:_ZN6google8protobuf5Arena18CreateMaybeMessageINS0_14MessageOptionsEJEEEPT_PS1_DpOT0_
libgrpc++_reflection.so.1:_ZN6google8protobuf5Arena18CreateMaybeMessageINS0_14ServiceOptionsEJEEEPT_PS1_DpOT0_
libgrpc++_reflection.so.1:_ZN6google8protobuf5Arena18CreateMaybeMessageINS0_14SourceCodeInfoEJEEEPT_PS1_DpOT0_
libgrpc++_reflection.so.1:_ZN6google8protobuf5Arena18CreateMaybeMessageINS0_15DescriptorProtoEJEEEPT_PS1_DpOT0_
libgrpc++_reflection.so.1:_ZN6google8protobuf5Arena18CreateMaybeMessageINS0_16EnumValueOptionsEJEEEPT_PS1_DpOT0_
libgrpc++_reflection.so.1:_ZN6google8protobuf5Arena18CreateMaybeMessageINS0_17FileDescriptorSetEJEEEPT_PS1_DpOT0_
libgrpc++_reflection.so.1:_ZN6google8protobuf5Arena18CreateMaybeMessageINS0_17GeneratedCodeInfoEJEEEPT_PS1_DpOT0_
libgrpc++_reflection.so.1:_ZN6google8protobuf5Arena18CreateMaybeMessageINS0_19EnumDescriptorProtoEJEEEPT_PS1_DpOT0_
libgrpc++_reflection.so.1:_ZN6google8protobuf5Arena18CreateMaybeMessageINS0_19FileDescriptorProtoEJEEEPT_PS1_DpOT0_
libgrpc++_reflection.so.1:_ZN6google8protobuf5Arena18CreateMaybeMessageINS0_19UninterpretedOptionEJEEEPT_PS1_DpOT0_
libgrpc++_reflection.so.1:_ZN6google8protobuf5Arena18CreateMaybeMessageINS0_20FieldDescriptorProtoEJEEEPT_PS1_DpOT0_
libgrpc++_reflection.so.1:_ZN6google8protobuf5Arena18CreateMaybeMessageINS0_20OneofDescriptorProtoEJEEEPT_PS1_DpOT0_
libgrpc++_reflection.so.1:_ZN6google8protobuf5Arena18CreateMaybeMessageINS0_21ExtensionRangeOptionsEJEEEPT_PS1_DpOT0_
libgrpc++_reflection.so.1:_ZN6google8protobuf5Arena18CreateMaybeMessageINS0_21MethodDescriptorProtoEJEEEPT_PS1_DpOT0_
libgrpc++_reflection.so.1:_ZN6google8protobuf5Arena18CreateMaybeMessageINS0_22ServiceDescriptorProtoEJEEEPT_PS1_DpOT0_
libgrpc++_reflection.so.1:_ZN6google8protobuf5Arena18CreateMaybeMessageINS0_23SourceCodeInfo_LocationEJEEEPT_PS1_DpOT0_
libgrpc++_reflection.so.1:_ZN6google8protobuf5Arena18CreateMaybeMessageINS0_24EnumValueDescriptorProtoEJEEEPT_PS1_DpOT0_
libgrpc++_reflection.so.1:_ZN6google8protobuf5Arena18CreateMaybeMessageINS0_28GeneratedCodeInfo_AnnotationEJEEEPT_PS1_DpOT0_
libgrpc++_reflection.so.1:_ZN6google8protobuf5Arena18CreateMaybeMessageINS0_28UninterpretedOption_NamePartEJEEEPT_PS1_DpOT0_
libgrpc++_reflection.so.1:_ZN6google8protobuf5Arena18CreateMaybeMessageINS0_29DescriptorProto_ReservedRangeEJEEEPT_PS1_DpOT0_
libgrpc++_reflection.so.1:_ZN6google8protobuf5Arena18CreateMaybeMessageINS0_30DescriptorProto_ExtensionRangeEJEEEPT_PS1_DpOT0_
libgrpc++_reflection.so.1:_ZN6google8protobuf5Arena18CreateMaybeMessageINS0_37EnumDescriptorProto_EnumReservedRangeEJEEEPT_PS1_DpOT0_
libgrpc++_reflection.so.1:_ZN6google8protobuf5Arena19CallDestructorHooksEv
libgrpc++_reflection.so.1:_ZN6google8protobuf6StrCatB5cxx11ERKNS0_7strings8AlphaNumES4_
libgrpc++_reflection.so.1:_ZN6google8protobuf6StrCatB5cxx11ERKNS0_7strings8AlphaNumES4_S4_
libgrpc++_reflection.so.1:_ZN6google8protobuf6StrCatB5cxx11ERKNS0_7strings8AlphaNumES4_S4_S4_
libgrpc++_reflection.so.1:_ZN6google8protobuf6StrCatB5cxx11ERKNS0_7strings8AlphaNumES4_S4_S4_S4_
libgrpc++_reflection.so.1:_ZN6google8protobuf6StrCatB5cxx11ERKNS0_7strings8AlphaNumES4_S4_S4_S4_S4_
libgrpc++_reflection.so.1:_ZN6google8protobuf6StrCatB5cxx11ERKNS0_7strings8AlphaNumES4_S4_S4_S4_S4_S4_
libgrpc++_reflection.so.1:_ZN6google8protobuf6StrCatB5cxx11ERKNS0_7strings8AlphaNumES4_S4_S4_S4_S4_S4_S4_
libgrpc++_reflection.so.1:_ZN6google8protobuf6StrCatB5cxx11ERKNS0_7strings8AlphaNumES4_S4_S4_S4_S4_S4_S4_S4_
libgrpc++_reflection.so.1:_ZN6google8protobuf6ghtonlEj
libgrpc++_reflection.so.1:_ZN6google8protobuf7CEscapeERKNSt7__cxx1112basic_stringIcSt11char_traitsIcESaIcEEE
libgrpc++_reflection.so.1:_ZN6google8protobuf7ClosureD0Ev
libgrpc++_reflection.so.1:_ZN6google8protobuf7ClosureD1Ev
libgrpc++_reflection.so.1:_ZN6google8protobuf7ClosureD2Ev
libgrpc++_reflection.so.1:_ZN6google8protobuf7Message16ParseFromIstreamEPSi
libgrpc++_reflection.so.1:_ZN6google8protobuf7Message20DiscardUnknownFieldsEv
libgrpc++_reflection.so.1:_ZN6google8protobuf7Message21CheckTypeAndMergeFromERKNS0_11MessageLiteE
libgrpc++_reflection.so.1:_ZN6google8protobuf7Message23ParseFromFileDescriptorEi
libgrpc++_reflection.so.1:_ZN6google8protobuf7Message23ParsePartialFromIstreamEPSi
libgrpc++_reflection.so.1:_ZN6google8protobuf7Message27MergePartialFromCodedStreamEPNS0_2io16CodedInputStreamE
libgrpc++_reflection.so.1:_ZN6google8protobuf7Message30ParsePartialFromFileDescriptorEi
libgrpc++_reflection.so.1:_ZN6google8protobuf7Message5ClearEv
libgrpc++_reflection.so.1:_ZN6google8protobuf7Message8CopyFromERKS1_
libgrpc++_reflection.so.1:_ZN6google8protobuf7Message9MergeFromERKS1_
libgrpc++_reflection.so.1:_ZN6google8protobuf7strings10CHexEscapeERKNSt7__cxx1112basic_stringIcSt11char_traitsIcESaIcEEE
libgrpc++_reflection.so.1:_ZN6google8protobuf7strings10SubstituteB5cxx11EPKcRKNS1_8internal13SubstituteArgES7_S7_S7_S7_S7_S7_S7_S7_S7_
libgrpc++_reflection.so.1:_ZN6google8protobuf7strings15Utf8SafeCEscapeERKNSt7__cxx1112basic_stringIcSt11char_traitsIcESaIcEEE
libgrpc++_reflection.so.1:_ZN6google8protobuf7strings19SubstituteAndAppendEPNSt7__cxx1112basic_stringIcSt11char_traitsIcESaIcEEEPKcRKNS1_8internal13SubstituteArgESE_SE_SE_SE_SE_SE_SE_SE_SE_
libgrpc++_reflection.so.1:_ZN6google8protobuf7strings8AlphaNumC1ENS1_3HexE
libgrpc++_reflection.so.1:_ZN6google8protobuf7strings8AlphaNumC2ENS1_3HexE
libgrpc++_reflection.so.1:_ZN6google8protobuf7uint12810DivModImplES1_S1_PS1_S2_
libgrpc++_reflection.so.1:_ZN6google8protobuf7uint128dVERKS1_
libgrpc++_reflection.so.1:_ZN6google8protobuf7uint128rMERKS1_
libgrpc++_reflection.so.1:_ZN6google8protobuf8internal10GetTypeUrlB5cxx11ENS0_11StringPieceES2_
libgrpc++_reflection.so.1:_ZN6google8protobuf8internal10LogMessage6FinishEv
libgrpc++_reflection.so.1:_ZN6google8protobuf8internal10LogMessageC1ENS0_8LogLevelEPKci
libgrpc++_reflection.so.1:_ZN6google8protobuf8internal10LogMessageC2ENS0_8LogLevelEPKci
libgrpc++_reflection.so.1:_ZN6google8protobuf8internal10LogMessageD1Ev
libgrpc++_reflection.so.1:_ZN6google8protobuf8internal10LogMessageD2Ev
libgrpc++_reflection.so.1:_ZN6google8protobuf8internal10LogMessagelsEPKc
libgrpc++_reflection.so.1:_ZN6google8protobuf8internal10LogMessagelsEPv
libgrpc++_reflection.so.1:_ZN6google8protobuf8internal10LogMessagelsERKNS0_11StringPieceE
libgrpc++_reflection.so.1:_ZN6google8protobuf8internal10LogMessagelsERKNS0_4util6StatusE
libgrpc++_reflection.so.1:_ZN6google8protobuf8internal10LogMessagelsERKNS0_7uint128E
libgrpc++_reflection.so.1:_ZN6google8protobuf8internal10LogMessagelsERKNSt7__cxx1112basic_stringIcSt11char_traitsIcESaIcEEE
libgrpc++_reflection.so.1:_ZN6google8protobuf8internal10LogMessagelsEc
libgrpc++_reflection.so.1:_ZN6google8protobuf8internal10LogMessagelsEd
libgrpc++_reflection.so.1:_ZN6google8protobuf8internal10LogMessagelsEi
libgrpc++_reflection.so.1:_ZN6google8protobuf8internal10LogMessagelsEj
libgrpc++_reflection.so.1:_ZN6google8protobuf8internal10LogMessagelsEl
libgrpc++_reflection.so.1:_ZN6google8protobuf8internal10LogMessagelsEm
libgrpc++_reflection.so.1:_ZN6google8protobuf8internal10LogMessagelsEx
libgrpc++_reflection.so.1:_ZN6google8protobuf8internal10LogMessagelsEy
libgrpc++_reflection.so.1:_ZN6google8protobuf8internal10NameOfEnumB5cxx11EPKNS0_14EnumDescriptorEi
libgrpc++_reflection.so.1:_ZN6google8protobuf8internal10OnShutdownEPFvvE
libgrpc++_reflection.so.1:_ZN6google8protobuf8internal10WireFormat11SkipMessageEPNS0_2io16CodedInputStreamEPNS0_15UnknownFieldSetE
libgrpc++_reflection.so.1:_ZN6google8protobuf8internal10WireFormat13FieldByteSizeEPKNS0_15FieldDescriptorERKNS0_7MessageE
libgrpc++_reflection.so.1:_ZN6google8protobuf8internal10WireFormat18ParseAndMergeFieldEjPKNS0_15FieldDescriptorEPNS0_7MessageEPNS0_2io16CodedInputStreamE
libgrpc++_reflection.so.1:_ZN6google8protobuf8internal10WireFormat19SkipMessageSetFieldEPNS0_2io16CodedInputStreamEjPNS0_15UnknownFieldSetE
libgrpc++_reflection.so.1:_ZN6google8protobuf8internal10WireFormat20ParseAndMergePartialEPNS0_2io16CodedInputStreamEPNS0_7MessageE
libgrpc++_reflection.so.1:_ZN6google8protobuf8internal10WireFormat21FieldDataOnlyByteSizeEPKNS0_15FieldDescriptorERKNS0_7MessageE
libgrpc++_reflection.so.1:_ZN6google8protobuf8internal10WireFormat22MessageSetItemByteSizeEPKNS0_15FieldDescriptorERKNS0_7MessageE
libgrpc++_reflection.so.1:_ZN6google8protobuf8internal10WireFormat22SerializeUnknownFieldsERKNS0_15UnknownFieldSetEPNS0_2io17CodedOutputStreamE
libgrpc++_reflection.so.1:_ZN6google8protobuf8internal10WireFormat24ComputeUnknownFieldsSizeERKNS0_15UnknownFieldSetE
libgrpc++_reflection.so.1:_ZN6google8protobuf8internal10WireFormat24SerializeWithCachedSizesERKNS0_7MessageEiPNS0_2io17CodedOutputStreamE
libgrpc++_reflection.so.1:_ZN6google8protobuf8internal10WireFormat27ParseAndMergeMessageSetItemEPNS0_2io16CodedInputStreamEPNS0_7MessageE
libgrpc++_reflection.so.1:_ZN6google8protobuf8internal10WireFormat28ParseAndMergeMessageSetFieldEjPKNS0_15FieldDescriptorEPNS0_7MessageEPNS0_2io16CodedInputStreamE
libgrpc++_reflection.so.1:_ZN6google8protobuf8internal10WireFormat29SerializeFieldWithCachedSizesEPKNS0_15FieldDescriptorERKNS0_7MessageEPNS0_2io17CodedOutputStreamE
libgrpc++_reflection.so.1:_ZN6google8protobuf8internal10WireFormat29SerializeUnknownFieldsToArrayERKNS0_15UnknownFieldSetEPh
libgrpc++_reflection.so.1:_ZN6google8protobuf8internal10WireFormat30ReadPackedEnumPreserveUnknownsEPNS0_2io16CodedInputStreamEjPFbiEPNS0_15UnknownFieldSetEPNS0_13RepeatedFieldIiEE
libgrpc++_reflection.so.1:_ZN6google8protobuf8internal10WireFormat31SerializeUnknownMessageSetItemsERKNS0_15UnknownFieldSetEPNS0_2io17CodedOutputStreamE
libgrpc++_reflection.so.1:_ZN6google8protobuf8internal10WireFormat33ComputeUnknownMessageSetItemsSizeERKNS0_15UnknownFieldSetE
libgrpc++_reflection.so.1:_ZN6google8protobuf8internal10WireFormat38SerializeMessageSetItemWithCachedSizesEPKNS0_15FieldDescriptorERKNS0_7MessageEPNS0_2io17CodedOutputStreamE
libgrpc++_reflection.so.1:_ZN6google8protobuf8internal10WireFormat38SerializeUnknownMessageSetItemsToArrayERKNS0_15UnknownFieldSetEPh
libgrpc++_reflection.so.1:_ZN6google8protobuf8internal10WireFormat8ByteSizeERKNS0_7MessageE
libgrpc++_reflection.so.1:_ZN6google8protobuf8internal10WireFormat9SkipFieldEPNS0_2io16CodedInputStreamEjPNS0_15UnknownFieldSetE
libgrpc++_reflection.so.1:_ZN6google8protobuf8internal11AnyMetadata16InternalPackFromERKNS0_11MessageLiteENS0_11StringPieceES6_
libgrpc++_reflection.so.1:_ZN6google8protobuf8internal11AnyMetadata8PackFromERKNS0_7MessageE
libgrpc++_reflection.so.1:_ZN6google8protobuf8internal11AnyMetadata8PackFromERKNS0_7MessageERKNSt7__cxx1112basic_stringIcSt11char_traitsIcESaIcEEE
libgrpc++_reflection.so.1:_ZN6google8protobuf8internal11AnyMetadataC1EPNS1_14ArenaStringPtrES4_
libgrpc++_reflection.so.1:_ZN6google8protobuf8internal11AnyMetadataC2EPNS1_14ArenaStringPtrES4_
libgrpc++_reflection.so.1:_ZN6google8protobuf8internal11InitSCCImplEPNS1_11SCCInfoBaseE
libgrpc++_reflection.so.1:_ZN6google8protobuf8internal11LogFinisheraSERNS1_10LogMessageE
libgrpc++_reflection.so.1:_ZN6google8protobuf8internal12ExtensionSet10AddMessageEPKNS0_15FieldDescriptorEPNS0_14MessageFactoryE
libgrpc++_reflection.so.1:_ZN6google8protobuf8internal12ExtensionSet10AddMessageEihRKNS0_11MessageLiteEPKNS0_15FieldDescriptorE
libgrpc++_reflection.so.1:_ZN6google8protobuf8internal12ExtensionSet10FindOrNullEi
libgrpc++_reflection.so.1:_ZN6google8protobuf8internal12ExtensionSet10ParseFieldEjPNS0_2io16CodedInputStreamEPKNS0_11MessageLiteE
libgrpc++_reflection.so.1:_ZN6google8protobuf8internal12ExtensionSet10ParseFieldEjPNS0_2io16CodedInputStreamEPKNS0_11MessageLiteEPNS3_17CodedOutputStreamE
libgrpc++_reflection.so.1:_ZN6google8protobuf8internal12ExtensionSet10ParseFieldEjPNS0_2io16CodedInputStreamEPKNS0_7MessageEPNS0_15UnknownFieldSetE
libgrpc++_reflection.so.1:_ZN6google8protobuf8internal12ExtensionSet10ParseFieldEjPNS0_2io16CodedInputStreamEPNS1_15ExtensionFinderEPNS1_12FieldSkipperE
libgrpc++_reflection.so.1:_ZN6google8protobuf8internal12ExtensionSet10RemoveLastEi
libgrpc++_reflection.so.1:_ZN6google8protobuf8internal12ExtensionSet11ReleaseLastEi
libgrpc++_reflection.so.1:_ZN6google8protobuf8internal12ExtensionSet12GrowCapacityEm
libgrpc++_reflection.so.1:_ZN6google8protobuf8internal12ExtensionSet12SwapElementsEiii
libgrpc++_reflection.so.1:_ZN6google8protobuf8internal12ExtensionSet13DeleteFlatMapEPKNS2_8KeyValueEt
libgrpc++_reflection.so.1:_ZN6google8protobuf8internal12ExtensionSet13MutableStringB5cxx11EihPKNS0_15FieldDescriptorE
libgrpc++_reflection.so.1:_ZN6google8protobuf8internal12ExtensionSet13SwapExtensionEPS2_i
libgrpc++_reflection.so.1:_ZN6google8protobuf8internal12ExtensionSet14ClearExtensionEi
libgrpc++_reflection.so.1:_ZN6google8protobuf8internal12ExtensionSet14MutableMessageEPKNS0_15FieldDescriptorEPNS0_14MessageFactoryE
libgrpc++_reflection.so.1:_ZN6google8protobuf8internal12ExtensionSet14MutableMessageEihRKNS0_11MessageLiteEPKNS0_15FieldDescriptorE
libgrpc++_reflection.so.1:_ZN6google8protobuf8internal12ExtensionSet14ReleaseMessageEPKNS0_15FieldDescriptorEPNS0_14MessageFactoryE
libgrpc++_reflection.so.1:_ZN6google8protobuf8internal12ExtensionSet14ReleaseMessageEiRKNS0_11MessageLiteE
libgrpc++_reflection.so.1:_ZN6google8protobuf8internal12ExtensionSet15ParseMessageSetEPNS0_2io16CodedInputStreamEPKNS0_11MessageLiteEPNSt7__cxx1112basic_stringIcSt11char_traitsIcESaIcEEE
libgrpc++_reflection.so.1:_ZN6google8protobuf8internal12ExtensionSet15ParseMessageSetEPNS0_2io16CodedInputStreamEPKNS0_7MessageEPNS0_15UnknownFieldSetE
libgrpc++_reflection.so.1:_ZN6google8protobuf8internal12ExtensionSet15ParseMessageSetEPNS0_2io16CodedInputStreamEPNS1_15ExtensionFinderEPNS1_22MessageSetFieldSkipperE
libgrpc++_reflection.so.1:_ZN6google8protobuf8internal12ExtensionSet15SetRepeatedBoolEiib
libgrpc++_reflection.so.1:_ZN6google8protobuf8internal12ExtensionSet15SetRepeatedEnumEiii
libgrpc++_reflection.so.1:_ZN6google8protobuf8internal12ExtensionSet16SetRepeatedFloatEiif
libgrpc++_reflection.so.1:_ZN6google8protobuf8internal12ExtensionSet16SetRepeatedInt32Eiii
libgrpc++_reflection.so.1:_ZN6google8protobuf8internal12ExtensionSet16SetRepeatedInt64Eiil
libgrpc++_reflection.so.1:_ZN6google8protobuf8internal12ExtensionSet17MaybeNewExtensionEiPKNS0_15FieldDescriptorEPPNS2_9ExtensionE
libgrpc++_reflection.so.1:_ZN6google8protobuf8internal12ExtensionSet17RegisterExtensionEPKNS0_11MessageLiteEihbb
libgrpc++_reflection.so.1:_ZN6google8protobuf8internal12ExtensionSet17SetRepeatedDoubleEiid
libgrpc++_reflection.so.1:_ZN6google8protobuf8internal12ExtensionSet17SetRepeatedUInt32Eiij
libgrpc++_reflection.so.1:_ZN6google8protobuf8internal12ExtensionSet17SetRepeatedUInt64Eiim
libgrpc++_reflection.so.1:_ZN6google8protobuf8internal12ExtensionSet19AddAllocatedMessageEPKNS0_15FieldDescriptorEPNS0_11MessageLiteE
libgrpc++_reflection.so.1:_ZN6google8protobuf8internal12ExtensionSet19ParseMessageSetItemEPNS0_2io16CodedInputStreamEPNS1_15ExtensionFinderEPNS1_22MessageSetFieldSkipperE
libgrpc++_reflection.so.1:_ZN6google8protobuf8internal12ExtensionSet19ParseMessageSetLiteEPNS0_2io16CodedInputStreamEPNS1_15ExtensionFinderEPNS1_12FieldSkipperE
libgrpc++_reflection.so.1:_ZN6google8protobuf8internal12ExtensionSet19SetAllocatedMessageEihPKNS0_15FieldDescriptorEPNS0_11MessageLiteE
libgrpc++_reflection.so.1:_ZN6google8protobuf8internal12ExtensionSet20FindOrNullInLargeMapEi
libgrpc++_reflection.so.1:_ZN6google8protobuf8internal12ExtensionSet20LazyMessageExtension15UnusedKeyMethodEv
libgrpc++_reflection.so.1:_ZN6google8protobuf8internal12ExtensionSet21MutableRepeatedStringB5cxx11Eii
libgrpc++_reflection.so.1:_ZN6google8protobuf8internal12ExtensionSet21ParseFieldMaybeLazilyEiiPNS0_2io16CodedInputStreamEPNS1_15ExtensionFinderEPNS1_22MessageSetFieldSkipperE
libgrpc++_reflection.so.1:_ZN6google8protobuf8internal12ExtensionSet21RegisterEnumExtensionEPKNS0_11MessageLiteEihbbPFbiE
libgrpc++_reflection.so.1:_ZN6google8protobuf8internal12ExtensionSet22MutableRepeatedMessageEii
libgrpc++_reflection.so.1:_ZN6google8protobuf8internal12ExtensionSet23MutableRawRepeatedFieldEi
libgrpc++_reflection.so.1:_ZN6google8protobuf8internal12ExtensionSet23MutableRawRepeatedFieldEihbPKNS0_15FieldDescriptorE
libgrpc++_reflection.so.1:_ZN6google8protobuf8internal12ExtensionSet23ParseMessageSetItemLiteEPNS0_2io16CodedInputStreamEPNS1_15ExtensionFinderEPNS1_12FieldSkipperE
libgrpc++_reflection.so.1:_ZN6google8protobuf8internal12ExtensionSet24FindExtensionInfoFromTagEjPNS1_15ExtensionFinderEPiPNS1_13ExtensionInfoEPb
libgrpc++_reflection.so.1:_ZN6google8protobuf8internal12ExtensionSet24RegisterMessageExtensionEPKNS0_11MessageLiteEihbbS5_
libgrpc++_reflection.so.1:_ZN6google8protobuf8internal12ExtensionSet25MaybeNewRepeatedExtensionEPKNS0_15FieldDescriptorE
libgrpc++_reflection.so.1:_ZN6google8protobuf8internal12ExtensionSet25UnsafeArenaReleaseMessageEPKNS0_15FieldDescriptorEPNS0_14MessageFactoryE
libgrpc++_reflection.so.1:_ZN6google8protobuf8internal12ExtensionSet25UnsafeArenaReleaseMessageEiRKNS0_11MessageLiteE
libgrpc++_reflection.so.1:_ZN6google8protobuf8internal12ExtensionSet26InternalExtensionMergeFromEiRKNS2_9ExtensionE
libgrpc++_reflection.so.1:_ZN6google8protobuf8internal12ExtensionSet27ParseFieldWithExtensionInfoEibRKNS1_13ExtensionInfoEPNS0_2io16CodedInputStreamEPNS1_12FieldSkipperE
libgrpc++_reflection.so.1:_ZN6google8protobuf8internal12ExtensionSet30UnsafeArenaSetAllocatedMessageEihPKNS0_15FieldDescriptorEPNS0_11MessageLiteE
libgrpc++_reflection.so.1:_ZN6google8protobuf8internal12ExtensionSet32FindExtensionInfoFromFieldNumberEiiPNS1_15ExtensionFinderEPNS1_13ExtensionInfoEPb
libgrpc++_reflection.so.1:_ZN6google8protobuf8internal12ExtensionSet4SwapEPS2_
libgrpc++_reflection.so.1:_ZN6google8protobuf8internal12ExtensionSet5ClearEv
libgrpc++_reflection.so.1:_ZN6google8protobuf8internal12ExtensionSet5EraseEi
libgrpc++_reflection.so.1:_ZN6google8protobuf8internal12ExtensionSet6InsertEi
libgrpc++_reflection.so.1:_ZN6google8protobuf8internal12ExtensionSet7AddBoolEihbbPKNS0_15FieldDescriptorE
libgrpc++_reflection.so.1:_ZN6google8protobuf8internal12ExtensionSet7AddEnumEihbiPKNS0_15FieldDescriptorE
libgrpc++_reflection.so.1:_ZN6google8protobuf8internal12ExtensionSet7SetBoolEihbPKNS0_15FieldDescriptorE
libgrpc++_reflection.so.1:_ZN6google8protobuf8internal12ExtensionSet7SetEnumEihiPKNS0_15FieldDescriptorE
libgrpc++_reflection.so.1:_ZN6google8protobuf8internal12ExtensionSet8AddFloatEihbfPKNS0_15FieldDescriptorE
libgrpc++_reflection.so.1:_ZN6google8protobuf8internal12ExtensionSet8AddInt32EihbiPKNS0_15FieldDescriptorE
libgrpc++_reflection.so.1:_ZN6google8protobuf8internal12ExtensionSet8AddInt64EihblPKNS0_15FieldDescriptorE
libgrpc++_reflection.so.1:_ZN6google8protobuf8internal12ExtensionSet8SetFloatEihfPKNS0_15FieldDescriptorE
libgrpc++_reflection.so.1:_ZN6google8protobuf8internal12ExtensionSet8SetInt32EihiPKNS0_15FieldDescriptorE
libgrpc++_reflection.so.1:_ZN6google8protobuf8internal12ExtensionSet8SetInt64EihlPKNS0_15FieldDescriptorE
libgrpc++_reflection.so.1:_ZN6google8protobuf8internal12ExtensionSet9AddDoubleEihbdPKNS0_15FieldDescriptorE
libgrpc++_reflection.so.1:_ZN6google8protobuf8internal12ExtensionSet9AddStringB5cxx11EihPKNS0_15FieldDescriptorE
libgrpc++_reflection.so.1:_ZN6google8protobuf8internal12ExtensionSet9AddUInt32EihbjPKNS0_15FieldDescriptorE
libgrpc++_reflection.so.1:_ZN6google8protobuf8internal12ExtensionSet9AddUInt64EihbmPKNS0_15FieldDescriptorE
libgrpc++_reflection.so.1:_ZN6google8protobuf8internal12ExtensionSet9Extension4FreeEv
libgrpc++_reflection.so.1:_ZN6google8protobuf8internal12ExtensionSet9Extension5ClearEv
libgrpc++_reflection.so.1:_ZN6google8protobuf8internal12ExtensionSet9MergeFromERKS2_
libgrpc++_reflection.so.1:_ZN6google8protobuf8internal12ExtensionSet9SetDoubleEihdPKNS0_15FieldDescriptorE
libgrpc++_reflection.so.1:_ZN6google8protobuf8internal12ExtensionSet9SetUInt32EihjPKNS0_15FieldDescriptorE
libgrpc++_reflection.so.1:_ZN6google8protobuf8internal12ExtensionSet9SetUInt64EihmPKNS0_15FieldDescriptorE
libgrpc++_reflection.so.1:_ZN6google8protobuf8internal12ExtensionSetC1EPNS0_5ArenaE
libgrpc++_reflection.so.1:_ZN6google8protobuf8internal12ExtensionSetC1Ev
libgrpc++_reflection.so.1:_ZN6google8protobuf8internal12ExtensionSetC2EPNS0_5ArenaE
libgrpc++_reflection.so.1:_ZN6google8protobuf8internal12ExtensionSetC2Ev
libgrpc++_reflection.so.1:_ZN6google8protobuf8internal12ExtensionSetD1Ev
libgrpc++_reflection.so.1:_ZN6google8protobuf8internal12ExtensionSetD2Ev
libgrpc++_reflection.so.1:_ZN6google8protobuf8internal12FieldSkipper11SkipMessageEPNS0_2io16CodedInputStreamE
libgrpc++_reflection.so.1:_ZN6google8protobuf8internal12FieldSkipper15SkipUnknownEnumEii
libgrpc++_reflection.so.1:_ZN6google8protobuf8internal12FieldSkipper9SkipFieldEPNS0_2io16CodedInputStreamEj
libgrpc++_reflection.so.1:_ZN6google8protobuf8internal12MapFieldBase11SetMapDirtyEv
libgrpc++_reflection.so.1:_ZN6google8protobuf8internal12MapFieldBase16SetRepeatedDirtyEv
libgrpc++_reflection.so.1:_ZN6google8protobuf8internal12MapFieldBase20MutableRepeatedFieldEv
libgrpc++_reflection.so.1:_ZN6google8protobuf8internal12MapFieldBaseD0Ev
libgrpc++_reflection.so.1:_ZN6google8protobuf8internal12MapFieldBaseD1Ev
libgrpc++_reflection.so.1:_ZN6google8protobuf8internal12MapFieldBaseD2Ev
libgrpc++_reflection.so.1:_ZN6google8protobuf8internal13DestroyStringEPKv
libgrpc++_reflection.so.1:_ZN6google8protobuf8internal13FieldMetadata13CalculateTypeEiNS2_14FieldTypeClassE
libgrpc++_reflection.so.1:_ZN6google8protobuf8internal13OnShutdownRunEPFvPKvES3_
libgrpc++_reflection.so.1:_ZN6google8protobuf8internal13ReflectionOps13IsInitializedERKNS0_7MessageE
libgrpc++_reflection.so.1:_ZN6google8protobuf8internal13ReflectionOps20DiscardUnknownFieldsEPNS0_7MessageE
libgrpc++_reflection.so.1:_ZN6google8protobuf8internal13ReflectionOps24FindInitializationErrorsERKNS0_7MessageERKNSt7__cxx1112basic_stringIcSt11char_traitsIcESaIcEEEPSt6vectorISB_SaISB_EE
libgrpc++_reflection.so.1:_ZN6google8protobuf8internal13ReflectionOps4CopyERKNS0_7MessageEPS3_
libgrpc++_reflection.so.1:_ZN6google8protobuf8internal13ReflectionOps5ClearEPNS0_7MessageE
libgrpc++_reflection.so.1:_ZN6google8protobuf8internal13ReflectionOps5MergeERKNS0_7MessageEPS3_
libgrpc++_reflection.so.1:_ZN6google8protobuf8internal13VerifyVersionEiiPKc
libgrpc++_reflection.so.1:_ZN6google8protobuf8internal13VersionStringB5cxx11Ei
libgrpc++_reflection.so.1:_ZN6google8protobuf8internal14AddDescriptorsEPKNS1_15DescriptorTableE
libgrpc++_reflection.so.1:_ZN6google8protobuf8internal14DestroyMessageEPKv
libgrpc++_reflection.so.1:_ZN6google8protobuf8internal14LazyDescriptor10OnceStaticEPS2_
libgrpc++_reflection.so.1:_ZN6google8protobuf8internal14LazyDescriptor12OnceInternalEv
libgrpc++_reflection.so.1:_ZN6google8protobuf8internal14LazyDescriptor3SetEPKNS0_10DescriptorE
libgrpc++_reflection.so.1:_ZN6google8protobuf8internal14LazyDescriptor4OnceEv
libgrpc++_reflection.so.1:_ZN6google8protobuf8internal14LazyDescriptor7SetLazyERKNSt7__cxx1112basic_stringIcSt11char_traitsIcESaIcEEEPKNS0_14FileDescriptorE
libgrpc++_reflection.so.1:_ZN6google8protobuf8internal14NullLogHandlerENS0_8LogLevelEPKciRKNSt7__cxx1112basic_stringIcSt11char_traitsIcESaIcEEE
libgrpc++_reflection.so.1:_ZN6google8protobuf8internal14ParseNamedEnumEPKNS0_14EnumDescriptorERKNSt7__cxx1112basic_stringIcSt11char_traitsIcESaIcEEEPi
libgrpc++_reflection.so.1:_ZN6google8protobuf8internal14WireFormatLite10SInt32SizeERKNS0_13RepeatedFieldIiEE
libgrpc++_reflection.so.1:_ZN6google8protobuf8internal14WireFormatLite10SInt64SizeERKNS0_13RepeatedFieldIlEE
libgrpc++_reflection.so.1:_ZN6google8protobuf8internal14WireFormatLite10UInt32SizeERKNS0_13RepeatedFieldIjEE
libgrpc++_reflection.so.1:_ZN6google8protobuf8internal14WireFormatLite10UInt64SizeERKNS0_13RepeatedFieldImEE
libgrpc++_reflection.so.1:_ZN6google8protobuf8internal14WireFormatLite10WriteBytesEiRKNSt7__cxx1112basic_stringIcSt11char_traitsIcESaIcEEEPNS0_2io17CodedOutputStreamE
libgrpc++_reflection.so.1:_ZN6google8protobuf8internal14WireFormatLite10WriteFloatEifPNS0_2io17CodedOutputStreamE
libgrpc++_reflection.so.1:_ZN6google8protobuf8internal14WireFormatLite10WriteGroupEiRKNS0_11MessageLiteEPNS0_2io17CodedOutputStreamE
libgrpc++_reflection.so.1:_ZN6google8protobuf8internal14WireFormatLite10WriteInt32EiiPNS0_2io17CodedOutputStreamE
libgrpc++_reflection.so.1:_ZN6google8protobuf8internal14WireFormatLite10WriteInt64EilPNS0_2io17CodedOutputStreamE
libgrpc++_reflection.so.1:_ZN6google8protobuf8internal14WireFormatLite11SkipMessageEPNS0_2io16CodedInputStreamE
libgrpc++_reflection.so.1:_ZN6google8protobuf8internal14WireFormatLite11SkipMessageEPNS0_2io16CodedInputStreamEPNS3_17CodedOutputStreamE
libgrpc++_reflection.so.1:_ZN6google8protobuf8internal14WireFormatLite11WriteDoubleEidPNS0_2io17CodedOutputStreamE
libgrpc++_reflection.so.1:_ZN6google8protobuf8internal14WireFormatLite11WriteSInt32EiiPNS0_2io17CodedOutputStreamE
libgrpc++_reflection.so.1:_ZN6google8protobuf8internal14WireFormatLite11WriteSInt64EilPNS0_2io17CodedOutputStreamE
libgrpc++_reflection.so.1:_ZN6google8protobuf8internal14WireFormatLite11WriteStringEiRKNSt7__cxx1112basic_stringIcSt11char_traitsIcESaIcEEEPNS0_2io17CodedOutputStreamE
libgrpc++_reflection.so.1:_ZN6google8protobuf8internal14WireFormatLite11WriteUInt32EijPNS0_2io17CodedOutputStreamE
libgrpc++_reflection.so.1:_ZN6google8protobuf8internal14WireFormatLite11WriteUInt64EimPNS0_2io17CodedOutputStreamE
libgrpc++_reflection.so.1:_ZN6google8protobuf8internal14WireFormatLite12WriteFixed32EijPNS0_2io17CodedOutputStreamE
libgrpc++_reflection.so.1:_ZN6google8protobuf8internal14WireFormatLite12WriteFixed64EimPNS0_2io17CodedOutputStreamE
libgrpc++_reflection.so.1:_ZN6google8protobuf8internal14WireFormatLite12WriteMessageEiRKNS0_11MessageLiteEPNS0_2io17CodedOutputStreamE
libgrpc++_reflection.so.1:_ZN6google8protobuf8internal14WireFormatLite13WriteSFixed32EiiPNS0_2io17CodedOutputStreamE
libgrpc++_reflection.so.1:_ZN6google8protobuf8internal14WireFormatLite13WriteSFixed64EilPNS0_2io17CodedOutputStreamE
libgrpc++_reflection.so.1:_ZN6google8protobuf8internal14WireFormatLite14WriteBoolArrayEPKbiPNS0_2io17CodedOutputStreamE
libgrpc++_reflection.so.1:_ZN6google8protobuf8internal14WireFormatLite15WriteFloatArrayEPKfiPNS0_2io17CodedOutputStreamE
libgrpc++_reflection.so.1:_ZN6google8protobuf8internal14WireFormatLite16VerifyUtf8StringEPKciNS2_9OperationES4_
libgrpc++_reflection.so.1:_ZN6google8protobuf8internal14WireFormatLite16WriteDoubleArrayEPKdiPNS0_2io17CodedOutputStreamE
libgrpc++_reflection.so.1:_ZN6google8protobuf8internal14WireFormatLite17WriteFixed32ArrayEPKjiPNS0_2io17CodedOutputStreamE
libgrpc++_reflection.so.1:_ZN6google8protobuf8internal14WireFormatLite17WriteFixed64ArrayEPKmiPNS0_2io17CodedOutputStreamE
libgrpc++_reflection.so.1:_ZN6google8protobuf8internal14WireFormatLite18WriteSFixed32ArrayEPKiiPNS0_2io17CodedOutputStreamE
libgrpc++_reflection.so.1:_ZN6google8protobuf8internal14WireFormatLite18WriteSFixed64ArrayEPKliPNS0_2io17CodedOutputStreamE
libgrpc++_reflection.so.1:_ZN6google8protobuf8internal14WireFormatLite22ReadPackedEnumNoInlineEPNS0_2io16CodedInputStreamEPFbiEPNS0_13RepeatedFieldIiEE
libgrpc++_reflection.so.1:_ZN6google8protobuf8internal14WireFormatLite22WriteBytesMaybeAliasedEiRKNSt7__cxx1112basic_stringIcSt11char_traitsIcESaIcEEEPNS0_2io17CodedOutputStreamE
libgrpc++_reflection.so.1:_ZN6google8protobuf8internal14WireFormatLite22WriteGroupMaybeToArrayEiRKNS0_11MessageLiteEPNS0_2io17CodedOutputStreamE
libgrpc++_reflection.so.1:_ZN6google8protobuf8internal14WireFormatLite23WriteStringMaybeAliasedEiRKNSt7__cxx1112basic_stringIcSt11char_traitsIcESaIcEEEPNS0_2io17CodedOutputStreamE
libgrpc++_reflection.so.1:_ZN6google8protobuf8internal14WireFormatLite24WriteMessageMaybeToArrayEiRKNS0_11MessageLiteEPNS0_2io17CodedOutputStreamE
libgrpc++_reflection.so.1:_ZN6google8protobuf8internal14WireFormatLite27WriteSubMessageMaybeToArrayEiRKNS0_11MessageLiteEPNS0_2io17CodedOutputStreamE
libgrpc++_reflection.so.1:_ZN6google8protobuf8internal14WireFormatLite30ReadPackedEnumPreserveUnknownsEPNS0_2io16CodedInputStreamEiPFbiEPNS3_17CodedOutputStreamEPNS0_13RepeatedFieldIiEE
libgrpc++_reflection.so.1:_ZN6google8protobuf8internal14WireFormatLite8EnumSizeERKNS0_13RepeatedFieldIiEE
libgrpc++_reflection.so.1:_ZN6google8protobuf8internal14WireFormatLite9Int32SizeERKNS0_13RepeatedFieldIiEE
libgrpc++_reflection.so.1:_ZN6google8protobuf8internal14WireFormatLite9Int64SizeERKNS0_13RepeatedFieldIlEE
libgrpc++_reflection.so.1:_ZN6google8protobuf8internal14WireFormatLite9ReadBytesEPNS0_2io16CodedInputStreamEPNSt7__cxx1112basic_stringIcSt11char_traitsIcESaIcEEE
libgrpc++_reflection.so.1:_ZN6google8protobuf8internal14WireFormatLite9ReadBytesEPNS0_2io16CodedInputStreamEPPNSt7__cxx1112basic_stringIcSt11char_traitsIcESaIcEEE
libgrpc++_reflection.so.1:_ZN6google8protobuf8internal14WireFormatLite9SkipFieldEPNS0_2io16CodedInputStreamEj
libgrpc++_reflection.so.1:_ZN6google8protobuf8internal14WireFormatLite9SkipFieldEPNS0_2io16CodedInputStreamEjPNS3_17CodedOutputStreamE
libgrpc++_reflection.so.1:_ZN6google8protobuf8internal14WireFormatLite9WriteBoolEibPNS0_2io17CodedOutputStreamE
libgrpc++_reflection.so.1:_ZN6google8protobuf8internal14WireFormatLite9WriteEnumEiiPNS0_2io17CodedOutputStreamE
libgrpc++_reflection.so.1:_ZN6google8protobuf8internal15DynamicMapField10MutableMapEv
libgrpc++_reflection.so.1:_ZN6google8protobuf8internal15DynamicMapField14DeleteMapValueERKNS0_6MapKeyE
libgrpc++_reflection.so.1:_ZN6google8protobuf8internal15DynamicMapField16AllocateMapValueEPNS0_11MapValueRefE
libgrpc++_reflection.so.1:_ZN6google8protobuf8internal15DynamicMapField22InsertOrLookupMapValueERKNS0_6MapKeyEPNS0_11MapValueRefE
libgrpc++_reflection.so.1:_ZN6google8protobuf8internal15DynamicMapField4SwapEPNS1_12MapFieldBaseE
libgrpc++_reflection.so.1:_ZN6google8protobuf8internal15DynamicMapField5ClearEv
libgrpc++_reflection.so.1:_ZN6google8protobuf8internal15DynamicMapField9MergeFromERKNS1_12MapFieldBaseE
libgrpc++_reflection.so.1:_ZN6google8protobuf8internal15DynamicMapFieldC1EPKNS0_7MessageE
libgrpc++_reflection.so.1:_ZN6google8protobuf8internal15DynamicMapFieldC1EPKNS0_7MessageEPNS0_5ArenaE
libgrpc++_reflection.so.1:_ZN6google8protobuf8internal15DynamicMapFieldC2EPKNS0_7MessageE
libgrpc++_reflection.so.1:_ZN6google8protobuf8internal15DynamicMapFieldC2EPKNS0_7MessageEPNS0_5ArenaE
libgrpc++_reflection.so.1:_ZN6google8protobuf8internal15DynamicMapFieldD0Ev
libgrpc++_reflection.so.1:_ZN6google8protobuf8internal15DynamicMapFieldD1Ev
libgrpc++_reflection.so.1:_ZN6google8protobuf8internal15DynamicMapFieldD2Ev
libgrpc++_reflection.so.1:_ZN6google8protobuf8internal15ExtensionFinderD0Ev
libgrpc++_reflection.so.1:_ZN6google8protobuf8internal15ExtensionFinderD1Ev
libgrpc++_reflection.so.1:_ZN6google8protobuf8internal15ExtensionFinderD2Ev
libgrpc++_reflection.so.1:_ZN6google8protobuf8internal15ParseAnyTypeUrlERKNSt7__cxx1112basic_stringIcSt11char_traitsIcESaIcEEEPS7_
libgrpc++_reflection.so.1:_ZN6google8protobuf8internal15ParseAnyTypeUrlERKNSt7__cxx1112basic_stringIcSt11char_traitsIcESaIcEEEPS7_SA_
libgrpc++_reflection.so.1:_ZN6google8protobuf8internal15UTF8GenericScanEPKNS1_19UTF8StateMachineObjEPKciPi
libgrpc++_reflection.so.1:_ZN6google8protobuf8internal16FunctionClosure0D0Ev
libgrpc++_reflection.so.1:_ZN6google8protobuf8internal16FunctionClosure0D1Ev
libgrpc++_reflection.so.1:_ZN6google8protobuf8internal16FunctionClosure0D2Ev
libgrpc++_reflection.so.1:_ZN6google8protobuf8internal17AssignDescriptorsEPKNS1_15DescriptorTableE
libgrpc++_reflection.so.1:_ZN6google8protobuf8internal17DefaultLogHandlerENS0_8LogLevelEPKciRKNSt7__cxx1112basic_stringIcSt11char_traitsIcESaIcEEE
libgrpc++_reflection.so.1:_ZN6google8protobuf8internal17PrintUTF8ErrorLogEPKcS3_b
libgrpc++_reflection.so.1:_ZN6google8protobuf8internal17SerializeInternalEPKhPKNS1_13FieldMetadataEiPNS0_2io17CodedOutputStreamE
libgrpc++_reflection.so.1:_ZN6google8protobuf8internal18GenericTypeHandlerINS0_11MessageLiteEE16NewFromPrototypeEPKS3_PNS0_5ArenaE
libgrpc++_reflection.so.1:_ZN6google8protobuf8internal18GenericTypeHandlerINS0_11MessageLiteEE5MergeERKS3_PS3_
libgrpc++_reflection.so.1:_ZN6google8protobuf8internal18GenericTypeHandlerINS0_7MessageEE16NewFromPrototypeEPKS3_PNS0_5ArenaE
libgrpc++_reflection.so.1:_ZN6google8protobuf8internal18GenericTypeHandlerINS0_7MessageEE20GetMaybeArenaPointerEPS3_
libgrpc++_reflection.so.1:_ZN6google8protobuf8internal18GenericTypeHandlerINS0_7MessageEE8GetArenaEPS3_
libgrpc++_reflection.so.1:_ZN6google8protobuf8internal18GenericTypeHandlerINSt7__cxx1112basic_stringIcSt11char_traitsIcESaIcEEEE5MergeERKS8_PS8_
libgrpc++_reflection.so.1:_ZN6google8protobuf8internal19ExtensionSerializerEPKhjjjPNS0_2io17CodedOutputStreamE
libgrpc++_reflection.so.1:_ZN6google8protobuf8internal19ImplicitWeakMessage16default_instanceEv
libgrpc++_reflection.so.1:_ZN6google8protobuf8internal19ImplicitWeakMessage27MergePartialFromCodedStreamEPNS0_2io16CodedInputStreamE
libgrpc++_reflection.so.1:_ZN6google8protobuf8internal20InitProtobufDefaultsEv
libgrpc++_reflection.so.1:_ZN6google8protobuf8internal20RepeatedPtrFieldBase14InternalExtendEi
libgrpc++_reflection.so.1:_ZN6google8protobuf8internal20RepeatedPtrFieldBase7AddWeakEPKNS0_11MessageLiteE
libgrpc++_reflection.so.1:_ZN6google8protobuf8internal20RepeatedPtrFieldBase7ReserveEi
libgrpc++_reflection.so.1:_ZN6google8protobuf8internal20RepeatedPtrFieldBase8CloseGapEii
libgrpc++_reflection.so.1:_ZN6google8protobuf8internal21MapFieldPrinterHelper7CopyKeyERKNS0_6MapKeyEPNS0_7MessageEPKNS0_15FieldDescriptorE
libgrpc++_reflection.so.1:_ZN6google8protobuf8internal21MapFieldPrinterHelper7SortMapERKNS0_7MessageEPKNS0_10ReflectionEPKNS0_15FieldDescriptorEPNS0_14MessageFactoryEPSt6vectorIPS4_SaISF_EE
libgrpc++_reflection.so.1:_ZN6google8protobuf8internal21MapFieldPrinterHelper9CopyValueERKNS0_11MapValueRefEPNS0_7MessageEPKNS0_15FieldDescriptorE
libgrpc++_reflection.so.1:_ZN6google8protobuf8internal22GetAnyFieldDescriptorsERKNS0_7MessageEPPKNS0_15FieldDescriptorES8_
libgrpc++_reflection.so.1:_ZN6google8protobuf8internal22MessageSetFieldSkipper19SkipMessageSetFieldEPNS0_2io16CodedInputStreamEi
libgrpc++_reflection.so.1:_ZN6google8protobuf8internal23GetOwnedMessageInternalEPNS0_5ArenaEPNS0_11MessageLiteES3_
libgrpc++_reflection.so.1:_ZN6google8protobuf8internal23IsStructurallyValidUTF8EPKci
libgrpc++_reflection.so.1:_ZN6google8protobuf8internal23SerializeMessageNoTableEPKNS0_11MessageLiteEPNS0_2io17CodedOutputStreamE
libgrpc++_reflection.so.1:_ZN6google8protobuf8internal23SerializeMessageNoTableEPKNS0_11MessageLiteEPNS1_11ArrayOutputE
libgrpc++_reflection.so.1:_ZN6google8protobuf8internal23SerializeNotImplementedEi
libgrpc++_reflection.so.1:_ZN6google8protobuf8internal24GeneratedExtensionFinder4FindEiPNS1_13ExtensionInfoE
libgrpc++_reflection.so.1:_ZN6google8protobuf8internal24RepeatedStringTypeTraits23GetDefaultRepeatedFieldB5cxx11Ev
libgrpc++_reflection.so.1:_ZN6google8protobuf8internal24SerializeInternalToArrayEPKhPKNS1_13FieldMetadataEibPh
libgrpc++_reflection.so.1:_ZN6google8protobuf8internal24SerializeMessageDispatchERKNS0_11MessageLiteEPKNS1_13FieldMetadataEiiPNS0_2io17CodedOutputStreamE
libgrpc++_reflection.so.1:_ZN6google8protobuf8internal24SerializeMessageDispatchERKNS0_11MessageLiteEPKNS1_13FieldMetadataEiiPNS1_11ArrayOutputE
libgrpc++_reflection.so.1:_ZN6google8protobuf8internal24UTF8GenericScanFastAsciiEPKNS1_19UTF8StateMachineObjEPKciPi
libgrpc++_reflection.so.1:_ZN6google8protobuf8internal24UTF8SpnStructurallyValidERKNS0_11StringPieceE
libgrpc++_reflection.so.1:_ZN6google8protobuf8internal25RegisterFileLevelMetadataEPKNS1_15DescriptorTableE
libgrpc++_reflection.so.1:_ZN6google8protobuf8internal25RepeatedPrimitiveDefaults16default_instanceEv
libgrpc++_reflection.so.1:_ZN6google8protobuf8internal25UnknownFieldSetSerializerEPKhjjjPNS0_2io17CodedOutputStreamE
libgrpc++_reflection.so.1:_ZN6google8protobuf8internal26DuplicateIfNonNullInternalEPNS0_11MessageLiteE
libgrpc++_reflection.so.1:_ZN6google8protobuf8internal26GeneratedMessageReflectionC1EPKNS0_10DescriptorERKNS1_16ReflectionSchemaEPKNS0_14DescriptorPoolEPNS0_14MessageFactoryE
libgrpc++_reflection.so.1:_ZN6google8protobuf8internal26GeneratedMessageReflectionC2EPKNS0_10DescriptorERKNS1_16ReflectionSchemaEPKNS0_14DescriptorPoolEPNS0_14MessageFactoryE
libgrpc++_reflection.so.1:_ZN6google8protobuf8internal26GeneratedMessageReflectionD0Ev
libgrpc++_reflection.so.1:_ZN6google8protobuf8internal26GeneratedMessageReflectionD1Ev
libgrpc++_reflection.so.1:_ZN6google8protobuf8internal26GeneratedMessageReflectionD2Ev
libgrpc++_reflection.so.1:_ZN6google8protobuf8internal26UnknownFieldSerializerLiteEPKhjjjPNS0_2io17CodedOutputStreamE
libgrpc++_reflection.so.1:_ZN6google8protobuf8internal27UnknownFieldSetFieldSkipper11SkipMessageEPNS0_2io16CodedInputStreamE
libgrpc++_reflection.so.1:_ZN6google8protobuf8internal27UnknownFieldSetFieldSkipper15SkipUnknownEnumEii
libgrpc++_reflection.so.1:_ZN6google8protobuf8internal27UnknownFieldSetFieldSkipper9SkipFieldEPNS0_2io16CodedInputStreamEj
libgrpc++_reflection.so.1:_ZN6google8protobuf8internal29CodedOutputStreamFieldSkipper11SkipMessageEPNS0_2io16CodedInputStreamE
libgrpc++_reflection.so.1:_ZN6google8protobuf8internal29CodedOutputStreamFieldSkipper15SkipUnknownEnumEii
libgrpc++_reflection.so.1:_ZN6google8protobuf8internal29CodedOutputStreamFieldSkipper9SkipFieldEPNS0_2io16CodedInputStreamEj
libgrpc++_reflection.so.1:_ZN6google8protobuf8internal29DescriptorPoolExtensionFinder4FindEiPNS1_13ExtensionInfoE
libgrpc++_reflection.so.1:_ZN6google8protobuf8internal29UTF8CoerceToStructurallyValidERKNS0_11StringPieceEPcc
libgrpc++_reflection.so.1:_ZN6google8protobuf8internal32StringSpaceUsedExcludingSelfLongERKNSt7__cxx1112basic_stringIcSt11char_traitsIcESaIcEEE
libgrpc++_reflection.so.1:_ZN6google8protobuf8internal38InitImplicitWeakMessageDefaultInstanceEv
libgrpc++_reflection.so.1:_ZN6google8protobuf8internal6IsNullILi10EEEbPKv
libgrpc++_reflection.so.1:_ZN6google8protobuf8internal6IsNullILi11EEEbPKv
libgrpc++_reflection.so.1:_ZN6google8protobuf8internal6IsNullILi12EEEbPKv
libgrpc++_reflection.so.1:_ZN6google8protobuf8internal6IsNullILi21EEEbPKv
libgrpc++_reflection.so.1:_ZN6google8protobuf8internal6IsNullILi9EEEbPKv
libgrpc++_reflection.so.1:_ZN6google8protobuf8internal9ArenaImpl10AddCleanupEPvPFvS3_E
libgrpc++_reflection.so.1:_ZN6google8protobuf8internal9ArenaImpl10FreeBlocksEv
libgrpc++_reflection.so.1:_ZN6google8protobuf8internal9ArenaImpl11CleanupListEv
libgrpc++_reflection.so.1:_ZN6google8protobuf8internal9ArenaImpl11SerialArena11CleanupListEv
libgrpc++_reflection.so.1:_ZN6google8protobuf8internal9ArenaImpl11SerialArena18AddCleanupFallbackEPvPFvS4_E
libgrpc++_reflection.so.1:_ZN6google8protobuf8internal9ArenaImpl11SerialArena19CleanupListFallbackEv
libgrpc++_reflection.so.1:_ZN6google8protobuf8internal9ArenaImpl11SerialArena23AllocateAlignedFallbackEm
libgrpc++_reflection.so.1:_ZN6google8protobuf8internal9ArenaImpl11SerialArena3NewEPNS2_5BlockEPvPS2_
libgrpc++_reflection.so.1:_ZN6google8protobuf8internal9ArenaImpl11SerialArena4FreeEPS3_PNS2_5BlockEPFvPvmE
libgrpc++_reflection.so.1:_ZN6google8protobuf8internal9ArenaImpl14GetSerialArenaEv
libgrpc++_reflection.so.1:_ZN6google8protobuf8internal9ArenaImpl15AllocateAlignedEm
libgrpc++_reflection.so.1:_ZN6google8protobuf8internal9ArenaImpl18AddCleanupFallbackEPvPFvS3_E
libgrpc++_reflection.so.1:_ZN6google8protobuf8internal9ArenaImpl22GetSerialArenaFallbackEPv
libgrpc++_reflection.so.1:_ZN6google8protobuf8internal9ArenaImpl23AllocateAlignedFallbackEm
libgrpc++_reflection.so.1:_ZN6google8protobuf8internal9ArenaImpl28AllocateAlignedAndAddCleanupEmPFvPvE
libgrpc++_reflection.so.1:_ZN6google8protobuf8internal9ArenaImpl36AllocateAlignedAndAddCleanupFallbackEmPFvPvE
libgrpc++_reflection.so.1:_ZN6google8protobuf8internal9ArenaImpl4InitEv
libgrpc++_reflection.so.1:_ZN6google8protobuf8internal9ArenaImpl5BlockC1EmPS3_
libgrpc++_reflection.so.1:_ZN6google8protobuf8internal9ArenaImpl5BlockC2EmPS3_
libgrpc++_reflection.so.1:_ZN6google8protobuf8internal9ArenaImpl5ResetEv
libgrpc++_reflection.so.1:_ZN6google8protobuf8internal9ArenaImpl8NewBlockEPNS2_5BlockEm
libgrpc++_reflection.so.1:_ZN6google8protobuf8internal9ArenaImplD1Ev
libgrpc++_reflection.so.1:_ZN6google8protobuf8internal9ArenaImplD2Ev
libgrpc++_reflection.so.1:_ZN6google8protobuf9DoNothingEv
libgrpc++_reflection.so.1:_ZN6google8protobuf9StrAppendEPNSt7__cxx1112basic_stringIcSt11char_traitsIcESaIcEEERKNS0_7strings8AlphaNumE
libgrpc++_reflection.so.1:_ZN6google8protobuf9StrAppendEPNSt7__cxx1112basic_stringIcSt11char_traitsIcESaIcEEERKNS0_7strings8AlphaNumESB_
libgrpc++_reflection.so.1:_ZN6google8protobuf9StrAppendEPNSt7__cxx1112basic_stringIcSt11char_traitsIcESaIcEEERKNS0_7strings8AlphaNumESB_SB_
libgrpc++_reflection.so.1:_ZN6google8protobuf9StrAppendEPNSt7__cxx1112basic_stringIcSt11char_traitsIcESaIcEEERKNS0_7strings8AlphaNumESB_SB_SB_
libgrpc++_reflection.so.1:_ZN6google8protobuflsERSoNS0_11StringPieceE
libgrpc++_reflection.so.1:_ZN6google8protobuflsERSoRKNS0_7uint128E
libgrpc++_reflection.so.1:_ZN9grpc_impl10reflection27ProtoServerReflectionPlugin10InitServerEPNS_17ServerInitializerE
libgrpc++_reflection.so.1:_ZN9grpc_impl10reflection27ProtoServerReflectionPlugin15ChangeArgumentsERKNSt7__cxx1112basic_stringIcSt11char_traitsIcESaIcEEEPv
libgrpc++_reflection.so.1:_ZN9grpc_impl10reflection27ProtoServerReflectionPlugin4nameB5cxx11Ev
libgrpc++_reflection.so.1:_ZN9grpc_impl10reflection27ProtoServerReflectionPlugin6FinishEPNS_17ServerInitializerE
libgrpc++_reflection.so.1:_ZN9grpc_impl10reflection27ProtoServerReflectionPluginC1Ev
libgrpc++_reflection.so.1:_ZN9grpc_impl10reflection27ProtoServerReflectionPluginC2Ev
libgrpc++_reflection.so.1:_ZN9grpc_impl10reflection38InitProtoReflectionServerBuilderPluginEv
libgrpc++_reflection.so.1:_ZNK4grpc10reflection7v1alpha13ErrorResponse11GetMetadataEv
libgrpc++_reflection.so.1:_ZNK4grpc10reflection7v1alpha13ErrorResponse12ByteSizeLongEv
libgrpc++_reflection.so.1:_ZNK4grpc10reflection7v1alpha13ErrorResponse13IsInitializedEv
libgrpc++_reflection.so.1:_ZNK4grpc10reflection7v1alpha13ErrorResponse13SetCachedSizeEi
libgrpc++_reflection.so.1:_ZNK4grpc10reflection7v1alpha13ErrorResponse24SerializeWithCachedSizesEPN6google8protobuf2io17CodedOutputStreamE
libgrpc++_reflection.so.1:_ZNK4grpc10reflection7v1alpha13ErrorResponse39InternalSerializeWithCachedSizesToArrayEPh
libgrpc++_reflection.so.1:_ZNK4grpc10reflection7v1alpha15ServiceResponse11GetMetadataEv
libgrpc++_reflection.so.1:_ZNK4grpc10reflection7v1alpha15ServiceResponse12ByteSizeLongEv
libgrpc++_reflection.so.1:_ZNK4grpc10reflection7v1alpha15ServiceResponse13IsInitializedEv
libgrpc++_reflection.so.1:_ZNK4grpc10reflection7v1alpha15ServiceResponse13SetCachedSizeEi
libgrpc++_reflection.so.1:_ZNK4grpc10reflection7v1alpha15ServiceResponse24SerializeWithCachedSizesEPN6google8protobuf2io17CodedOutputStreamE
libgrpc++_reflection.so.1:_ZNK4grpc10reflection7v1alpha15ServiceResponse39InternalSerializeWithCachedSizesToArrayEPh
libgrpc++_reflection.so.1:_ZNK4grpc10reflection7v1alpha16ExtensionRequest11GetMetadataEv
libgrpc++_reflection.so.1:_ZNK4grpc10reflection7v1alpha16ExtensionRequest12ByteSizeLongEv
libgrpc++_reflection.so.1:_ZNK4grpc10reflection7v1alpha16ExtensionRequest13IsInitializedEv
libgrpc++_reflection.so.1:_ZNK4grpc10reflection7v1alpha16ExtensionRequest13SetCachedSizeEi
libgrpc++_reflection.so.1:_ZNK4grpc10reflection7v1alpha16ExtensionRequest24SerializeWithCachedSizesEPN6google8protobuf2io17CodedOutputStreamE
libgrpc++_reflection.so.1:_ZNK4grpc10reflection7v1alpha16ExtensionRequest39InternalSerializeWithCachedSizesToArrayEPh
libgrpc++_reflection.so.1:_ZNK4grpc10reflection7v1alpha19ListServiceResponse11GetMetadataEv
libgrpc++_reflection.so.1:_ZNK4grpc10reflection7v1alpha19ListServiceResponse12ByteSizeLongEv
libgrpc++_reflection.so.1:_ZNK4grpc10reflection7v1alpha19ListServiceResponse13IsInitializedEv
libgrpc++_reflection.so.1:_ZNK4grpc10reflection7v1alpha19ListServiceResponse13SetCachedSizeEi
libgrpc++_reflection.so.1:_ZNK4grpc10reflection7v1alpha19ListServiceResponse24SerializeWithCachedSizesEPN6google8protobuf2io17CodedOutputStreamE
libgrpc++_reflection.so.1:_ZNK4grpc10reflection7v1alpha19ListServiceResponse39InternalSerializeWithCachedSizesToArrayEPh
libgrpc++_reflection.so.1:_ZNK4grpc10reflection7v1alpha22FileDescriptorResponse11GetMetadataEv
libgrpc++_reflection.so.1:_ZNK4grpc10reflection7v1alpha22FileDescriptorResponse12ByteSizeLongEv
libgrpc++_reflection.so.1:_ZNK4grpc10reflection7v1alpha22FileDescriptorResponse13IsInitializedEv
libgrpc++_reflection.so.1:_ZNK4grpc10reflection7v1alpha22FileDescriptorResponse13SetCachedSizeEi
libgrpc++_reflection.so.1:_ZNK4grpc10reflection7v1alpha22FileDescriptorResponse24SerializeWithCachedSizesEPN6google8protobuf2io17CodedOutputStreamE
libgrpc++_reflection.so.1:_ZNK4grpc10reflection7v1alpha22FileDescriptorResponse39InternalSerializeWithCachedSizesToArrayEPh
libgrpc++_reflection.so.1:_ZNK4grpc10reflection7v1alpha23ExtensionNumberResponse11GetMetadataEv
libgrpc++_reflection.so.1:_ZNK4grpc10reflection7v1alpha23ExtensionNumberResponse12ByteSizeLongEv
libgrpc++_reflection.so.1:_ZNK4grpc10reflection7v1alpha23ExtensionNumberResponse13IsInitializedEv
libgrpc++_reflection.so.1:_ZNK4grpc10reflection7v1alpha23ExtensionNumberResponse13SetCachedSizeEi
libgrpc++_reflection.so.1:_ZNK4grpc10reflection7v1alpha23ExtensionNumberResponse24SerializeWithCachedSizesEPN6google8protobuf2io17CodedOutputStreamE
libgrpc++_reflection.so.1:_ZNK4grpc10reflection7v1alpha23ExtensionNumberResponse39InternalSerializeWithCachedSizesToArrayEPh
libgrpc++_reflection.so.1:_ZNK4grpc10reflection7v1alpha23ServerReflectionRequest11GetMetadataEv
libgrpc++_reflection.so.1:_ZNK4grpc10reflection7v1alpha23ServerReflectionRequest12ByteSizeLongEv
libgrpc++_reflection.so.1:_ZNK4grpc10reflection7v1alpha23ServerReflectionRequest13IsInitializedEv
libgrpc++_reflection.so.1:_ZNK4grpc10reflection7v1alpha23ServerReflectionRequest13SetCachedSizeEi
libgrpc++_reflection.so.1:_ZNK4grpc10reflection7v1alpha23ServerReflectionRequest24SerializeWithCachedSizesEPN6google8protobuf2io17CodedOutputStreamE
libgrpc++_reflection.so.1:_ZNK4grpc10reflection7v1alpha23ServerReflectionRequest39InternalSerializeWithCachedSizesToArrayEPh
libgrpc++_reflection.so.1:_ZNK4grpc10reflection7v1alpha24ServerReflectionResponse11GetMetadataEv
libgrpc++_reflection.so.1:_ZNK4grpc10reflection7v1alpha24ServerReflectionResponse12ByteSizeLongEv
libgrpc++_reflection.so.1:_ZNK4grpc10reflection7v1alpha24ServerReflectionResponse13IsInitializedEv
libgrpc++_reflection.so.1:_ZNK4grpc10reflection7v1alpha24ServerReflectionResponse13SetCachedSizeEi
libgrpc++_reflection.so.1:_ZNK4grpc10reflection7v1alpha24ServerReflectionResponse24SerializeWithCachedSizesEPN6google8protobuf2io17CodedOutputStreamE
libgrpc++_reflection.so.1:_ZNK4grpc10reflection7v1alpha24ServerReflectionResponse39InternalSerializeWithCachedSizesToArrayEPh
libgrpc++_reflection.so.1:_ZNK6google8protobuf10Descriptor11DebugStringB5cxx11Ev
libgrpc++_reflection.so.1:_ZNK6google8protobuf10Descriptor11DebugStringEiPNSt7__cxx1112basic_stringIcSt11char_traitsIcESaIcEEERKNS0_18DebugStringOptionsEb
libgrpc++_reflection.so.1:_ZNK6google8protobuf10Descriptor14CopyJsonNameToEPNS0_15DescriptorProtoE
libgrpc++_reflection.so.1:_ZNK6google8protobuf10Descriptor14ExtensionRange6CopyToEPNS0_30DescriptorProto_ExtensionRangeE
libgrpc++_reflection.so.1:_ZNK6google8protobuf10Descriptor15FindFieldByNameERKNSt7__cxx1112basic_stringIcSt11char_traitsIcESaIcEEE
libgrpc++_reflection.so.1:_ZNK6google8protobuf10Descriptor15FindOneofByNameERKNSt7__cxx1112basic_stringIcSt11char_traitsIcESaIcEEE
libgrpc++_reflection.so.1:_ZNK6google8protobuf10Descriptor15GetLocationPathEPSt6vectorIiSaIiEE
libgrpc++_reflection.so.1:_ZNK6google8protobuf10Descriptor17FindFieldByNumberEi
libgrpc++_reflection.so.1:_ZNK6google8protobuf10Descriptor17GetSourceLocationEPNS0_14SourceLocationE
libgrpc++_reflection.so.1:_ZNK6google8protobuf10Descriptor18FindEnumTypeByNameERKNSt7__cxx1112basic_stringIcSt11char_traitsIcESaIcEEE
libgrpc++_reflection.so.1:_ZNK6google8protobuf10Descriptor19FindEnumValueByNameERKNSt7__cxx1112basic_stringIcSt11char_traitsIcESaIcEEE
libgrpc++_reflection.so.1:_ZNK6google8protobuf10Descriptor19FindExtensionByNameERKNSt7__cxx1112basic_stringIcSt11char_traitsIcESaIcEEE
libgrpc++_reflection.so.1:_ZNK6google8protobuf10Descriptor20FindNestedTypeByNameERKNSt7__cxx1112basic_stringIcSt11char_traitsIcESaIcEEE
libgrpc++_reflection.so.1:_ZNK6google8protobuf10Descriptor22DebugStringWithOptionsB5cxx11ERKNS0_18DebugStringOptionsE
libgrpc++_reflection.so.1:_ZNK6google8protobuf10Descriptor24FindFieldByCamelcaseNameERKNSt7__cxx1112basic_stringIcSt11char_traitsIcESaIcEEE
libgrpc++_reflection.so.1:_ZNK6google8protobuf10Descriptor24FindFieldByLowercaseNameERKNSt7__cxx1112basic_stringIcSt11char_traitsIcESaIcEEE
libgrpc++_reflection.so.1:_ZNK6google8protobuf10Descriptor28FindExtensionByCamelcaseNameERKNSt7__cxx1112basic_stringIcSt11char_traitsIcESaIcEEE
libgrpc++_reflection.so.1:_ZNK6google8protobuf10Descriptor28FindExtensionByLowercaseNameERKNSt7__cxx1112basic_stringIcSt11char_traitsIcESaIcEEE
libgrpc++_reflection.so.1:_ZNK6google8protobuf10Descriptor33FindReservedRangeContainingNumberEi
libgrpc++_reflection.so.1:_ZNK6google8protobuf10Descriptor34FindExtensionRangeContainingNumberEi
libgrpc++_reflection.so.1:_ZNK6google8protobuf10Descriptor6CopyToEPNS0_15DescriptorProtoE
libgrpc++_reflection.so.1:_ZNK6google8protobuf10Reflection16GetRepeatedFieldIbEERKNS0_13RepeatedFieldIT_EERKNS0_7MessageEPKNS0_15FieldDescriptorE
libgrpc++_reflection.so.1:_ZNK6google8protobuf10Reflection16GetRepeatedFieldIdEERKNS0_13RepeatedFieldIT_EERKNS0_7MessageEPKNS0_15FieldDescriptorE
libgrpc++_reflection.so.1:_ZNK6google8protobuf10Reflection16GetRepeatedFieldIfEERKNS0_13RepeatedFieldIT_EERKNS0_7MessageEPKNS0_15FieldDescriptorE
libgrpc++_reflection.so.1:_ZNK6google8protobuf10Reflection16GetRepeatedFieldIiEERKNS0_13RepeatedFieldIT_EERKNS0_7MessageEPKNS0_15FieldDescriptorE
libgrpc++_reflection.so.1:_ZNK6google8protobuf10Reflection16GetRepeatedFieldIjEERKNS0_13RepeatedFieldIT_EERKNS0_7MessageEPKNS0_15FieldDescriptorE
libgrpc++_reflection.so.1:_ZNK6google8protobuf10Reflection16GetRepeatedFieldIlEERKNS0_13RepeatedFieldIT_EERKNS0_7MessageEPKNS0_15FieldDescriptorE
libgrpc++_reflection.so.1:_ZNK6google8protobuf10Reflection16GetRepeatedFieldImEERKNS0_13RepeatedFieldIT_EERKNS0_7MessageEPKNS0_15FieldDescriptorE
libgrpc++_reflection.so.1:_ZNK6google8protobuf10Reflection17GetMessageFactoryEv
libgrpc++_reflection.so.1:_ZNK6google8protobuf10Reflection17RepeatedFieldDataEPNS0_7MessageEPKNS0_15FieldDescriptorENS4_7CppTypeEPKNS0_10DescriptorE
libgrpc++_reflection.so.1:_ZNK6google8protobuf10Reflection19AddAllocatedMessageEPNS0_7MessageEPKNS0_15FieldDescriptorES3_
libgrpc++_reflection.so.1:_ZNK6google8protobuf10Reflection20MutableRepeatedFieldIbEEPNS0_13RepeatedFieldIT_EEPNS0_7MessageEPKNS0_15FieldDescriptorE
libgrpc++_reflection.so.1:_ZNK6google8protobuf10Reflection20MutableRepeatedFieldIdEEPNS0_13RepeatedFieldIT_EEPNS0_7MessageEPKNS0_15FieldDescriptorE
libgrpc++_reflection.so.1:_ZNK6google8protobuf10Reflection20MutableRepeatedFieldIfEEPNS0_13RepeatedFieldIT_EEPNS0_7MessageEPKNS0_15FieldDescriptorE
libgrpc++_reflection.so.1:_ZNK6google8protobuf10Reflection20MutableRepeatedFieldIiEEPNS0_13RepeatedFieldIT_EEPNS0_7MessageEPKNS0_15FieldDescriptorE
libgrpc++_reflection.so.1:_ZNK6google8protobuf10Reflection20MutableRepeatedFieldIjEEPNS0_13RepeatedFieldIT_EEPNS0_7MessageEPKNS0_15FieldDescriptorE
libgrpc++_reflection.so.1:_ZNK6google8protobuf10Reflection20MutableRepeatedFieldIlEEPNS0_13RepeatedFieldIT_EEPNS0_7MessageEPKNS0_15FieldDescriptorE
libgrpc++_reflection.so.1:_ZNK6google8protobuf10Reflection20MutableRepeatedFieldImEEPNS0_13RepeatedFieldIT_EEPNS0_7MessageEPKNS0_15FieldDescriptorE
libgrpc++_reflection.so.1:_ZNK6google8protobuf10Reflection21RepeatedFieldAccessorEPKNS0_15FieldDescriptorE
libgrpc++_reflection.so.1:_ZNK6google8protobuf10Reflection24MutableRawRepeatedStringEPNS0_7MessageEPKNS0_15FieldDescriptorEb
libgrpc++_reflection.so.1:_ZNK6google8protobuf10Reflection6MapEndEPNS0_7MessageEPKNS0_15FieldDescriptorE
libgrpc++_reflection.so.1:_ZNK6google8protobuf10Reflection8MapBeginEPNS0_7MessageEPKNS0_15FieldDescriptorE
libgrpc++_reflection.so.1:_ZNK6google8protobuf10TextFormat13ParseInfoTree11GetLocationEPKNS0_15FieldDescriptorEi
libgrpc++_reflection.so.1:_ZNK6google8protobuf10TextFormat13ParseInfoTree16GetTreeForNestedEPKNS0_15FieldDescriptorEi
libgrpc++_reflection.so.1:_ZNK6google8protobuf10TextFormat17FieldValuePrinter10PrintBytesERKNSt7__cxx1112basic_stringIcSt11char_traitsIcESaIcEEE
libgrpc++_reflection.so.1:_ZNK6google8protobuf10TextFormat17FieldValuePrinter10PrintFloatB5cxx11Ef
libgrpc++_reflection.so.1:_ZNK6google8protobuf10TextFormat17FieldValuePrinter10PrintInt32B5cxx11Ei
libgrpc++_reflection.so.1:_ZNK6google8protobuf10TextFormat17FieldValuePrinter10PrintInt64B5cxx11El
libgrpc++_reflection.so.1:_ZNK6google8protobuf10TextFormat17FieldValuePrinter11PrintDoubleB5cxx11Ed
libgrpc++_reflection.so.1:_ZNK6google8protobuf10TextFormat17FieldValuePrinter11PrintStringERKNSt7__cxx1112basic_stringIcSt11char_traitsIcESaIcEEE
libgrpc++_reflection.so.1:_ZNK6google8protobuf10TextFormat17FieldValuePrinter11PrintUInt32B5cxx11Ej
libgrpc++_reflection.so.1:_ZNK6google8protobuf10TextFormat17FieldValuePrinter11PrintUInt64B5cxx11Em
libgrpc++_reflection.so.1:_ZNK6google8protobuf10TextFormat17FieldValuePrinter14PrintFieldNameB5cxx11ERKNS0_7MessageEPKNS0_10ReflectionEPKNS0_15FieldDescriptorE
libgrpc++_reflection.so.1:_ZNK6google8protobuf10TextFormat17FieldValuePrinter15PrintMessageEndB5cxx11ERKNS0_7MessageEiib
libgrpc++_reflection.so.1:_ZNK6google8protobuf10TextFormat17FieldValuePrinter17PrintMessageStartB5cxx11ERKNS0_7MessageEiib
libgrpc++_reflection.so.1:_ZNK6google8protobuf10TextFormat17FieldValuePrinter9PrintBoolB5cxx11Eb
libgrpc++_reflection.so.1:_ZNK6google8protobuf10TextFormat17FieldValuePrinter9PrintEnumEiRKNSt7__cxx1112basic_stringIcSt11char_traitsIcESaIcEEE
libgrpc++_reflection.so.1:_ZNK6google8protobuf10TextFormat21FastFieldValuePrinter10PrintBytesERKNSt7__cxx1112basic_stringIcSt11char_traitsIcESaIcEEEPNS1_17BaseTextGeneratorE
libgrpc++_reflection.so.1:_ZNK6google8protobuf10TextFormat21FastFieldValuePrinter10PrintFloatEfPNS1_17BaseTextGeneratorE
libgrpc++_reflection.so.1:_ZNK6google8protobuf10TextFormat21FastFieldValuePrinter10PrintInt32EiPNS1_17BaseTextGeneratorE
libgrpc++_reflection.so.1:_ZNK6google8protobuf10TextFormat21FastFieldValuePrinter10PrintInt64ElPNS1_17BaseTextGeneratorE
libgrpc++_reflection.so.1:_ZNK6google8protobuf10TextFormat21FastFieldValuePrinter11PrintDoubleEdPNS1_17BaseTextGeneratorE
libgrpc++_reflection.so.1:_ZNK6google8protobuf10TextFormat21FastFieldValuePrinter11PrintStringERKNSt7__cxx1112basic_stringIcSt11char_traitsIcESaIcEEEPNS1_17BaseTextGeneratorE
libgrpc++_reflection.so.1:_ZNK6google8protobuf10TextFormat21FastFieldValuePrinter11PrintUInt32EjPNS1_17BaseTextGeneratorE
libgrpc++_reflection.so.1:_ZNK6google8protobuf10TextFormat21FastFieldValuePrinter11PrintUInt64EmPNS1_17BaseTextGeneratorE
libgrpc++_reflection.so.1:_ZNK6google8protobuf10TextFormat21FastFieldValuePrinter14PrintFieldNameERKNS0_7MessageEPKNS0_10ReflectionEPKNS0_15FieldDescriptorEPNS1_17BaseTextGeneratorE
libgrpc++_reflection.so.1:_ZNK6google8protobuf10TextFormat21FastFieldValuePrinter14PrintFieldNameERKNS0_7MessageEiiPKNS0_10ReflectionEPKNS0_15FieldDescriptorEPNS1_17BaseTextGeneratorE
libgrpc++_reflection.so.1:_ZNK6google8protobuf10TextFormat21FastFieldValuePrinter15PrintMessageEndERKNS0_7MessageEiibPNS1_17BaseTextGeneratorE
libgrpc++_reflection.so.1:_ZNK6google8protobuf10TextFormat21FastFieldValuePrinter17PrintMessageStartERKNS0_7MessageEiibPNS1_17BaseTextGeneratorE
libgrpc++_reflection.so.1:_ZNK6google8protobuf10TextFormat21FastFieldValuePrinter9PrintBoolEbPNS1_17BaseTextGeneratorE
libgrpc++_reflection.so.1:_ZNK6google8protobuf10TextFormat21FastFieldValuePrinter9PrintEnumEiRKNSt7__cxx1112basic_stringIcSt11char_traitsIcESaIcEEEPNS1_17BaseTextGeneratorE
libgrpc++_reflection.so.1:_ZNK6google8protobuf10TextFormat6Finder11FindAnyTypeERKNS0_7MessageERKNSt7__cxx1112basic_stringIcSt11char_traitsIcESaIcEEESD_
libgrpc++_reflection.so.1:_ZNK6google8protobuf10TextFormat6Finder13FindExtensionEPNS0_7MessageERKNSt7__cxx1112basic_stringIcSt11char_traitsIcESaIcEEE
libgrpc++_reflection.so.1:_ZNK6google8protobuf10TextFormat6Finder20FindExtensionFactoryEPKNS0_15FieldDescriptorE
libgrpc++_reflection.so.1:_ZNK6google8protobuf10TextFormat7Printer10PrintFieldERKNS0_7MessageEPKNS0_10ReflectionEPKNS0_15FieldDescriptorEPNS2_13TextGeneratorE
libgrpc++_reflection.so.1:_ZNK6google8protobuf10TextFormat7Printer13PrintToStringERKNS0_7MessageEPNSt7__cxx1112basic_stringIcSt11char_traitsIcESaIcEEE
libgrpc++_reflection.so.1:_ZNK6google8protobuf10TextFormat7Printer14PrintFieldNameERKNS0_7MessageEiiPKNS0_10ReflectionEPKNS0_15FieldDescriptorEPNS2_13TextGeneratorE
libgrpc++_reflection.so.1:_ZNK6google8protobuf10TextFormat7Printer15PrintFieldValueERKNS0_7MessageEPKNS0_10ReflectionEPKNS0_15FieldDescriptorEiPNS2_13TextGeneratorE
libgrpc++_reflection.so.1:_ZNK6google8protobuf10TextFormat7Printer18PrintUnknownFieldsERKNS0_15UnknownFieldSetEPNS0_2io20ZeroCopyOutputStreamE
libgrpc++_reflection.so.1:_ZNK6google8protobuf10TextFormat7Printer18PrintUnknownFieldsERKNS0_15UnknownFieldSetEPNS2_13TextGeneratorE
libgrpc++_reflection.so.1:_ZNK6google8protobuf10TextFormat7Printer23PrintFieldValueToStringERKNS0_7MessageEPKNS0_15FieldDescriptorEiPNSt7__cxx1112basic_stringIcSt11char_traitsIcESaIcEEE
libgrpc++_reflection.so.1:_ZNK6google8protobuf10TextFormat7Printer23PrintShortRepeatedFieldERKNS0_7MessageEPKNS0_10ReflectionEPKNS0_15FieldDescriptorEPNS2_13TextGeneratorE
libgrpc++_reflection.so.1:_ZNK6google8protobuf10TextFormat7Printer26PrintUnknownFieldsToStringERKNS0_15UnknownFieldSetEPNSt7__cxx1112basic_stringIcSt11char_traitsIcESaIcEEE
libgrpc++_reflection.so.1:_ZNK6google8protobuf10TextFormat7Printer5PrintERKNS0_7MessageEPNS0_2io20ZeroCopyOutputStreamE
libgrpc++_reflection.so.1:_ZNK6google8protobuf10TextFormat7Printer5PrintERKNS0_7MessageEPNS2_13TextGeneratorE
libgrpc++_reflection.so.1:_ZNK6google8protobuf10TextFormat7Printer8PrintAnyERKNS0_7MessageEPNS2_13TextGeneratorE
libgrpc++_reflection.so.1:_ZNK6google8protobuf11EnumOptions11GetMetadataEv
libgrpc++_reflection.so.1:_ZNK6google8protobuf11EnumOptions12ByteSizeLongEv
libgrpc++_reflection.so.1:_ZNK6google8protobuf11EnumOptions13IsInitializedEv
libgrpc++_reflection.so.1:_ZNK6google8protobuf11EnumOptions13SetCachedSizeEi
libgrpc++_reflection.so.1:_ZNK6google8protobuf11EnumOptions24SerializeWithCachedSizesEPNS0_2io17CodedOutputStreamE
libgrpc++_reflection.so.1:_ZNK6google8protobuf11EnumOptions39InternalSerializeWithCachedSizesToArrayEPh
libgrpc++_reflection.so.1:_ZNK6google8protobuf11FileOptions11GetMetadataEv
libgrpc++_reflection.so.1:_ZNK6google8protobuf11FileOptions12ByteSizeLongEv
libgrpc++_reflection.so.1:_ZNK6google8protobuf11FileOptions13IsInitializedEv
libgrpc++_reflection.so.1:_ZNK6google8protobuf11FileOptions13SetCachedSizeEi
libgrpc++_reflection.so.1:_ZNK6google8protobuf11FileOptions24SerializeWithCachedSizesEPNS0_2io17CodedOutputStreamE
libgrpc++_reflection.so.1:_ZNK6google8protobuf11FileOptions39InternalSerializeWithCachedSizesToArrayEPh
libgrpc++_reflection.so.1:_ZNK6google8protobuf11MessageLite11DebugStringB5cxx11Ev
libgrpc++_reflection.so.1:_ZNK6google8protobuf11MessageLite14AppendToStringEPNSt7__cxx1112basic_stringIcSt11char_traitsIcESaIcEEE
libgrpc++_reflection.so.1:_ZNK6google8protobuf11MessageLite16SerializeToArrayEPvi
libgrpc++_reflection.so.1:_ZNK6google8protobuf11MessageLite17SerializeAsStringB5cxx11Ev
libgrpc++_reflection.so.1:_ZNK6google8protobuf11MessageLite17SerializeToStringEPNSt7__cxx1112basic_stringIcSt11char_traitsIcESaIcEEE
libgrpc++_reflection.so.1:_ZNK6google8protobuf11MessageLite21AppendPartialToStringEPNSt7__cxx1112basic_stringIcSt11char_traitsIcESaIcEEE
libgrpc++_reflection.so.1:_ZNK6google8protobuf11MessageLite22SerializeToCodedStreamEPNS0_2io17CodedOutputStreamE
libgrpc++_reflection.so.1:_ZNK6google8protobuf11MessageLite23SerializePartialToArrayEPvi
libgrpc++_reflection.so.1:_ZNK6google8protobuf11MessageLite24SerializePartialAsStringB5cxx11Ev
libgrpc++_reflection.so.1:_ZNK6google8protobuf11MessageLite24SerializePartialToStringEPNSt7__cxx1112basic_stringIcSt11char_traitsIcESaIcEEE
libgrpc++_reflection.so.1:_ZNK6google8protobuf11MessageLite24SerializeWithCachedSizesEPNS0_2io17CodedOutputStreamE
libgrpc++_reflection.so.1:_ZNK6google8protobuf11MessageLite25InitializationErrorStringB5cxx11Ev
libgrpc++_reflection.so.1:_ZNK6google8protobuf11MessageLite25SerializeToZeroCopyStreamEPNS0_2io20ZeroCopyOutputStreamE
libgrpc++_reflection.so.1:_ZNK6google8protobuf11MessageLite29LogInitializationErrorMessageEv
libgrpc++_reflection.so.1:_ZNK6google8protobuf11MessageLite29SerializePartialToCodedStreamEPNS0_2io17CodedOutputStreamE
libgrpc++_reflection.so.1:_ZNK6google8protobuf11MessageLite31SerializeWithCachedSizesToArrayEPh
libgrpc++_reflection.so.1:_ZNK6google8protobuf11MessageLite32SerializePartialToZeroCopyStreamEPNS0_2io20ZeroCopyOutputStreamE
libgrpc++_reflection.so.1:_ZNK6google8protobuf11MessageLite39InternalSerializeWithCachedSizesToArrayEPh
libgrpc++_reflection.so.1:_ZNK6google8protobuf11MessageLite3NewEPNS0_5ArenaE
libgrpc++_reflection.so.1:_ZNK6google8protobuf11StringPiece12CopyToStringEPNSt7__cxx1112basic_stringIcSt11char_traitsIcESaIcEEE
libgrpc++_reflection.so.1:_ZNK6google8protobuf11StringPiece12find_last_ofES1_m
libgrpc++_reflection.so.1:_ZNK6google8protobuf11StringPiece13find_first_ofES1_m
libgrpc++_reflection.so.1:_ZNK6google8protobuf11StringPiece14AppendToStringEPNSt7__cxx1112basic_stringIcSt11char_traitsIcESaIcEEE
libgrpc++_reflection.so.1:_ZNK6google8protobuf11StringPiece16find_last_not_ofES1_m
libgrpc++_reflection.so.1:_ZNK6google8protobuf11StringPiece16find_last_not_ofEcm
libgrpc++_reflection.so.1:_ZNK6google8protobuf11StringPiece17find_first_not_ofES1_m
libgrpc++_reflection.so.1:_ZNK6google8protobuf11StringPiece17find_first_not_ofEcm
libgrpc++_reflection.so.1:_ZNK6google8protobuf11StringPiece4copyEPcmm
libgrpc++_reflection.so.1:_ZNK6google8protobuf11StringPiece4findES1_m
libgrpc++_reflection.so.1:_ZNK6google8protobuf11StringPiece4findEcm
libgrpc++_reflection.so.1:_ZNK6google8protobuf11StringPiece5rfindES1_m
libgrpc++_reflection.so.1:_ZNK6google8protobuf11StringPiece5rfindEcm
libgrpc++_reflection.so.1:_ZNK6google8protobuf11StringPiece6substrEmm
libgrpc++_reflection.so.1:_ZNK6google8protobuf11StringPiece8containsES1_
libgrpc++_reflection.so.1:_ZNK6google8protobuf12FieldOptions11GetMetadataEv
libgrpc++_reflection.so.1:_ZNK6google8protobuf12FieldOptions12ByteSizeLongEv
libgrpc++_reflection.so.1:_ZNK6google8protobuf12FieldOptions13IsInitializedEv
libgrpc++_reflection.so.1:_ZNK6google8protobuf12FieldOptions13SetCachedSizeEi
libgrpc++_reflection.so.1:_ZNK6google8protobuf12FieldOptions24SerializeWithCachedSizesEPNS0_2io17CodedOutputStreamE
libgrpc++_reflection.so.1:_ZNK6google8protobuf12FieldOptions39InternalSerializeWithCachedSizesToArrayEPh
libgrpc++_reflection.so.1:_ZNK6google8protobuf12OneofOptions11GetMetadataEv
libgrpc++_reflection.so.1:_ZNK6google8protobuf12OneofOptions12ByteSizeLongEv
libgrpc++_reflection.so.1:_ZNK6google8protobuf12OneofOptions13IsInitializedEv
libgrpc++_reflection.so.1:_ZNK6google8protobuf12OneofOptions13SetCachedSizeEi
libgrpc++_reflection.so.1:_ZNK6google8protobuf12OneofOptions24SerializeWithCachedSizesEPNS0_2io17CodedOutputStreamE
libgrpc++_reflection.so.1:_ZNK6google8protobuf12OneofOptions39InternalSerializeWithCachedSizesToArrayEPh
libgrpc++_reflection.so.1:_ZNK6google8protobuf12UnknownField29SerializeLengthDelimitedNoTagEPNS0_2io17CodedOutputStreamE
libgrpc++_reflection.so.1:_ZNK6google8protobuf12UnknownField36SerializeLengthDelimitedNoTagToArrayEPh
libgrpc++_reflection.so.1:_ZNK6google8protobuf13MethodOptions11GetMetadataEv
libgrpc++_reflection.so.1:_ZNK6google8protobuf13MethodOptions12ByteSizeLongEv
libgrpc++_reflection.so.1:_ZNK6google8protobuf13MethodOptions13IsInitializedEv
libgrpc++_reflection.so.1:_ZNK6google8protobuf13MethodOptions13SetCachedSizeEi
libgrpc++_reflection.so.1:_ZNK6google8protobuf13MethodOptions24SerializeWithCachedSizesEPNS0_2io17CodedOutputStreamE
libgrpc++_reflection.so.1:_ZNK6google8protobuf13MethodOptions39InternalSerializeWithCachedSizesToArrayEPh
libgrpc++_reflection.so.1:_ZNK6google8protobuf14DescriptorPool14FindFileByNameERKNSt7__cxx1112basic_stringIcSt11char_traitsIcESaIcEEE
libgrpc++_reflection.so.1:_ZNK6google8protobuf14DescriptorPool14NewPlaceholderERKNSt7__cxx1112basic_stringIcSt11char_traitsIcESaIcEEENS1_15PlaceholderTypeE
libgrpc++_reflection.so.1:_ZNK6google8protobuf14DescriptorPool15FindFieldByNameERKNSt7__cxx1112basic_stringIcSt11char_traitsIcESaIcEEE
libgrpc++_reflection.so.1:_ZNK6google8protobuf14DescriptorPool15FindOneofByNameERKNSt7__cxx1112basic_stringIcSt11char_traitsIcESaIcEEE
libgrpc++_reflection.so.1:_ZNK6google8protobuf14DescriptorPool16FindMethodByNameERKNSt7__cxx1112basic_stringIcSt11char_traitsIcESaIcEEE
libgrpc++_reflection.so.1:_ZNK6google8protobuf14DescriptorPool17FindAllExtensionsEPKNS0_10DescriptorEPSt6vectorIPKNS0_15FieldDescriptorESaIS8_EE
libgrpc++_reflection.so.1:_ZNK6google8protobuf14DescriptorPool17FindServiceByNameERKNSt7__cxx1112basic_stringIcSt11char_traitsIcESaIcEEE
libgrpc++_reflection.so.1:_ZNK6google8protobuf14DescriptorPool18FindEnumTypeByNameERKNSt7__cxx1112basic_stringIcSt11char_traitsIcESaIcEEE
libgrpc++_reflection.so.1:_ZNK6google8protobuf14DescriptorPool18NewPlaceholderFileERKNSt7__cxx1112basic_stringIcSt11char_traitsIcESaIcEEE
libgrpc++_reflection.so.1:_ZNK6google8protobuf14DescriptorPool19FindEnumValueByNameERKNSt7__cxx1112basic_stringIcSt11char_traitsIcESaIcEEE
libgrpc++_reflection.so.1:_ZNK6google8protobuf14DescriptorPool19FindExtensionByNameERKNSt7__cxx1112basic_stringIcSt11char_traitsIcESaIcEEE
libgrpc++_reflection.so.1:_ZNK6google8protobuf14DescriptorPool20InternalIsFileLoadedERKNSt7__cxx1112basic_stringIcSt11char_traitsIcESaIcEEE
libgrpc++_reflection.so.1:_ZNK6google8protobuf14DescriptorPool21BuildFileFromDatabaseERKNS0_19FileDescriptorProtoE
libgrpc++_reflection.so.1:_ZNK6google8protobuf14DescriptorPool21FindExtensionByNumberEPKNS0_10DescriptorEi
libgrpc++_reflection.so.1:_ZNK6google8protobuf14DescriptorPool21FindMessageTypeByNameERKNSt7__cxx1112basic_stringIcSt11char_traitsIcESaIcEEE
libgrpc++_reflection.so.1:_ZNK6google8protobuf14DescriptorPool22IsSubSymbolOfBuiltTypeERKNSt7__cxx1112basic_stringIcSt11char_traitsIcESaIcEEE
libgrpc++_reflection.so.1:_ZNK6google8protobuf14DescriptorPool23CrossLinkOnDemandHelperERKNSt7__cxx1112basic_stringIcSt11char_traitsIcESaIcEEEb
libgrpc++_reflection.so.1:_ZNK6google8protobuf14DescriptorPool24FindFileContainingSymbolERKNSt7__cxx1112basic_stringIcSt11char_traitsIcESaIcEEE
libgrpc++_reflection.so.1:_ZNK6google8protobuf14DescriptorPool27NewPlaceholderWithMutexHeldERKNSt7__cxx1112basic_stringIcSt11char_traitsIcESaIcEEENS1_15PlaceholderTypeE
libgrpc++_reflection.so.1:_ZNK6google8protobuf14DescriptorPool29TryFindFileInFallbackDatabaseERKNSt7__cxx1112basic_stringIcSt11char_traitsIcESaIcEEE
libgrpc++_reflection.so.1:_ZNK6google8protobuf14DescriptorPool31NewPlaceholderFileWithMutexHeldERKNSt7__cxx1112basic_stringIcSt11char_traitsIcESaIcEEE
libgrpc++_reflection.so.1:_ZNK6google8protobuf14DescriptorPool31TryFindSymbolInFallbackDatabaseERKNSt7__cxx1112basic_stringIcSt11char_traitsIcESaIcEEE
libgrpc++_reflection.so.1:_ZNK6google8protobuf14DescriptorPool34TryFindExtensionInFallbackDatabaseEPKNS0_10DescriptorEi
libgrpc++_reflection.so.1:_ZNK6google8protobuf14DynamicMessage11GetMetadataEv
libgrpc++_reflection.so.1:_ZNK6google8protobuf14DynamicMessage13GetCachedSizeEv
libgrpc++_reflection.so.1:_ZNK6google8protobuf14DynamicMessage13SetCachedSizeEi
libgrpc++_reflection.so.1:_ZNK6google8protobuf14DynamicMessage3NewEPNS0_5ArenaE
libgrpc++_reflection.so.1:_ZNK6google8protobuf14DynamicMessage3NewEv
libgrpc++_reflection.so.1:_ZNK6google8protobuf14EnumDescriptor11DebugStringB5cxx11Ev
libgrpc++_reflection.so.1:_ZNK6google8protobuf14EnumDescriptor11DebugStringEiPNSt7__cxx1112basic_stringIcSt11char_traitsIcESaIcEEERKNS0_18DebugStringOptionsE
libgrpc++_reflection.so.1:_ZNK6google8protobuf14EnumDescriptor15FindValueByNameERKNSt7__cxx1112basic_stringIcSt11char_traitsIcESaIcEEE
libgrpc++_reflection.so.1:_ZNK6google8protobuf14EnumDescriptor15GetLocationPathEPSt6vectorIiSaIiEE
libgrpc++_reflection.so.1:_ZNK6google8protobuf14EnumDescriptor17FindValueByNumberEi
libgrpc++_reflection.so.1:_ZNK6google8protobuf14EnumDescriptor17GetSourceLocationEPNS0_14SourceLocationE
libgrpc++_reflection.so.1:_ZNK6google8protobuf14EnumDescriptor22DebugStringWithOptionsB5cxx11ERKNS0_18DebugStringOptionsE
libgrpc++_reflection.so.1:_ZNK6google8protobuf14EnumDescriptor33FindReservedRangeContainingNumberEi
libgrpc++_reflection.so.1:_ZNK6google8protobuf14EnumDescriptor34FindValueByNumberCreatingIfUnknownEi
libgrpc++_reflection.so.1:_ZNK6google8protobuf14EnumDescriptor6CopyToEPNS0_19EnumDescriptorProtoE
libgrpc++_reflection.so.1:_ZNK6google8protobuf14FatalException4whatEv
libgrpc++_reflection.so.1:_ZNK6google8protobuf14FileDescriptor10dependencyEi
libgrpc++_reflection.so.1:_ZNK6google8protobuf14FileDescriptor11DebugStringB5cxx11Ev
libgrpc++_reflection.so.1:_ZNK6google8protobuf14FileDescriptor14CopyJsonNameToEPNS0_19FileDescriptorProtoE
libgrpc++_reflection.so.1:_ZNK6google8protobuf14FileDescriptor17FindServiceByNameERKNSt7__cxx1112basic_stringIcSt11char_traitsIcESaIcEEE
libgrpc++_reflection.so.1:_ZNK6google8protobuf14FileDescriptor17GetSourceLocationEPNS0_14SourceLocationE
libgrpc++_reflection.so.1:_ZNK6google8protobuf14FileDescriptor17GetSourceLocationERKSt6vectorIiSaIiEEPNS0_14SourceLocationE
libgrpc++_reflection.so.1:_ZNK6google8protobuf14FileDescriptor18FindEnumTypeByNameERKNSt7__cxx1112basic_stringIcSt11char_traitsIcESaIcEEE
libgrpc++_reflection.so.1:_ZNK6google8protobuf14FileDescriptor19FindEnumValueByNameERKNSt7__cxx1112basic_stringIcSt11char_traitsIcESaIcEEE
libgrpc++_reflection.so.1:_ZNK6google8protobuf14FileDescriptor19FindExtensionByNameERKNSt7__cxx1112basic_stringIcSt11char_traitsIcESaIcEEE
libgrpc++_reflection.so.1:_ZNK6google8protobuf14FileDescriptor20CopySourceCodeInfoToEPNS0_19FileDescriptorProtoE
libgrpc++_reflection.so.1:_ZNK6google8protobuf14FileDescriptor21FindMessageTypeByNameERKNSt7__cxx1112basic_stringIcSt11char_traitsIcESaIcEEE
libgrpc++_reflection.so.1:_ZNK6google8protobuf14FileDescriptor22DebugStringWithOptionsB5cxx11ERKNS0_18DebugStringOptionsE
libgrpc++_reflection.so.1:_ZNK6google8protobuf14FileDescriptor28FindExtensionByCamelcaseNameERKNSt7__cxx1112basic_stringIcSt11char_traitsIcESaIcEEE
libgrpc++_reflection.so.1:_ZNK6google8protobuf14FileDescriptor28FindExtensionByLowercaseNameERKNSt7__cxx1112basic_stringIcSt11char_traitsIcESaIcEEE
libgrpc++_reflection.so.1:_ZNK6google8protobuf14FileDescriptor28InternalDependenciesOnceInitEv
libgrpc++_reflection.so.1:_ZNK6google8protobuf14FileDescriptor6CopyToEPNS0_19FileDescriptorProtoE
libgrpc++_reflection.so.1:_ZNK6google8protobuf14MessageOptions11GetMetadataEv
libgrpc++_reflection.so.1:_ZNK6google8protobuf14MessageOptions12ByteSizeLongEv
libgrpc++_reflection.so.1:_ZNK6google8protobuf14MessageOptions13IsInitializedEv
libgrpc++_reflection.so.1:_ZNK6google8protobuf14MessageOptions13SetCachedSizeEi
libgrpc++_reflection.so.1:_ZNK6google8protobuf14MessageOptions24SerializeWithCachedSizesEPNS0_2io17CodedOutputStreamE
libgrpc++_reflection.so.1:_ZNK6google8protobuf14MessageOptions39InternalSerializeWithCachedSizesToArrayEPh
libgrpc++_reflection.so.1:_ZNK6google8protobuf14ServiceOptions11GetMetadataEv
libgrpc++_reflection.so.1:_ZNK6google8protobuf14ServiceOptions12ByteSizeLongEv
libgrpc++_reflection.so.1:_ZNK6google8protobuf14ServiceOptions13IsInitializedEv
libgrpc++_reflection.so.1:_ZNK6google8protobuf14ServiceOptions13SetCachedSizeEi
libgrpc++_reflection.so.1:_ZNK6google8protobuf14ServiceOptions24SerializeWithCachedSizesEPNS0_2io17CodedOutputStreamE
libgrpc++_reflection.so.1:_ZNK6google8protobuf14ServiceOptions39InternalSerializeWithCachedSizesToArrayEPh
libgrpc++_reflection.so.1:_ZNK6google8protobuf14SourceCodeInfo11GetMetadataEv
libgrpc++_reflection.so.1:_ZNK6google8protobuf14SourceCodeInfo12ByteSizeLongEv
libgrpc++_reflection.so.1:_ZNK6google8protobuf14SourceCodeInfo13IsInitializedEv
libgrpc++_reflection.so.1:_ZNK6google8protobuf14SourceCodeInfo13SetCachedSizeEi
libgrpc++_reflection.so.1:_ZNK6google8protobuf14SourceCodeInfo24SerializeWithCachedSizesEPNS0_2io17CodedOutputStreamE
libgrpc++_reflection.so.1:_ZNK6google8protobuf14SourceCodeInfo39InternalSerializeWithCachedSizesToArrayEPh
libgrpc++_reflection.so.1:_ZNK6google8protobuf15DescriptorProto11GetMetadataEv
libgrpc++_reflection.so.1:_ZNK6google8protobuf15DescriptorProto12ByteSizeLongEv
libgrpc++_reflection.so.1:_ZNK6google8protobuf15DescriptorProto13IsInitializedEv
libgrpc++_reflection.so.1:_ZNK6google8protobuf15DescriptorProto13SetCachedSizeEi
libgrpc++_reflection.so.1:_ZNK6google8protobuf15DescriptorProto24SerializeWithCachedSizesEPNS0_2io17CodedOutputStreamE
libgrpc++_reflection.so.1:_ZNK6google8protobuf15DescriptorProto39InternalSerializeWithCachedSizesToArrayEPh
libgrpc++_reflection.so.1:_ZNK6google8protobuf15FieldDescriptor11DebugStringB5cxx11Ev
libgrpc++_reflection.so.1:_ZNK6google8protobuf15FieldDescriptor11DebugStringEiNS1_14PrintLabelFlagEPNSt7__cxx1112basic_stringIcSt11char_traitsIcESaIcEEERKNS0_18DebugStringOptionsE
libgrpc++_reflection.so.1:_ZNK6google8protobuf15FieldDescriptor12message_typeEv
libgrpc++_reflection.so.1:_ZNK6google8protobuf15FieldDescriptor14CopyJsonNameToEPNS0_20FieldDescriptorProtoE
libgrpc++_reflection.so.1:_ZNK6google8protobuf15FieldDescriptor15GetLocationPathEPSt6vectorIiSaIiEE
libgrpc++_reflection.so.1:_ZNK6google8protobuf15FieldDescriptor17GetSourceLocationEPNS0_14SourceLocationE
libgrpc++_reflection.so.1:_ZNK6google8protobuf15FieldDescriptor18default_value_enumEv
libgrpc++_reflection.so.1:_ZNK6google8protobuf15FieldDescriptor19is_map_message_typeEv
libgrpc++_reflection.so.1:_ZNK6google8protobuf15FieldDescriptor20DefaultValueAsStringB5cxx11Eb
libgrpc++_reflection.so.1:_ZNK6google8protobuf15FieldDescriptor20InternalTypeOnceInitEv
libgrpc++_reflection.so.1:_ZNK6google8protobuf15FieldDescriptor22DebugStringWithOptionsB5cxx11ERKNS0_18DebugStringOptionsE
libgrpc++_reflection.so.1:_ZNK6google8protobuf15FieldDescriptor24FieldTypeNameDebugStringB5cxx11Ev
libgrpc++_reflection.so.1:_ZNK6google8protobuf15FieldDescriptor6CopyToEPNS0_20FieldDescriptorProtoE
libgrpc++_reflection.so.1:_ZNK6google8protobuf15FieldDescriptor9enum_typeEv
libgrpc++_reflection.so.1:_ZNK6google8protobuf15FieldDescriptor9is_packedEv
libgrpc++_reflection.so.1:_ZNK6google8protobuf15OneofDescriptor11DebugStringB5cxx11Ev
libgrpc++_reflection.so.1:_ZNK6google8protobuf15OneofDescriptor11DebugStringEiPNSt7__cxx1112basic_stringIcSt11char_traitsIcESaIcEEERKNS0_18DebugStringOptionsE
libgrpc++_reflection.so.1:_ZNK6google8protobuf15OneofDescriptor15GetLocationPathEPSt6vectorIiSaIiEE
libgrpc++_reflection.so.1:_ZNK6google8protobuf15OneofDescriptor17GetSourceLocationEPNS0_14SourceLocationE
libgrpc++_reflection.so.1:_ZNK6google8protobuf15OneofDescriptor22DebugStringWithOptionsB5cxx11ERKNS0_18DebugStringOptionsE
libgrpc++_reflection.so.1:_ZNK6google8protobuf15OneofDescriptor6CopyToEPNS0_20OneofDescriptorProtoE
libgrpc++_reflection.so.1:_ZNK6google8protobuf15UnknownFieldSet13SpaceUsedLongEv
libgrpc++_reflection.so.1:_ZNK6google8protobuf15UnknownFieldSet26SpaceUsedExcludingSelfLongEv
libgrpc++_reflection.so.1:_ZNK6google8protobuf16EnumValueOptions11GetMetadataEv
libgrpc++_reflection.so.1:_ZNK6google8protobuf16EnumValueOptions12ByteSizeLongEv
libgrpc++_reflection.so.1:_ZNK6google8protobuf16EnumValueOptions13IsInitializedEv
libgrpc++_reflection.so.1:_ZNK6google8protobuf16EnumValueOptions13SetCachedSizeEi
libgrpc++_reflection.so.1:_ZNK6google8protobuf16EnumValueOptions24SerializeWithCachedSizesEPNS0_2io17CodedOutputStreamE
libgrpc++_reflection.so.1:_ZNK6google8protobuf16EnumValueOptions39InternalSerializeWithCachedSizesToArrayEPh
libgrpc++_reflection.so.1:_ZNK6google8protobuf16MethodDescriptor10input_typeEv
libgrpc++_reflection.so.1:_ZNK6google8protobuf16MethodDescriptor11DebugStringB5cxx11Ev
libgrpc++_reflection.so.1:_ZNK6google8protobuf16MethodDescriptor11DebugStringEiPNSt7__cxx1112basic_stringIcSt11char_traitsIcESaIcEEERKNS0_18DebugStringOptionsE
libgrpc++_reflection.so.1:_ZNK6google8protobuf16MethodDescriptor11output_typeEv
libgrpc++_reflection.so.1:_ZNK6google8protobuf16MethodDescriptor15GetLocationPathEPSt6vectorIiSaIiEE
libgrpc++_reflection.so.1:_ZNK6google8protobuf16MethodDescriptor17GetSourceLocationEPNS0_14SourceLocationE
libgrpc++_reflection.so.1:_ZNK6google8protobuf16MethodDescriptor22DebugStringWithOptionsB5cxx11ERKNS0_18DebugStringOptionsE
libgrpc++_reflection.so.1:_ZNK6google8protobuf16MethodDescriptor6CopyToEPNS0_21MethodDescriptorProtoE
libgrpc++_reflection.so.1:_ZNK6google8protobuf17FileDescriptorSet11GetMetadataEv
libgrpc++_reflection.so.1:_ZNK6google8protobuf17FileDescriptorSet12ByteSizeLongEv
libgrpc++_reflection.so.1:_ZNK6google8protobuf17FileDescriptorSet13IsInitializedEv
libgrpc++_reflection.so.1:_ZNK6google8protobuf17FileDescriptorSet13SetCachedSizeEi
libgrpc++_reflection.so.1:_ZNK6google8protobuf17FileDescriptorSet24SerializeWithCachedSizesEPNS0_2io17CodedOutputStreamE
libgrpc++_reflection.so.1:_ZNK6google8protobuf17FileDescriptorSet39InternalSerializeWithCachedSizesToArrayEPh
libgrpc++_reflection.so.1:_ZNK6google8protobuf17GeneratedCodeInfo11GetMetadataEv
libgrpc++_reflection.so.1:_ZNK6google8protobuf17GeneratedCodeInfo12ByteSizeLongEv
libgrpc++_reflection.so.1:_ZNK6google8protobuf17GeneratedCodeInfo13IsInitializedEv
libgrpc++_reflection.so.1:_ZNK6google8protobuf17GeneratedCodeInfo13SetCachedSizeEi
libgrpc++_reflection.so.1:_ZNK6google8protobuf17GeneratedCodeInfo24SerializeWithCachedSizesEPNS0_2io17CodedOutputStreamE
libgrpc++_reflection.so.1:_ZNK6google8protobuf17GeneratedCodeInfo39InternalSerializeWithCachedSizesToArrayEPh
libgrpc++_reflection.so.1:_ZNK6google8protobuf17ServiceDescriptor11DebugStringB5cxx11Ev
libgrpc++_reflection.so.1:_ZNK6google8protobuf17ServiceDescriptor11DebugStringEPNSt7__cxx1112basic_stringIcSt11char_traitsIcESaIcEEERKNS0_18DebugStringOptionsE
libgrpc++_reflection.so.1:_ZNK6google8protobuf17ServiceDescriptor15GetLocationPathEPSt6vectorIiSaIiEE
libgrpc++_reflection.so.1:_ZNK6google8protobuf17ServiceDescriptor16FindMethodByNameERKNSt7__cxx1112basic_stringIcSt11char_traitsIcESaIcEEE
libgrpc++_reflection.so.1:_ZNK6google8protobuf17ServiceDescriptor17GetSourceLocationEPNS0_14SourceLocationE
libgrpc++_reflection.so.1:_ZNK6google8protobuf17ServiceDescriptor22DebugStringWithOptionsB5cxx11ERKNS0_18DebugStringOptionsE
libgrpc++_reflection.so.1:_ZNK6google8protobuf17ServiceDescriptor6CopyToEPNS0_22ServiceDescriptorProtoE
libgrpc++_reflection.so.1:_ZNK6google8protobuf19EnumDescriptorProto11GetMetadataEv
libgrpc++_reflection.so.1:_ZNK6google8protobuf19EnumDescriptorProto12ByteSizeLongEv
libgrpc++_reflection.so.1:_ZNK6google8protobuf19EnumDescriptorProto13IsInitializedEv
libgrpc++_reflection.so.1:_ZNK6google8protobuf19EnumDescriptorProto13SetCachedSizeEi
libgrpc++_reflection.so.1:_ZNK6google8protobuf19EnumDescriptorProto24SerializeWithCachedSizesEPNS0_2io17CodedOutputStreamE
libgrpc++_reflection.so.1:_ZNK6google8protobuf19EnumDescriptorProto39InternalSerializeWithCachedSizesToArrayEPh
libgrpc++_reflection.so.1:_ZNK6google8protobuf19EnumValueDescriptor11DebugStringB5cxx11Ev
libgrpc++_reflection.so.1:_ZNK6google8protobuf19EnumValueDescriptor11DebugStringEiPNSt7__cxx1112basic_stringIcSt11char_traitsIcESaIcEEERKNS0_18DebugStringOptionsE
libgrpc++_reflection.so.1:_ZNK6google8protobuf19EnumValueDescriptor15GetLocationPathEPSt6vectorIiSaIiEE
libgrpc++_reflection.so.1:_ZNK6google8protobuf19EnumValueDescriptor17GetSourceLocationEPNS0_14SourceLocationE
libgrpc++_reflection.so.1:_ZNK6google8protobuf19EnumValueDescriptor22DebugStringWithOptionsB5cxx11ERKNS0_18DebugStringOptionsE
libgrpc++_reflection.so.1:_ZNK6google8protobuf19EnumValueDescriptor6CopyToEPNS0_24EnumValueDescriptorProtoE
libgrpc++_reflection.so.1:_ZNK6google8protobuf19FileDescriptorProto11GetMetadataEv
libgrpc++_reflection.so.1:_ZNK6google8protobuf19FileDescriptorProto12ByteSizeLongEv
libgrpc++_reflection.so.1:_ZNK6google8protobuf19FileDescriptorProto13IsInitializedEv
libgrpc++_reflection.so.1:_ZNK6google8protobuf19FileDescriptorProto13SetCachedSizeEi
libgrpc++_reflection.so.1:_ZNK6google8protobuf19FileDescriptorProto24SerializeWithCachedSizesEPNS0_2io17CodedOutputStreamE
libgrpc++_reflection.so.1:_ZNK6google8protobuf19FileDescriptorProto39InternalSerializeWithCachedSizesToArrayEPh
libgrpc++_reflection.so.1:_ZNK6google8protobuf19UninterpretedOption11GetMetadataEv
libgrpc++_reflection.so.1:_ZNK6google8protobuf19UninterpretedOption12ByteSizeLongEv
libgrpc++_reflection.so.1:_ZNK6google8protobuf19UninterpretedOption13IsInitializedEv
libgrpc++_reflection.so.1:_ZNK6google8protobuf19UninterpretedOption13SetCachedSizeEi
libgrpc++_reflection.so.1:_ZNK6google8protobuf19UninterpretedOption24SerializeWithCachedSizesEPNS0_2io17CodedOutputStreamE
libgrpc++_reflection.so.1:_ZNK6google8protobuf19UninterpretedOption39InternalSerializeWithCachedSizesToArrayEPh
libgrpc++_reflection.so.1:_ZNK6google8protobuf20FieldDescriptorProto11GetMetadataEv
libgrpc++_reflection.so.1:_ZNK6google8protobuf20FieldDescriptorProto12ByteSizeLongEv
libgrpc++_reflection.so.1:_ZNK6google8protobuf20FieldDescriptorProto13IsInitializedEv
libgrpc++_reflection.so.1:_ZNK6google8protobuf20FieldDescriptorProto13SetCachedSizeEi
libgrpc++_reflection.so.1:_ZNK6google8protobuf20FieldDescriptorProto24SerializeWithCachedSizesEPNS0_2io17CodedOutputStreamE
libgrpc++_reflection.so.1:_ZNK6google8protobuf20FieldDescriptorProto39InternalSerializeWithCachedSizesToArrayEPh
libgrpc++_reflection.so.1:_ZNK6google8protobuf20FileDescriptorTables17GetSourceLocationERKSt6vectorIiSaIiEEPKNS0_14SourceCodeInfoE
libgrpc++_reflection.so.1:_ZNK6google8protobuf20FileDescriptorTables24FindParentForFieldsByMapEPKNS0_15FieldDescriptorE
libgrpc++_reflection.so.1:_ZNK6google8protobuf20FileDescriptorTables38FieldsByCamelcaseNamesLazyInitInternalEv
libgrpc++_reflection.so.1:_ZNK6google8protobuf20FileDescriptorTables38FieldsByLowercaseNamesLazyInitInternalEv
libgrpc++_reflection.so.1:_ZNK6google8protobuf20OneofDescriptorProto11GetMetadataEv
libgrpc++_reflection.so.1:_ZNK6google8protobuf20OneofDescriptorProto12ByteSizeLongEv
libgrpc++_reflection.so.1:_ZNK6google8protobuf20OneofDescriptorProto13IsInitializedEv
libgrpc++_reflection.so.1:_ZNK6google8protobuf20OneofDescriptorProto13SetCachedSizeEi
libgrpc++_reflection.so.1:_ZNK6google8protobuf20OneofDescriptorProto24SerializeWithCachedSizesEPNS0_2io17CodedOutputStreamE
libgrpc++_reflection.so.1:_ZNK6google8protobuf20OneofDescriptorProto39InternalSerializeWithCachedSizesToArrayEPh
libgrpc++_reflection.so.1:_ZNK6google8protobuf21ExtensionRangeOptions11GetMetadataEv
libgrpc++_reflection.so.1:_ZNK6google8protobuf21ExtensionRangeOptions12ByteSizeLongEv
libgrpc++_reflection.so.1:_ZNK6google8protobuf21ExtensionRangeOptions13IsInitializedEv
libgrpc++_reflection.so.1:_ZNK6google8protobuf21ExtensionRangeOptions13SetCachedSizeEi
libgrpc++_reflection.so.1:_ZNK6google8protobuf21ExtensionRangeOptions24SerializeWithCachedSizesEPNS0_2io17CodedOutputStreamE
libgrpc++_reflection.so.1:_ZNK6google8protobuf21ExtensionRangeOptions39InternalSerializeWithCachedSizesToArrayEPh
libgrpc++_reflection.so.1:_ZNK6google8protobuf21MethodDescriptorProto11GetMetadataEv
libgrpc++_reflection.so.1:_ZNK6google8protobuf21MethodDescriptorProto12ByteSizeLongEv
libgrpc++_reflection.so.1:_ZNK6google8protobuf21MethodDescriptorProto13IsInitializedEv
libgrpc++_reflection.so.1:_ZNK6google8protobuf21MethodDescriptorProto13SetCachedSizeEi
libgrpc++_reflection.so.1:_ZNK6google8protobuf21MethodDescriptorProto24SerializeWithCachedSizesEPNS0_2io17CodedOutputStreamE
libgrpc++_reflection.so.1:_ZNK6google8protobuf21MethodDescriptorProto39InternalSerializeWithCachedSizesToArrayEPh
libgrpc++_reflection.so.1:_ZNK6google8protobuf22ServiceDescriptorProto11GetMetadataEv
libgrpc++_reflection.so.1:_ZNK6google8protobuf22ServiceDescriptorProto12ByteSizeLongEv
libgrpc++_reflection.so.1:_ZNK6google8protobuf22ServiceDescriptorProto13IsInitializedEv
libgrpc++_reflection.so.1:_ZNK6google8protobuf22ServiceDescriptorProto13SetCachedSizeEi
libgrpc++_reflection.so.1:_ZNK6google8protobuf22ServiceDescriptorProto24SerializeWithCachedSizesEPNS0_2io17CodedOutputStreamE
libgrpc++_reflection.so.1:_ZNK6google8protobuf22ServiceDescriptorProto39InternalSerializeWithCachedSizesToArrayEPh
libgrpc++_reflection.so.1:_ZNK6google8protobuf23SourceCodeInfo_Location11GetMetadataEv
libgrpc++_reflection.so.1:_ZNK6google8protobuf23SourceCodeInfo_Location12ByteSizeLongEv
libgrpc++_reflection.so.1:_ZNK6google8protobuf23SourceCodeInfo_Location13IsInitializedEv
libgrpc++_reflection.so.1:_ZNK6google8protobuf23SourceCodeInfo_Location13SetCachedSizeEi
libgrpc++_reflection.so.1:_ZNK6google8protobuf23SourceCodeInfo_Location24SerializeWithCachedSizesEPNS0_2io17CodedOutputStreamE
libgrpc++_reflection.so.1:_ZNK6google8protobuf23SourceCodeInfo_Location39InternalSerializeWithCachedSizesToArrayEPh
libgrpc++_reflection.so.1:_ZNK6google8protobuf24EnumValueDescriptorProto11GetMetadataEv
libgrpc++_reflection.so.1:_ZNK6google8protobuf24EnumValueDescriptorProto12ByteSizeLongEv
libgrpc++_reflection.so.1:_ZNK6google8protobuf24EnumValueDescriptorProto13IsInitializedEv
libgrpc++_reflection.so.1:_ZNK6google8protobuf24EnumValueDescriptorProto13SetCachedSizeEi
libgrpc++_reflection.so.1:_ZNK6google8protobuf24EnumValueDescriptorProto24SerializeWithCachedSizesEPNS0_2io17CodedOutputStreamE
libgrpc++_reflection.so.1:_ZNK6google8protobuf24EnumValueDescriptorProto39InternalSerializeWithCachedSizesToArrayEPh
libgrpc++_reflection.so.1:_ZNK6google8protobuf28GeneratedCodeInfo_Annotation11GetMetadataEv
libgrpc++_reflection.so.1:_ZNK6google8protobuf28GeneratedCodeInfo_Annotation12ByteSizeLongEv
libgrpc++_reflection.so.1:_ZNK6google8protobuf28GeneratedCodeInfo_Annotation13IsInitializedEv
libgrpc++_reflection.so.1:_ZNK6google8protobuf28GeneratedCodeInfo_Annotation13SetCachedSizeEi
libgrpc++_reflection.so.1:_ZNK6google8protobuf28GeneratedCodeInfo_Annotation24SerializeWithCachedSizesEPNS0_2io17CodedOutputStreamE
libgrpc++_reflection.so.1:_ZNK6google8protobuf28GeneratedCodeInfo_Annotation39InternalSerializeWithCachedSizesToArrayEPh
libgrpc++_reflection.so.1:_ZNK6google8protobuf28UninterpretedOption_NamePart11GetMetadataEv
libgrpc++_reflection.so.1:_ZNK6google8protobuf28UninterpretedOption_NamePart12ByteSizeLongEv
libgrpc++_reflection.so.1:_ZNK6google8protobuf28UninterpretedOption_NamePart13IsInitializedEv
libgrpc++_reflection.so.1:_ZNK6google8protobuf28UninterpretedOption_NamePart13SetCachedSizeEi
libgrpc++_reflection.so.1:_ZNK6google8protobuf28UninterpretedOption_NamePart24SerializeWithCachedSizesEPNS0_2io17CodedOutputStreamE
libgrpc++_reflection.so.1:_ZNK6google8protobuf28UninterpretedOption_NamePart30RequiredFieldsByteSizeFallbackEv
libgrpc++_reflection.so.1:_ZNK6google8protobuf28UninterpretedOption_NamePart39InternalSerializeWithCachedSizesToArrayEPh
libgrpc++_reflection.so.1:_ZNK6google8protobuf29DescriptorProto_ReservedRange11GetMetadataEv
libgrpc++_reflection.so.1:_ZNK6google8protobuf29DescriptorProto_ReservedRange12ByteSizeLongEv
libgrpc++_reflection.so.1:_ZNK6google8protobuf29DescriptorProto_ReservedRange13IsInitializedEv
libgrpc++_reflection.so.1:_ZNK6google8protobuf29DescriptorProto_ReservedRange13SetCachedSizeEi
libgrpc++_reflection.so.1:_ZNK6google8protobuf29DescriptorProto_ReservedRange24SerializeWithCachedSizesEPNS0_2io17CodedOutputStreamE
libgrpc++_reflection.so.1:_ZNK6google8protobuf29DescriptorProto_ReservedRange39InternalSerializeWithCachedSizesToArrayEPh
libgrpc++_reflection.so.1:_ZNK6google8protobuf2io15FileInputStream9ByteCountEv
libgrpc++_reflection.so.1:_ZNK6google8protobuf2io16ArrayInputStream9ByteCountEv
libgrpc++_reflection.so.1:_ZNK6google8protobuf2io16CodedInputStream15BytesUntilLimitEv
libgrpc++_reflection.so.1:_ZNK6google8protobuf2io16CodedInputStream25BytesUntilTotalBytesLimitEv
libgrpc++_reflection.so.1:_ZNK6google8protobuf2io16FileOutputStream9ByteCountEv
libgrpc++_reflection.so.1:_ZNK6google8protobuf2io17ArrayOutputStream9ByteCountEv
libgrpc++_reflection.so.1:_ZNK6google8protobuf2io18IstreamInputStream9ByteCountEv
libgrpc++_reflection.so.1:_ZNK6google8protobuf2io18StringOutputStream9ByteCountEv
libgrpc++_reflection.so.1:_ZNK6google8protobuf2io19LimitingInputStream9ByteCountEv
libgrpc++_reflection.so.1:_ZNK6google8protobuf2io19OstreamOutputStream9ByteCountEv
libgrpc++_reflection.so.1:_ZNK6google8protobuf2io24ConcatenatingInputStream9ByteCountEv
libgrpc++_reflection.so.1:_ZNK6google8protobuf2io25CopyingInputStreamAdaptor9ByteCountEv
libgrpc++_reflection.so.1:_ZNK6google8protobuf2io26CopyingOutputStreamAdaptor9ByteCountEv
libgrpc++_reflection.so.1:_ZNK6google8protobuf30DescriptorProto_ExtensionRange11GetMetadataEv
libgrpc++_reflection.so.1:_ZNK6google8protobuf30DescriptorProto_ExtensionRange12ByteSizeLongEv
libgrpc++_reflection.so.1:_ZNK6google8protobuf30DescriptorProto_ExtensionRange13IsInitializedEv
libgrpc++_reflection.so.1:_ZNK6google8protobuf30DescriptorProto_ExtensionRange13SetCachedSizeEi
libgrpc++_reflection.so.1:_ZNK6google8protobuf30DescriptorProto_ExtensionRange24SerializeWithCachedSizesEPNS0_2io17CodedOutputStreamE
libgrpc++_reflection.so.1:_ZNK6google8protobuf30DescriptorProto_ExtensionRange39InternalSerializeWithCachedSizesToArrayEPh
libgrpc++_reflection.so.1:_ZNK6google8protobuf37EnumDescriptorProto_EnumReservedRange11GetMetadataEv
libgrpc++_reflection.so.1:_ZNK6google8protobuf37EnumDescriptorProto_EnumReservedRange12ByteSizeLongEv
libgrpc++_reflection.so.1:_ZNK6google8protobuf37EnumDescriptorProto_EnumReservedRange13IsInitializedEv
libgrpc++_reflection.so.1:_ZNK6google8protobuf37EnumDescriptorProto_EnumReservedRange13SetCachedSizeEi
libgrpc++_reflection.so.1:_ZNK6google8protobuf37EnumDescriptorProto_EnumReservedRange24SerializeWithCachedSizesEPNS0_2io17CodedOutputStreamE
libgrpc++_reflection.so.1:_ZNK6google8protobuf37EnumDescriptorProto_EnumReservedRange39InternalSerializeWithCachedSizesToArrayEPh
libgrpc++_reflection.so.1:_ZNK6google8protobuf4util6Status8ToStringB5cxx11Ev
libgrpc++_reflection.so.1:_ZNK6google8protobuf4util6StatuseqERKS2_
libgrpc++_reflection.so.1:_ZNK6google8protobuf5Arena17OnArenaAllocationEPKSt9type_infom
libgrpc++_reflection.so.1:_ZNK6google8protobuf7Message11DebugStringB5cxx11Ev
libgrpc++_reflection.so.1:_ZNK6google8protobuf7Message11GetTypeNameB5cxx11Ev
libgrpc++_reflection.so.1:_ZNK6google8protobuf7Message12ByteSizeLongEv
libgrpc++_reflection.so.1:_ZNK6google8protobuf7Message13IsInitializedEv
libgrpc++_reflection.so.1:_ZNK6google8protobuf7Message13SetCachedSizeEi
libgrpc++_reflection.so.1:_ZNK6google8protobuf7Message13SpaceUsedLongEv
libgrpc++_reflection.so.1:_ZNK6google8protobuf7Message15Utf8DebugStringB5cxx11Ev
libgrpc++_reflection.so.1:_ZNK6google8protobuf7Message16CheckInitializedEv
libgrpc++_reflection.so.1:_ZNK6google8protobuf7Message16PrintDebugStringEv
libgrpc++_reflection.so.1:_ZNK6google8protobuf7Message16ShortDebugStringB5cxx11Ev
libgrpc++_reflection.so.1:_ZNK6google8protobuf7Message18SerializeToOstreamEPSo
libgrpc++_reflection.so.1:_ZNK6google8protobuf7Message24FindInitializationErrorsEPSt6vectorINSt7__cxx1112basic_stringIcSt11char_traitsIcESaIcEEESaIS8_EE
libgrpc++_reflection.so.1:_ZNK6google8protobuf7Message24SerializeWithCachedSizesEPNS0_2io17CodedOutputStreamE
libgrpc++_reflection.so.1:_ZNK6google8protobuf7Message25InitializationErrorStringB5cxx11Ev
libgrpc++_reflection.so.1:_ZNK6google8protobuf7Message25SerializePartialToOstreamEPSo
libgrpc++_reflection.so.1:_ZNK6google8protobuf7Message25SerializeToFileDescriptorEi
libgrpc++_reflection.so.1:_ZNK6google8protobuf7Message32SerializePartialToFileDescriptorEi
libgrpc++_reflection.so.1:_ZNK6google8protobuf8internal11AnyMetadata10InternalIsENS0_11StringPieceE
libgrpc++_reflection.so.1:_ZNK6google8protobuf8internal11AnyMetadata16InternalUnpackToENS0_11StringPieceEPNS0_11MessageLiteE
libgrpc++_reflection.so.1:_ZNK6google8protobuf8internal11AnyMetadata8UnpackToEPNS0_7MessageE
libgrpc++_reflection.so.1:_ZNK6google8protobuf8internal12ExtensionSet10FindOrNullEi
libgrpc++_reflection.so.1:_ZNK6google8protobuf8internal12ExtensionSet10GetMessageEiPKNS0_10DescriptorEPNS0_14MessageFactoryE
libgrpc++_reflection.so.1:_ZNK6google8protobuf8internal12ExtensionSet10GetMessageEiRKNS0_11MessageLiteE
libgrpc++_reflection.so.1:_ZNK6google8protobuf8internal12ExtensionSet12AppendToListEPKNS0_10DescriptorEPKNS0_14DescriptorPoolEPSt6vectorIPKNS0_15FieldDescriptorESaISC_EE
libgrpc++_reflection.so.1:_ZNK6google8protobuf8internal12ExtensionSet13ExtensionSizeEi
libgrpc++_reflection.so.1:_ZNK6google8protobuf8internal12ExtensionSet13ExtensionTypeEi
libgrpc++_reflection.so.1:_ZNK6google8protobuf8internal12ExtensionSet13IsInitializedEv
libgrpc++_reflection.so.1:_ZNK6google8protobuf8internal12ExtensionSet13NumExtensionsEv
libgrpc++_reflection.so.1:_ZNK6google8protobuf8internal12ExtensionSet15GetRepeatedBoolEii
libgrpc++_reflection.so.1:_ZNK6google8protobuf8internal12ExtensionSet15GetRepeatedEnumEii
libgrpc++_reflection.so.1:_ZNK6google8protobuf8internal12ExtensionSet16GetRepeatedFloatEii
libgrpc++_reflection.so.1:_ZNK6google8protobuf8internal12ExtensionSet16GetRepeatedInt32Eii
libgrpc++_reflection.so.1:_ZNK6google8protobuf8internal12ExtensionSet16GetRepeatedInt64Eii
libgrpc++_reflection.so.1:_ZNK6google8protobuf8internal12ExtensionSet17GetRepeatedDoubleEii
libgrpc++_reflection.so.1:_ZNK6google8protobuf8internal12ExtensionSet17GetRepeatedStringB5cxx11Eii
libgrpc++_reflection.so.1:_ZNK6google8protobuf8internal12ExtensionSet17GetRepeatedUInt32Eii
libgrpc++_reflection.so.1:_ZNK6google8protobuf8internal12ExtensionSet17GetRepeatedUInt64Eii
libgrpc++_reflection.so.1:_ZNK6google8protobuf8internal12ExtensionSet18GetRepeatedMessageEii
libgrpc++_reflection.so.1:_ZNK6google8protobuf8internal12ExtensionSet18MessageSetByteSizeEv
libgrpc++_reflection.so.1:_ZNK6google8protobuf8internal12ExtensionSet19GetRawRepeatedFieldEiPKv
libgrpc++_reflection.so.1:_ZNK6google8protobuf8internal12ExtensionSet20FindOrNullInLargeMapEi
libgrpc++_reflection.so.1:_ZNK6google8protobuf8internal12ExtensionSet22SpaceUsedExcludingSelfEv
libgrpc++_reflection.so.1:_ZNK6google8protobuf8internal12ExtensionSet24SerializeWithCachedSizesEiiPNS0_2io17CodedOutputStreamE
libgrpc++_reflection.so.1:_ZNK6google8protobuf8internal12ExtensionSet26SpaceUsedExcludingSelfLongEv
libgrpc++_reflection.so.1:_ZNK6google8protobuf8internal12ExtensionSet31SerializeWithCachedSizesToArrayEiiPh
libgrpc++_reflection.so.1:_ZNK6google8protobuf8internal12ExtensionSet34SerializeMessageSetWithCachedSizesEPNS0_2io17CodedOutputStreamE
libgrpc++_reflection.so.1:_ZNK6google8protobuf8internal12ExtensionSet39InternalSerializeWithCachedSizesToArrayEiiPh
libgrpc++_reflection.so.1:_ZNK6google8protobuf8internal12ExtensionSet3HasEi
libgrpc++_reflection.so.1:_ZNK6google8protobuf8internal12ExtensionSet41SerializeMessageSetWithCachedSizesToArrayEPh
libgrpc++_reflection.so.1:_ZNK6google8protobuf8internal12ExtensionSet49InternalSerializeMessageSetWithCachedSizesToArrayEPh
libgrpc++_reflection.so.1:_ZNK6google8protobuf8internal12ExtensionSet7GetBoolEib
libgrpc++_reflection.so.1:_ZNK6google8protobuf8internal12ExtensionSet7GetEnumEii
libgrpc++_reflection.so.1:_ZNK6google8protobuf8internal12ExtensionSet8ByteSizeEv
libgrpc++_reflection.so.1:_ZNK6google8protobuf8internal12ExtensionSet8GetFloatEif
libgrpc++_reflection.so.1:_ZNK6google8protobuf8internal12ExtensionSet8GetInt32Eii
libgrpc++_reflection.so.1:_ZNK6google8protobuf8internal12ExtensionSet8GetInt64Eil
libgrpc++_reflection.so.1:_ZNK6google8protobuf8internal12ExtensionSet9Extension13IsInitializedEv
libgrpc++_reflection.so.1:_ZNK6google8protobuf8internal12ExtensionSet9Extension22MessageSetItemByteSizeEi
libgrpc++_reflection.so.1:_ZNK6google8protobuf8internal12ExtensionSet9Extension26SpaceUsedExcludingSelfLongEv
libgrpc++_reflection.so.1:_ZNK6google8protobuf8internal12ExtensionSet9Extension29SerializeFieldWithCachedSizesEiPNS0_2io17CodedOutputStreamE
libgrpc++_reflection.so.1:_ZNK6google8protobuf8internal12ExtensionSet9Extension38SerializeMessageSetItemWithCachedSizesEiPNS0_2io17CodedOutputStreamE
libgrpc++_reflection.so.1:_ZNK6google8protobuf8internal12ExtensionSet9Extension44InternalSerializeFieldWithCachedSizesToArrayEiPh
libgrpc++_reflection.so.1:_ZNK6google8protobuf8internal12ExtensionSet9Extension53InternalSerializeMessageSetItemWithCachedSizesToArrayEiPh
libgrpc++_reflection.so.1:_ZNK6google8protobuf8internal12ExtensionSet9Extension7GetSizeEv
libgrpc++_reflection.so.1:_ZNK6google8protobuf8internal12ExtensionSet9Extension8ByteSizeEi
libgrpc++_reflection.so.1:_ZNK6google8protobuf8internal12ExtensionSet9GetDoubleEid
libgrpc++_reflection.so.1:_ZNK6google8protobuf8internal12ExtensionSet9GetStringEiRKNSt7__cxx1112basic_stringIcSt11char_traitsIcESaIcEEE
libgrpc++_reflection.so.1:_ZNK6google8protobuf8internal12ExtensionSet9GetUInt32Eij
libgrpc++_reflection.so.1:_ZNK6google8protobuf8internal12ExtensionSet9GetUInt64Eim
libgrpc++_reflection.so.1:_ZNK6google8protobuf8internal12MapFieldBase10IsMapValidEv
libgrpc++_reflection.so.1:_ZNK6google8protobuf8internal12MapFieldBase16GetRepeatedFieldEv
libgrpc++_reflection.so.1:_ZNK6google8protobuf8internal12MapFieldBase20IsRepeatedFieldValidEv
libgrpc++_reflection.so.1:_ZNK6google8protobuf8internal12MapFieldBase23MutableRepeatedPtrFieldEv
libgrpc++_reflection.so.1:_ZNK6google8protobuf8internal12MapFieldBase24SyncMapWithRepeatedFieldEv
libgrpc++_reflection.so.1:_ZNK6google8protobuf8internal12MapFieldBase24SyncRepeatedFieldWithMapEv
libgrpc++_reflection.so.1:_ZNK6google8protobuf8internal12MapFieldBase26SpaceUsedExcludingSelfLongEv
libgrpc++_reflection.so.1:_ZNK6google8protobuf8internal12MapFieldBase28SpaceUsedExcludingSelfNoLockEv
libgrpc++_reflection.so.1:_ZNK6google8protobuf8internal12MapFieldBase30SyncRepeatedFieldWithMapNoLockEv
libgrpc++_reflection.so.1:_ZNK6google8protobuf8internal15DynamicMapField14ContainsMapKeyERKNS0_6MapKeyE
libgrpc++_reflection.so.1:_ZNK6google8protobuf8internal15DynamicMapField19SetMapIteratorValueEPNS0_11MapIteratorE
libgrpc++_reflection.so.1:_ZNK6google8protobuf8internal15DynamicMapField28SpaceUsedExcludingSelfNoLockEv
libgrpc++_reflection.so.1:_ZNK6google8protobuf8internal15DynamicMapField30SyncMapWithRepeatedFieldNoLockEv
libgrpc++_reflection.so.1:_ZNK6google8protobuf8internal15DynamicMapField30SyncRepeatedFieldWithMapNoLockEv
libgrpc++_reflection.so.1:_ZNK6google8protobuf8internal15DynamicMapField4sizeEv
libgrpc++_reflection.so.1:_ZNK6google8protobuf8internal15DynamicMapField6GetMapEv
libgrpc++_reflection.so.1:_ZNK6google8protobuf8internal26GeneratedMessageReflection10AddMessageEPNS0_7MessageEPKNS0_15FieldDescriptorEPNS0_14MessageFactoryE
libgrpc++_reflection.so.1:_ZNK6google8protobuf8internal26GeneratedMessageReflection10ClearFieldEPNS0_7MessageEPKNS0_15FieldDescriptorE
libgrpc++_reflection.so.1:_ZNK6google8protobuf8internal26GeneratedMessageReflection10GetMapDataERKNS0_7MessageEPKNS0_15FieldDescriptorE
libgrpc++_reflection.so.1:_ZNK6google8protobuf8internal26GeneratedMessageReflection10GetMessageERKNS0_7MessageEPKNS0_15FieldDescriptorEPNS0_14MessageFactoryE
libgrpc++_reflection.so.1:_ZNK6google8protobuf8internal26GeneratedMessageReflection10ListFieldsERKNS0_7MessageEPSt6vectorIPKNS0_15FieldDescriptorESaIS9_EE
libgrpc++_reflection.so.1:_ZNK6google8protobuf8internal26GeneratedMessageReflection10RemoveLastEPNS0_7MessageEPKNS0_15FieldDescriptorE
libgrpc++_reflection.so.1:_ZNK6google8protobuf8internal26GeneratedMessageReflection10SwapFieldsEPNS0_7MessageES4_RKSt6vectorIPKNS0_15FieldDescriptorESaIS8_EE
libgrpc++_reflection.so.1:_ZNK6google8protobuf8internal26GeneratedMessageReflection11ReleaseLastEPNS0_7MessageEPKNS0_15FieldDescriptorE
libgrpc++_reflection.so.1:_ZNK6google8protobuf8internal26GeneratedMessageReflection12AddEnumValueEPNS0_7MessageEPKNS0_15FieldDescriptorEi
libgrpc++_reflection.so.1:_ZNK6google8protobuf8internal26GeneratedMessageReflection12GetEnumValueERKNS0_7MessageEPKNS0_15FieldDescriptorE
libgrpc++_reflection.so.1:_ZNK6google8protobuf8internal26GeneratedMessageReflection12SetEnumValueEPNS0_7MessageEPKNS0_15FieldDescriptorEi
libgrpc++_reflection.so.1:_ZNK6google8protobuf8internal26GeneratedMessageReflection12SwapElementsEPNS0_7MessageEPKNS0_15FieldDescriptorEii
libgrpc++_reflection.so.1:_ZNK6google8protobuf8internal26GeneratedMessageReflection13SpaceUsedLongERKNS0_7MessageE
libgrpc++_reflection.so.1:_ZNK6google8protobuf8internal26GeneratedMessageReflection14ContainsMapKeyERKNS0_7MessageEPKNS0_15FieldDescriptorERKNS0_6MapKeyE
libgrpc++_reflection.so.1:_ZNK6google8protobuf8internal26GeneratedMessageReflection14DeleteMapValueEPNS0_7MessageEPKNS0_15FieldDescriptorERKNS0_6MapKeyE
libgrpc++_reflection.so.1:_ZNK6google8protobuf8internal26GeneratedMessageReflection14MutableMapDataEPNS0_7MessageEPKNS0_15FieldDescriptorE
libgrpc++_reflection.so.1:_ZNK6google8protobuf8internal26GeneratedMessageReflection14MutableMessageEPNS0_7MessageEPKNS0_15FieldDescriptorEPNS0_14MessageFactoryE
libgrpc++_reflection.so.1:_ZNK6google8protobuf8internal26GeneratedMessageReflection14ReleaseMessageEPNS0_7MessageEPKNS0_15FieldDescriptorEPNS0_14MessageFactoryE
libgrpc++_reflection.so.1:_ZNK6google8protobuf8internal26GeneratedMessageReflection14SwapOneofFieldEPNS0_7MessageES4_PKNS0_15OneofDescriptorE
libgrpc++_reflection.so.1:_ZNK6google8protobuf8internal26GeneratedMessageReflection15GetRepeatedBoolERKNS0_7MessageEPKNS0_15FieldDescriptorEi
libgrpc++_reflection.so.1:_ZNK6google8protobuf8internal26GeneratedMessageReflection15GetRepeatedEnumERKNS0_7MessageEPKNS0_15FieldDescriptorEi
libgrpc++_reflection.so.1:_ZNK6google8protobuf8internal26GeneratedMessageReflection15SetRepeatedBoolEPNS0_7MessageEPKNS0_15FieldDescriptorEib
